
Cable Undefined V3.elf:     file format elf32-littlearm

Sections:
Idx Name          Size      VMA       LMA       File off  Algn
  0 .isr_vector   000001e4  08000000  08000000  00001000  2**0
                  CONTENTS, ALLOC, LOAD, READONLY, DATA
  1 .text         0000690c  080001e4  080001e4  000011e4  2**2
                  CONTENTS, ALLOC, LOAD, READONLY, CODE
  2 .rodata       00000ec8  08006af0  08006af0  00007af0  2**2
                  CONTENTS, ALLOC, LOAD, READONLY, DATA
  3 .ARM.extab    00000000  080079b8  080079b8  0000b040  2**0
                  CONTENTS
  4 .ARM          00000008  080079b8  080079b8  000089b8  2**2
                  CONTENTS, ALLOC, LOAD, READONLY, DATA
  5 .preinit_array 00000000  080079c0  080079c0  0000b040  2**0
                  CONTENTS, ALLOC, LOAD, DATA
  6 .init_array   00000004  080079c0  080079c0  000089c0  2**2
                  CONTENTS, ALLOC, LOAD, READONLY, DATA
  7 .fini_array   00000004  080079c4  080079c4  000089c4  2**2
                  CONTENTS, ALLOC, LOAD, READONLY, DATA
  8 .data         00002040  20000000  080079c8  00009000  2**2
                  CONTENTS, ALLOC, LOAD, DATA
  9 .bss          00003774  20002040  08009a08  0000b040  2**2
                  ALLOC
 10 ._user_heap_stack 00000604  200057b4  08009a08  0000b7b4  2**0
                  ALLOC
 11 .ARM.attributes 00000029  00000000  00000000  0000b040  2**0
                  CONTENTS, READONLY
 12 .debug_info   0000aeb0  00000000  00000000  0000b069  2**0
                  CONTENTS, READONLY, DEBUGGING, OCTETS
 13 .debug_abbrev 00002574  00000000  00000000  00015f19  2**0
                  CONTENTS, READONLY, DEBUGGING, OCTETS
 14 .debug_aranges 00000be8  00000000  00000000  00018490  2**3
                  CONTENTS, READONLY, DEBUGGING, OCTETS
 15 .debug_rnglists 000008d1  00000000  00000000  00019078  2**0
                  CONTENTS, READONLY, DEBUGGING, OCTETS
 16 .debug_macro  0001dc98  00000000  00000000  00019949  2**0
                  CONTENTS, READONLY, DEBUGGING, OCTETS
 17 .debug_line   0000a55f  00000000  00000000  000375e1  2**0
                  CONTENTS, READONLY, DEBUGGING, OCTETS
 18 .debug_str    0009c79d  00000000  00000000  00041b40  2**0
                  CONTENTS, READONLY, DEBUGGING, OCTETS
 19 .comment      00000043  00000000  00000000  000de2dd  2**0
                  CONTENTS, READONLY
 20 .debug_frame  00003db4  00000000  00000000  000de320  2**2
                  CONTENTS, READONLY, DEBUGGING, OCTETS
 21 .debug_line_str 00000081  00000000  00000000  000e20d4  2**0
                  CONTENTS, READONLY, DEBUGGING, OCTETS

Disassembly of section .text:

080001e4 <__do_global_dtors_aux>:
 80001e4:	b510      	push	{r4, lr}
 80001e6:	4c05      	ldr	r4, [pc, #20]	@ (80001fc <__do_global_dtors_aux+0x18>)
 80001e8:	7823      	ldrb	r3, [r4, #0]
 80001ea:	b933      	cbnz	r3, 80001fa <__do_global_dtors_aux+0x16>
 80001ec:	4b04      	ldr	r3, [pc, #16]	@ (8000200 <__do_global_dtors_aux+0x1c>)
 80001ee:	b113      	cbz	r3, 80001f6 <__do_global_dtors_aux+0x12>
 80001f0:	4804      	ldr	r0, [pc, #16]	@ (8000204 <__do_global_dtors_aux+0x20>)
 80001f2:	f3af 8000 	nop.w
 80001f6:	2301      	movs	r3, #1
 80001f8:	7023      	strb	r3, [r4, #0]
 80001fa:	bd10      	pop	{r4, pc}
 80001fc:	20002040 	.word	0x20002040
 8000200:	00000000 	.word	0x00000000
 8000204:	08006ad8 	.word	0x08006ad8

08000208 <frame_dummy>:
 8000208:	b508      	push	{r3, lr}
 800020a:	4b03      	ldr	r3, [pc, #12]	@ (8000218 <frame_dummy+0x10>)
 800020c:	b11b      	cbz	r3, 8000216 <frame_dummy+0xe>
 800020e:	4903      	ldr	r1, [pc, #12]	@ (800021c <frame_dummy+0x14>)
 8000210:	4803      	ldr	r0, [pc, #12]	@ (8000220 <frame_dummy+0x18>)
 8000212:	f3af 8000 	nop.w
 8000216:	bd08      	pop	{r3, pc}
 8000218:	00000000 	.word	0x00000000
 800021c:	20002044 	.word	0x20002044
 8000220:	08006ad8 	.word	0x08006ad8

08000224 <strcmp>:
 8000224:	f810 2b01 	ldrb.w	r2, [r0], #1
 8000228:	f811 3b01 	ldrb.w	r3, [r1], #1
 800022c:	2a01      	cmp	r2, #1
 800022e:	bf28      	it	cs
 8000230:	429a      	cmpcs	r2, r3
 8000232:	d0f7      	beq.n	8000224 <strcmp>
 8000234:	1ad0      	subs	r0, r2, r3
 8000236:	4770      	bx	lr

08000238 <strlen>:
 8000238:	4603      	mov	r3, r0
 800023a:	f813 2b01 	ldrb.w	r2, [r3], #1
 800023e:	2a00      	cmp	r2, #0
 8000240:	d1fb      	bne.n	800023a <strlen+0x2>
 8000242:	1a18      	subs	r0, r3, r0
 8000244:	3801      	subs	r0, #1
 8000246:	4770      	bx	lr

08000248 <LL_GPIO_SetOutputPin>:
  *         @arg @ref LL_GPIO_PIN_15
  *         @arg @ref LL_GPIO_PIN_ALL
  * @retval None
  */
__STATIC_INLINE void LL_GPIO_SetOutputPin(GPIO_TypeDef *GPIOx, uint32_t PinMask)
{
 8000248:	b480      	push	{r7}
 800024a:	b083      	sub	sp, #12
 800024c:	af00      	add	r7, sp, #0
 800024e:	6078      	str	r0, [r7, #4]
 8000250:	6039      	str	r1, [r7, #0]
  WRITE_REG(GPIOx->BSRR, (PinMask >> GPIO_PIN_MASK_POS) & 0x0000FFFFU);
 8000252:	683b      	ldr	r3, [r7, #0]
 8000254:	0a1b      	lsrs	r3, r3, #8
 8000256:	b29a      	uxth	r2, r3
 8000258:	687b      	ldr	r3, [r7, #4]
 800025a:	611a      	str	r2, [r3, #16]
}
 800025c:	bf00      	nop
 800025e:	370c      	adds	r7, #12
 8000260:	46bd      	mov	sp, r7
 8000262:	bc80      	pop	{r7}
 8000264:	4770      	bx	lr

08000266 <LL_GPIO_ResetOutputPin>:
  *         @arg @ref LL_GPIO_PIN_15
  *         @arg @ref LL_GPIO_PIN_ALL
  * @retval None
  */
__STATIC_INLINE void LL_GPIO_ResetOutputPin(GPIO_TypeDef *GPIOx, uint32_t PinMask)
{
 8000266:	b480      	push	{r7}
 8000268:	b083      	sub	sp, #12
 800026a:	af00      	add	r7, sp, #0
 800026c:	6078      	str	r0, [r7, #4]
 800026e:	6039      	str	r1, [r7, #0]
  WRITE_REG(GPIOx->BRR, (PinMask >> GPIO_PIN_MASK_POS) & 0x0000FFFFU);
 8000270:	683b      	ldr	r3, [r7, #0]
 8000272:	0a1b      	lsrs	r3, r3, #8
 8000274:	b29a      	uxth	r2, r3
 8000276:	687b      	ldr	r3, [r7, #4]
 8000278:	615a      	str	r2, [r3, #20]
}
 800027a:	bf00      	nop
 800027c:	370c      	adds	r7, #12
 800027e:	46bd      	mov	sp, r7
 8000280:	bc80      	pop	{r7}
 8000282:	4770      	bx	lr

08000284 <FAULT_CheckAndReport>:

/**
 * @brief Check which FAULT occurred and send the appropriate message
 */
void FAULT_CheckAndReport(void)
{
 8000284:	b580      	push	{r7, lr}
 8000286:	b082      	sub	sp, #8
 8000288:	af00      	add	r7, sp, #0
    // Only process if an interrupt was triggered and message has not been sent
    if (!fault_sent) {
 800028a:	4b21      	ldr	r3, [pc, #132]	@ (8000310 <FAULT_CheckAndReport+0x8c>)
 800028c:	781b      	ldrb	r3, [r3, #0]
 800028e:	b2db      	uxtb	r3, r3
 8000290:	2b00      	cmp	r3, #0
 8000292:	d134      	bne.n	80002fe <FAULT_CheckAndReport+0x7a>
        uint8_t fault_msg[2] = {0xFF, 0x00};  // 0xFF = start byte, 0x00 = code
 8000294:	23ff      	movs	r3, #255	@ 0xff
 8000296:	80bb      	strh	r3, [r7, #4]
		[0xFF] [0x01] for 3v3
		[0xFF] [0x02] for 5V
		[0xFF] [0x03] for both
		 */

        if (fault_3v3_triggered && fault_5v_triggered) {
 8000298:	4b1e      	ldr	r3, [pc, #120]	@ (8000314 <FAULT_CheckAndReport+0x90>)
 800029a:	781b      	ldrb	r3, [r3, #0]
 800029c:	b2db      	uxtb	r3, r3
 800029e:	2b00      	cmp	r3, #0
 80002a0:	d007      	beq.n	80002b2 <FAULT_CheckAndReport+0x2e>
 80002a2:	4b1d      	ldr	r3, [pc, #116]	@ (8000318 <FAULT_CheckAndReport+0x94>)
 80002a4:	781b      	ldrb	r3, [r3, #0]
 80002a6:	b2db      	uxtb	r3, r3
 80002a8:	2b00      	cmp	r3, #0
 80002aa:	d002      	beq.n	80002b2 <FAULT_CheckAndReport+0x2e>
            fault_msg[1] = 0x03; // Both
 80002ac:	2303      	movs	r3, #3
 80002ae:	717b      	strb	r3, [r7, #5]
 80002b0:	e00e      	b.n	80002d0 <FAULT_CheckAndReport+0x4c>
        } else if (fault_3v3_triggered) {
 80002b2:	4b18      	ldr	r3, [pc, #96]	@ (8000314 <FAULT_CheckAndReport+0x90>)
 80002b4:	781b      	ldrb	r3, [r3, #0]
 80002b6:	b2db      	uxtb	r3, r3
 80002b8:	2b00      	cmp	r3, #0
 80002ba:	d002      	beq.n	80002c2 <FAULT_CheckAndReport+0x3e>
            fault_msg[1] = 0x01; // 3v3 only
 80002bc:	2301      	movs	r3, #1
 80002be:	717b      	strb	r3, [r7, #5]
 80002c0:	e006      	b.n	80002d0 <FAULT_CheckAndReport+0x4c>
        } else if (fault_5v_triggered) {
 80002c2:	4b15      	ldr	r3, [pc, #84]	@ (8000318 <FAULT_CheckAndReport+0x94>)
 80002c4:	781b      	ldrb	r3, [r3, #0]
 80002c6:	b2db      	uxtb	r3, r3
 80002c8:	2b00      	cmp	r3, #0
 80002ca:	d01c      	beq.n	8000306 <FAULT_CheckAndReport+0x82>
            fault_msg[1] = 0x02; // 5V only
 80002cc:	2302      	movs	r3, #2
 80002ce:	717b      	strb	r3, [r7, #5]
        } else {
            return; // No fault
        }

        // Send hex-formatted message via UART1 and UART3
        if (usingESP)
 80002d0:	4b12      	ldr	r3, [pc, #72]	@ (800031c <FAULT_CheckAndReport+0x98>)
 80002d2:	781b      	ldrb	r3, [r3, #0]
 80002d4:	b2db      	uxtb	r3, r3
 80002d6:	2b00      	cmp	r3, #0
 80002d8:	d006      	beq.n	80002e8 <FAULT_CheckAndReport+0x64>
        	sendRawUART(USART1, fault_msg, 2);
 80002da:	1d3b      	adds	r3, r7, #4
 80002dc:	2202      	movs	r2, #2
 80002de:	4619      	mov	r1, r3
 80002e0:	480f      	ldr	r0, [pc, #60]	@ (8000320 <FAULT_CheckAndReport+0x9c>)
 80002e2:	f002 ff3d 	bl	8003160 <sendRawUART>
 80002e6:	e00a      	b.n	80002fe <FAULT_CheckAndReport+0x7a>
        else if (usingCP2102)
 80002e8:	4b0e      	ldr	r3, [pc, #56]	@ (8000324 <FAULT_CheckAndReport+0xa0>)
 80002ea:	781b      	ldrb	r3, [r3, #0]
 80002ec:	b2db      	uxtb	r3, r3
 80002ee:	2b00      	cmp	r3, #0
 80002f0:	d005      	beq.n	80002fe <FAULT_CheckAndReport+0x7a>
        	sendRawUART(USART3, fault_msg, 2);
 80002f2:	1d3b      	adds	r3, r7, #4
 80002f4:	2202      	movs	r2, #2
 80002f6:	4619      	mov	r1, r3
 80002f8:	480b      	ldr	r0, [pc, #44]	@ (8000328 <FAULT_CheckAndReport+0xa4>)
 80002fa:	f002 ff31 	bl	8003160 <sendRawUART>
    }

    fault_sent = 1;
 80002fe:	4b04      	ldr	r3, [pc, #16]	@ (8000310 <FAULT_CheckAndReport+0x8c>)
 8000300:	2201      	movs	r2, #1
 8000302:	701a      	strb	r2, [r3, #0]
 8000304:	e000      	b.n	8000308 <FAULT_CheckAndReport+0x84>
            return; // No fault
 8000306:	bf00      	nop
}
 8000308:	3708      	adds	r7, #8
 800030a:	46bd      	mov	sp, r7
 800030c:	bd80      	pop	{r7, pc}
 800030e:	bf00      	nop
 8000310:	2000205e 	.word	0x2000205e
 8000314:	2000205c 	.word	0x2000205c
 8000318:	2000205d 	.word	0x2000205d
 800031c:	200055e0 	.word	0x200055e0
 8000320:	40013800 	.word	0x40013800
 8000324:	200055e1 	.word	0x200055e1
 8000328:	40004800 	.word	0x40004800

0800032c <FAULT_5v_HandleInterrupt>:


/**
 * @brief Handles the 5V FAULT interrupt, only sets flags
 */
void FAULT_5v_HandleInterrupt(void) {
 800032c:	b480      	push	{r7}
 800032e:	af00      	add	r7, sp, #0
    // Set trigger flag when interrupt occurs
	fault_5v_triggered = 1;
 8000330:	4b04      	ldr	r3, [pc, #16]	@ (8000344 <FAULT_5v_HandleInterrupt+0x18>)
 8000332:	2201      	movs	r2, #1
 8000334:	701a      	strb	r2, [r3, #0]
    fault_sent = 0;  // Reset message sent flag to allow new transmission
 8000336:	4b04      	ldr	r3, [pc, #16]	@ (8000348 <FAULT_5v_HandleInterrupt+0x1c>)
 8000338:	2200      	movs	r2, #0
 800033a:	701a      	strb	r2, [r3, #0]
}
 800033c:	bf00      	nop
 800033e:	46bd      	mov	sp, r7
 8000340:	bc80      	pop	{r7}
 8000342:	4770      	bx	lr
 8000344:	2000205d 	.word	0x2000205d
 8000348:	2000205e 	.word	0x2000205e

0800034c <FAULT_3v3_HandleInterrupt>:

/**
 * @brief Handles the 5V FAULT interrupt, only sets flags
 */
void FAULT_3v3_HandleInterrupt(void) {
 800034c:	b480      	push	{r7}
 800034e:	af00      	add	r7, sp, #0
    // Set trigger flag when interrupt occurs
	fault_3v3_triggered = 1;
 8000350:	4b04      	ldr	r3, [pc, #16]	@ (8000364 <FAULT_3v3_HandleInterrupt+0x18>)
 8000352:	2201      	movs	r2, #1
 8000354:	701a      	strb	r2, [r3, #0]
    fault_sent = 0;  // Reset message sent flag to allow new transmission
 8000356:	4b04      	ldr	r3, [pc, #16]	@ (8000368 <FAULT_3v3_HandleInterrupt+0x1c>)
 8000358:	2200      	movs	r2, #0
 800035a:	701a      	strb	r2, [r3, #0]
}
 800035c:	bf00      	nop
 800035e:	46bd      	mov	sp, r7
 8000360:	bc80      	pop	{r7}
 8000362:	4770      	bx	lr
 8000364:	2000205c 	.word	0x2000205c
 8000368:	2000205e 	.word	0x2000205e

0800036c <FAULT_5v_HandleMsg>:

void FAULT_5v_HandleMsg(void){
 800036c:	b580      	push	{r7, lr}
 800036e:	af00      	add	r7, sp, #0
	printf("Reseting the protection gpio, 5V");
 8000370:	480d      	ldr	r0, [pc, #52]	@ (80003a8 <FAULT_5v_HandleMsg+0x3c>)
 8000372:	f004 fead 	bl	80050d0 <iprintf>
	fflush(stdout);
 8000376:	4b0d      	ldr	r3, [pc, #52]	@ (80003ac <FAULT_5v_HandleMsg+0x40>)
 8000378:	681b      	ldr	r3, [r3, #0]
 800037a:	689b      	ldr	r3, [r3, #8]
 800037c:	4618      	mov	r0, r3
 800037e:	f004 fdd1 	bl	8004f24 <fflush>

	fault_5v_triggered = 0;
 8000382:	4b0b      	ldr	r3, [pc, #44]	@ (80003b0 <FAULT_5v_HandleMsg+0x44>)
 8000384:	2200      	movs	r2, #0
 8000386:	701a      	strb	r2, [r3, #0]
    fault_sent = 0;
 8000388:	4b0a      	ldr	r3, [pc, #40]	@ (80003b4 <FAULT_5v_HandleMsg+0x48>)
 800038a:	2200      	movs	r2, #0
 800038c:	701a      	strb	r2, [r3, #0]

    LL_GPIO_ResetOutputPin(PROTECTION_GPIO, PROTECTION_PIN);
 800038e:	490a      	ldr	r1, [pc, #40]	@ (80003b8 <FAULT_5v_HandleMsg+0x4c>)
 8000390:	480a      	ldr	r0, [pc, #40]	@ (80003bc <FAULT_5v_HandleMsg+0x50>)
 8000392:	f7ff ff68 	bl	8000266 <LL_GPIO_ResetOutputPin>
    LL_mDelay(20);
 8000396:	2014      	movs	r0, #20
 8000398:	f004 fcea 	bl	8004d70 <LL_mDelay>
    LL_GPIO_SetOutputPin(PROTECTION_GPIO, PROTECTION_PIN);
 800039c:	4906      	ldr	r1, [pc, #24]	@ (80003b8 <FAULT_5v_HandleMsg+0x4c>)
 800039e:	4807      	ldr	r0, [pc, #28]	@ (80003bc <FAULT_5v_HandleMsg+0x50>)
 80003a0:	f7ff ff52 	bl	8000248 <LL_GPIO_SetOutputPin>
}
 80003a4:	bf00      	nop
 80003a6:	bd80      	pop	{r7, pc}
 80003a8:	08006af0 	.word	0x08006af0
 80003ac:	20001ff0 	.word	0x20001ff0
 80003b0:	2000205d 	.word	0x2000205d
 80003b4:	2000205e 	.word	0x2000205e
 80003b8:	04080008 	.word	0x04080008
 80003bc:	40011800 	.word	0x40011800

080003c0 <FAULT_3v3_HandleMsg>:

void FAULT_3v3_HandleMsg(void){
 80003c0:	b580      	push	{r7, lr}
 80003c2:	af00      	add	r7, sp, #0
	printf("reseting the protection gpio, 3V3");
 80003c4:	480d      	ldr	r0, [pc, #52]	@ (80003fc <FAULT_3v3_HandleMsg+0x3c>)
 80003c6:	f004 fe83 	bl	80050d0 <iprintf>
	fflush(stdout);
 80003ca:	4b0d      	ldr	r3, [pc, #52]	@ (8000400 <FAULT_3v3_HandleMsg+0x40>)
 80003cc:	681b      	ldr	r3, [r3, #0]
 80003ce:	689b      	ldr	r3, [r3, #8]
 80003d0:	4618      	mov	r0, r3
 80003d2:	f004 fda7 	bl	8004f24 <fflush>

	fault_3v3_triggered = 0;
 80003d6:	4b0b      	ldr	r3, [pc, #44]	@ (8000404 <FAULT_3v3_HandleMsg+0x44>)
 80003d8:	2200      	movs	r2, #0
 80003da:	701a      	strb	r2, [r3, #0]
    fault_sent = 0;
 80003dc:	4b0a      	ldr	r3, [pc, #40]	@ (8000408 <FAULT_3v3_HandleMsg+0x48>)
 80003de:	2200      	movs	r2, #0
 80003e0:	701a      	strb	r2, [r3, #0]

    LL_GPIO_ResetOutputPin(PROTECTION_GPIO, PROTECTION_PIN);
 80003e2:	490a      	ldr	r1, [pc, #40]	@ (800040c <FAULT_3v3_HandleMsg+0x4c>)
 80003e4:	480a      	ldr	r0, [pc, #40]	@ (8000410 <FAULT_3v3_HandleMsg+0x50>)
 80003e6:	f7ff ff3e 	bl	8000266 <LL_GPIO_ResetOutputPin>
    LL_mDelay(20);
 80003ea:	2014      	movs	r0, #20
 80003ec:	f004 fcc0 	bl	8004d70 <LL_mDelay>
    LL_GPIO_SetOutputPin(PROTECTION_GPIO, PROTECTION_PIN);
 80003f0:	4906      	ldr	r1, [pc, #24]	@ (800040c <FAULT_3v3_HandleMsg+0x4c>)
 80003f2:	4807      	ldr	r0, [pc, #28]	@ (8000410 <FAULT_3v3_HandleMsg+0x50>)
 80003f4:	f7ff ff28 	bl	8000248 <LL_GPIO_SetOutputPin>
}
 80003f8:	bf00      	nop
 80003fa:	bd80      	pop	{r7, pc}
 80003fc:	08006b14 	.word	0x08006b14
 8000400:	20001ff0 	.word	0x20001ff0
 8000404:	2000205c 	.word	0x2000205c
 8000408:	2000205e 	.word	0x2000205e
 800040c:	04080008 	.word	0x04080008
 8000410:	40011800 	.word	0x40011800

08000414 <LL_DMA_EnableChannel>:
  *         @arg @ref LL_DMA_CHANNEL_6
  *         @arg @ref LL_DMA_CHANNEL_7
  * @retval None
  */
__STATIC_INLINE void LL_DMA_EnableChannel(DMA_TypeDef *DMAx, uint32_t Channel)
{
 8000414:	b480      	push	{r7}
 8000416:	b083      	sub	sp, #12
 8000418:	af00      	add	r7, sp, #0
 800041a:	6078      	str	r0, [r7, #4]
 800041c:	6039      	str	r1, [r7, #0]
  SET_BIT(((DMA_Channel_TypeDef *)((uint32_t)((uint32_t)DMAx + CHANNEL_OFFSET_TAB[Channel - 1U])))->CCR, DMA_CCR_EN);
 800041e:	683b      	ldr	r3, [r7, #0]
 8000420:	3b01      	subs	r3, #1
 8000422:	4a0a      	ldr	r2, [pc, #40]	@ (800044c <LL_DMA_EnableChannel+0x38>)
 8000424:	5cd3      	ldrb	r3, [r2, r3]
 8000426:	461a      	mov	r2, r3
 8000428:	687b      	ldr	r3, [r7, #4]
 800042a:	4413      	add	r3, r2
 800042c:	681b      	ldr	r3, [r3, #0]
 800042e:	683a      	ldr	r2, [r7, #0]
 8000430:	3a01      	subs	r2, #1
 8000432:	4906      	ldr	r1, [pc, #24]	@ (800044c <LL_DMA_EnableChannel+0x38>)
 8000434:	5c8a      	ldrb	r2, [r1, r2]
 8000436:	4611      	mov	r1, r2
 8000438:	687a      	ldr	r2, [r7, #4]
 800043a:	440a      	add	r2, r1
 800043c:	f043 0301 	orr.w	r3, r3, #1
 8000440:	6013      	str	r3, [r2, #0]
}
 8000442:	bf00      	nop
 8000444:	370c      	adds	r7, #12
 8000446:	46bd      	mov	sp, r7
 8000448:	bc80      	pop	{r7}
 800044a:	4770      	bx	lr
 800044c:	08007828 	.word	0x08007828

08000450 <LL_DMA_DisableChannel>:
  *         @arg @ref LL_DMA_CHANNEL_6
  *         @arg @ref LL_DMA_CHANNEL_7
  * @retval None
  */
__STATIC_INLINE void LL_DMA_DisableChannel(DMA_TypeDef *DMAx, uint32_t Channel)
{
 8000450:	b480      	push	{r7}
 8000452:	b083      	sub	sp, #12
 8000454:	af00      	add	r7, sp, #0
 8000456:	6078      	str	r0, [r7, #4]
 8000458:	6039      	str	r1, [r7, #0]
  CLEAR_BIT(((DMA_Channel_TypeDef *)((uint32_t)((uint32_t)DMAx + CHANNEL_OFFSET_TAB[Channel - 1U])))->CCR, DMA_CCR_EN);
 800045a:	683b      	ldr	r3, [r7, #0]
 800045c:	3b01      	subs	r3, #1
 800045e:	4a0a      	ldr	r2, [pc, #40]	@ (8000488 <LL_DMA_DisableChannel+0x38>)
 8000460:	5cd3      	ldrb	r3, [r2, r3]
 8000462:	461a      	mov	r2, r3
 8000464:	687b      	ldr	r3, [r7, #4]
 8000466:	4413      	add	r3, r2
 8000468:	681b      	ldr	r3, [r3, #0]
 800046a:	683a      	ldr	r2, [r7, #0]
 800046c:	3a01      	subs	r2, #1
 800046e:	4906      	ldr	r1, [pc, #24]	@ (8000488 <LL_DMA_DisableChannel+0x38>)
 8000470:	5c8a      	ldrb	r2, [r1, r2]
 8000472:	4611      	mov	r1, r2
 8000474:	687a      	ldr	r2, [r7, #4]
 8000476:	440a      	add	r2, r1
 8000478:	f023 0301 	bic.w	r3, r3, #1
 800047c:	6013      	str	r3, [r2, #0]
}
 800047e:	bf00      	nop
 8000480:	370c      	adds	r7, #12
 8000482:	46bd      	mov	sp, r7
 8000484:	bc80      	pop	{r7}
 8000486:	4770      	bx	lr
 8000488:	08007828 	.word	0x08007828

0800048c <LL_DMA_SetDataLength>:
  *         @arg @ref LL_DMA_CHANNEL_7
  * @param  NbData Between Min_Data = 0 and Max_Data = 0x0000FFFF
  * @retval None
  */
__STATIC_INLINE void LL_DMA_SetDataLength(DMA_TypeDef *DMAx, uint32_t Channel, uint32_t NbData)
{
 800048c:	b480      	push	{r7}
 800048e:	b085      	sub	sp, #20
 8000490:	af00      	add	r7, sp, #0
 8000492:	60f8      	str	r0, [r7, #12]
 8000494:	60b9      	str	r1, [r7, #8]
 8000496:	607a      	str	r2, [r7, #4]
  MODIFY_REG(((DMA_Channel_TypeDef *)((uint32_t)((uint32_t)DMAx + CHANNEL_OFFSET_TAB[Channel - 1U])))->CNDTR,
 8000498:	68bb      	ldr	r3, [r7, #8]
 800049a:	3b01      	subs	r3, #1
 800049c:	4a0b      	ldr	r2, [pc, #44]	@ (80004cc <LL_DMA_SetDataLength+0x40>)
 800049e:	5cd3      	ldrb	r3, [r2, r3]
 80004a0:	461a      	mov	r2, r3
 80004a2:	68fb      	ldr	r3, [r7, #12]
 80004a4:	4413      	add	r3, r2
 80004a6:	685b      	ldr	r3, [r3, #4]
 80004a8:	0c1b      	lsrs	r3, r3, #16
 80004aa:	041b      	lsls	r3, r3, #16
 80004ac:	68ba      	ldr	r2, [r7, #8]
 80004ae:	3a01      	subs	r2, #1
 80004b0:	4906      	ldr	r1, [pc, #24]	@ (80004cc <LL_DMA_SetDataLength+0x40>)
 80004b2:	5c8a      	ldrb	r2, [r1, r2]
 80004b4:	4611      	mov	r1, r2
 80004b6:	68fa      	ldr	r2, [r7, #12]
 80004b8:	440a      	add	r2, r1
 80004ba:	4611      	mov	r1, r2
 80004bc:	687a      	ldr	r2, [r7, #4]
 80004be:	4313      	orrs	r3, r2
 80004c0:	604b      	str	r3, [r1, #4]
             DMA_CNDTR_NDT, NbData);
}
 80004c2:	bf00      	nop
 80004c4:	3714      	adds	r7, #20
 80004c6:	46bd      	mov	sp, r7
 80004c8:	bc80      	pop	{r7}
 80004ca:	4770      	bx	lr
 80004cc:	08007828 	.word	0x08007828

080004d0 <LL_DMA_ConfigAddresses>:
  *         @arg @ref LL_DMA_DIRECTION_MEMORY_TO_MEMORY
  * @retval None
  */
__STATIC_INLINE void LL_DMA_ConfigAddresses(DMA_TypeDef *DMAx, uint32_t Channel, uint32_t SrcAddress,
                                            uint32_t DstAddress, uint32_t Direction)
{
 80004d0:	b480      	push	{r7}
 80004d2:	b085      	sub	sp, #20
 80004d4:	af00      	add	r7, sp, #0
 80004d6:	60f8      	str	r0, [r7, #12]
 80004d8:	60b9      	str	r1, [r7, #8]
 80004da:	607a      	str	r2, [r7, #4]
 80004dc:	603b      	str	r3, [r7, #0]
  /* Direction Memory to Periph */
  if (Direction == LL_DMA_DIRECTION_MEMORY_TO_PERIPH)
 80004de:	69bb      	ldr	r3, [r7, #24]
 80004e0:	2b10      	cmp	r3, #16
 80004e2:	d114      	bne.n	800050e <LL_DMA_ConfigAddresses+0x3e>
  {
    WRITE_REG(((DMA_Channel_TypeDef *)((uint32_t)((uint32_t)DMAx + CHANNEL_OFFSET_TAB[Channel - 1U])))->CMAR, SrcAddress);
 80004e4:	68bb      	ldr	r3, [r7, #8]
 80004e6:	3b01      	subs	r3, #1
 80004e8:	4a15      	ldr	r2, [pc, #84]	@ (8000540 <LL_DMA_ConfigAddresses+0x70>)
 80004ea:	5cd3      	ldrb	r3, [r2, r3]
 80004ec:	461a      	mov	r2, r3
 80004ee:	68fb      	ldr	r3, [r7, #12]
 80004f0:	4413      	add	r3, r2
 80004f2:	461a      	mov	r2, r3
 80004f4:	687b      	ldr	r3, [r7, #4]
 80004f6:	60d3      	str	r3, [r2, #12]
    WRITE_REG(((DMA_Channel_TypeDef *)((uint32_t)((uint32_t)DMAx + CHANNEL_OFFSET_TAB[Channel - 1U])))->CPAR, DstAddress);
 80004f8:	68bb      	ldr	r3, [r7, #8]
 80004fa:	3b01      	subs	r3, #1
 80004fc:	4a10      	ldr	r2, [pc, #64]	@ (8000540 <LL_DMA_ConfigAddresses+0x70>)
 80004fe:	5cd3      	ldrb	r3, [r2, r3]
 8000500:	461a      	mov	r2, r3
 8000502:	68fb      	ldr	r3, [r7, #12]
 8000504:	4413      	add	r3, r2
 8000506:	461a      	mov	r2, r3
 8000508:	683b      	ldr	r3, [r7, #0]
 800050a:	6093      	str	r3, [r2, #8]
  else
  {
    WRITE_REG(((DMA_Channel_TypeDef *)((uint32_t)((uint32_t)DMAx + CHANNEL_OFFSET_TAB[Channel - 1U])))->CPAR, SrcAddress);
    WRITE_REG(((DMA_Channel_TypeDef *)((uint32_t)((uint32_t)DMAx + CHANNEL_OFFSET_TAB[Channel - 1U])))->CMAR, DstAddress);
  }
}
 800050c:	e013      	b.n	8000536 <LL_DMA_ConfigAddresses+0x66>
    WRITE_REG(((DMA_Channel_TypeDef *)((uint32_t)((uint32_t)DMAx + CHANNEL_OFFSET_TAB[Channel - 1U])))->CPAR, SrcAddress);
 800050e:	68bb      	ldr	r3, [r7, #8]
 8000510:	3b01      	subs	r3, #1
 8000512:	4a0b      	ldr	r2, [pc, #44]	@ (8000540 <LL_DMA_ConfigAddresses+0x70>)
 8000514:	5cd3      	ldrb	r3, [r2, r3]
 8000516:	461a      	mov	r2, r3
 8000518:	68fb      	ldr	r3, [r7, #12]
 800051a:	4413      	add	r3, r2
 800051c:	461a      	mov	r2, r3
 800051e:	687b      	ldr	r3, [r7, #4]
 8000520:	6093      	str	r3, [r2, #8]
    WRITE_REG(((DMA_Channel_TypeDef *)((uint32_t)((uint32_t)DMAx + CHANNEL_OFFSET_TAB[Channel - 1U])))->CMAR, DstAddress);
 8000522:	68bb      	ldr	r3, [r7, #8]
 8000524:	3b01      	subs	r3, #1
 8000526:	4a06      	ldr	r2, [pc, #24]	@ (8000540 <LL_DMA_ConfigAddresses+0x70>)
 8000528:	5cd3      	ldrb	r3, [r2, r3]
 800052a:	461a      	mov	r2, r3
 800052c:	68fb      	ldr	r3, [r7, #12]
 800052e:	4413      	add	r3, r2
 8000530:	461a      	mov	r2, r3
 8000532:	683b      	ldr	r3, [r7, #0]
 8000534:	60d3      	str	r3, [r2, #12]
}
 8000536:	bf00      	nop
 8000538:	3714      	adds	r7, #20
 800053a:	46bd      	mov	sp, r7
 800053c:	bc80      	pop	{r7}
 800053e:	4770      	bx	lr
 8000540:	08007828 	.word	0x08007828

08000544 <LL_TIM_EnableCounter>:
  * @rmtoll CR1          CEN           LL_TIM_EnableCounter
  * @param  TIMx Timer instance
  * @retval None
  */
__STATIC_INLINE void LL_TIM_EnableCounter(TIM_TypeDef *TIMx)
{
 8000544:	b480      	push	{r7}
 8000546:	b083      	sub	sp, #12
 8000548:	af00      	add	r7, sp, #0
 800054a:	6078      	str	r0, [r7, #4]
  SET_BIT(TIMx->CR1, TIM_CR1_CEN);
 800054c:	687b      	ldr	r3, [r7, #4]
 800054e:	681b      	ldr	r3, [r3, #0]
 8000550:	f043 0201 	orr.w	r2, r3, #1
 8000554:	687b      	ldr	r3, [r7, #4]
 8000556:	601a      	str	r2, [r3, #0]
}
 8000558:	bf00      	nop
 800055a:	370c      	adds	r7, #12
 800055c:	46bd      	mov	sp, r7
 800055e:	bc80      	pop	{r7}
 8000560:	4770      	bx	lr

08000562 <LL_TIM_DisableCounter>:
  * @rmtoll CR1          CEN           LL_TIM_DisableCounter
  * @param  TIMx Timer instance
  * @retval None
  */
__STATIC_INLINE void LL_TIM_DisableCounter(TIM_TypeDef *TIMx)
{
 8000562:	b480      	push	{r7}
 8000564:	b083      	sub	sp, #12
 8000566:	af00      	add	r7, sp, #0
 8000568:	6078      	str	r0, [r7, #4]
  CLEAR_BIT(TIMx->CR1, TIM_CR1_CEN);
 800056a:	687b      	ldr	r3, [r7, #4]
 800056c:	681b      	ldr	r3, [r3, #0]
 800056e:	f023 0201 	bic.w	r2, r3, #1
 8000572:	687b      	ldr	r3, [r7, #4]
 8000574:	601a      	str	r2, [r3, #0]
}
 8000576:	bf00      	nop
 8000578:	370c      	adds	r7, #12
 800057a:	46bd      	mov	sp, r7
 800057c:	bc80      	pop	{r7}
 800057e:	4770      	bx	lr

08000580 <LL_TIM_CC_EnableChannel>:
  *         @arg @ref LL_TIM_CHANNEL_CH3N
  *         @arg @ref LL_TIM_CHANNEL_CH4
  * @retval None
  */
__STATIC_INLINE void LL_TIM_CC_EnableChannel(TIM_TypeDef *TIMx, uint32_t Channels)
{
 8000580:	b480      	push	{r7}
 8000582:	b083      	sub	sp, #12
 8000584:	af00      	add	r7, sp, #0
 8000586:	6078      	str	r0, [r7, #4]
 8000588:	6039      	str	r1, [r7, #0]
  SET_BIT(TIMx->CCER, Channels);
 800058a:	687b      	ldr	r3, [r7, #4]
 800058c:	6a1a      	ldr	r2, [r3, #32]
 800058e:	683b      	ldr	r3, [r7, #0]
 8000590:	431a      	orrs	r2, r3
 8000592:	687b      	ldr	r3, [r7, #4]
 8000594:	621a      	str	r2, [r3, #32]
}
 8000596:	bf00      	nop
 8000598:	370c      	adds	r7, #12
 800059a:	46bd      	mov	sp, r7
 800059c:	bc80      	pop	{r7}
 800059e:	4770      	bx	lr

080005a0 <LL_TIM_CC_DisableChannel>:
  *         @arg @ref LL_TIM_CHANNEL_CH3N
  *         @arg @ref LL_TIM_CHANNEL_CH4
  * @retval None
  */
__STATIC_INLINE void LL_TIM_CC_DisableChannel(TIM_TypeDef *TIMx, uint32_t Channels)
{
 80005a0:	b480      	push	{r7}
 80005a2:	b083      	sub	sp, #12
 80005a4:	af00      	add	r7, sp, #0
 80005a6:	6078      	str	r0, [r7, #4]
 80005a8:	6039      	str	r1, [r7, #0]
  CLEAR_BIT(TIMx->CCER, Channels);
 80005aa:	687b      	ldr	r3, [r7, #4]
 80005ac:	6a1a      	ldr	r2, [r3, #32]
 80005ae:	683b      	ldr	r3, [r7, #0]
 80005b0:	43db      	mvns	r3, r3
 80005b2:	401a      	ands	r2, r3
 80005b4:	687b      	ldr	r3, [r7, #4]
 80005b6:	621a      	str	r2, [r3, #32]
}
 80005b8:	bf00      	nop
 80005ba:	370c      	adds	r7, #12
 80005bc:	46bd      	mov	sp, r7
 80005be:	bc80      	pop	{r7}
 80005c0:	4770      	bx	lr

080005c2 <LL_TIM_EnableDMAReq_CC1>:
  * @rmtoll DIER         CC1DE         LL_TIM_EnableDMAReq_CC1
  * @param  TIMx Timer instance
  * @retval None
  */
__STATIC_INLINE void LL_TIM_EnableDMAReq_CC1(TIM_TypeDef *TIMx)
{
 80005c2:	b480      	push	{r7}
 80005c4:	b083      	sub	sp, #12
 80005c6:	af00      	add	r7, sp, #0
 80005c8:	6078      	str	r0, [r7, #4]
  SET_BIT(TIMx->DIER, TIM_DIER_CC1DE);
 80005ca:	687b      	ldr	r3, [r7, #4]
 80005cc:	68db      	ldr	r3, [r3, #12]
 80005ce:	f443 7200 	orr.w	r2, r3, #512	@ 0x200
 80005d2:	687b      	ldr	r3, [r7, #4]
 80005d4:	60da      	str	r2, [r3, #12]
}
 80005d6:	bf00      	nop
 80005d8:	370c      	adds	r7, #12
 80005da:	46bd      	mov	sp, r7
 80005dc:	bc80      	pop	{r7}
 80005de:	4770      	bx	lr

080005e0 <LL_TIM_DisableDMAReq_CC1>:
  * @rmtoll DIER         CC1DE         LL_TIM_DisableDMAReq_CC1
  * @param  TIMx Timer instance
  * @retval None
  */
__STATIC_INLINE void LL_TIM_DisableDMAReq_CC1(TIM_TypeDef *TIMx)
{
 80005e0:	b480      	push	{r7}
 80005e2:	b083      	sub	sp, #12
 80005e4:	af00      	add	r7, sp, #0
 80005e6:	6078      	str	r0, [r7, #4]
  CLEAR_BIT(TIMx->DIER, TIM_DIER_CC1DE);
 80005e8:	687b      	ldr	r3, [r7, #4]
 80005ea:	68db      	ldr	r3, [r3, #12]
 80005ec:	f423 7200 	bic.w	r2, r3, #512	@ 0x200
 80005f0:	687b      	ldr	r3, [r7, #4]
 80005f2:	60da      	str	r2, [r3, #12]
}
 80005f4:	bf00      	nop
 80005f6:	370c      	adds	r7, #12
 80005f8:	46bd      	mov	sp, r7
 80005fa:	bc80      	pop	{r7}
 80005fc:	4770      	bx	lr
	...

08000600 <addToPin>:

LedEntry LedList[NUM_PIXELS];
uint8_t numActiveLeds = 0;


void addToPin(uint8_t pin, RGB_t color) {
 8000600:	b480      	push	{r7}
 8000602:	b085      	sub	sp, #20
 8000604:	af00      	add	r7, sp, #0
 8000606:	4603      	mov	r3, r0
 8000608:	6039      	str	r1, [r7, #0]
 800060a:	71fb      	strb	r3, [r7, #7]
    if (pin == 0 || pin > NUM_PIXELS || numActiveLeds >= NUM_PIXELS) {
 800060c:	79fb      	ldrb	r3, [r7, #7]
 800060e:	2b00      	cmp	r3, #0
 8000610:	d034      	beq.n	800067c <addToPin+0x7c>
 8000612:	79fb      	ldrb	r3, [r7, #7]
 8000614:	2b78      	cmp	r3, #120	@ 0x78
 8000616:	d831      	bhi.n	800067c <addToPin+0x7c>
 8000618:	4b1b      	ldr	r3, [pc, #108]	@ (8000688 <addToPin+0x88>)
 800061a:	781b      	ldrb	r3, [r3, #0]
 800061c:	2b77      	cmp	r3, #119	@ 0x77
 800061e:	d82d      	bhi.n	800067c <addToPin+0x7c>
        return;
    }

    // Update if pin already exists
    for (uint8_t i = 0; i < numActiveLeds; i++) {
 8000620:	2300      	movs	r3, #0
 8000622:	73fb      	strb	r3, [r7, #15]
 8000624:	e010      	b.n	8000648 <addToPin+0x48>
        if (LedList[i].pin == pin) {
 8000626:	7bfb      	ldrb	r3, [r7, #15]
 8000628:	4a18      	ldr	r2, [pc, #96]	@ (800068c <addToPin+0x8c>)
 800062a:	f812 3033 	ldrb.w	r3, [r2, r3, lsl #3]
 800062e:	79fa      	ldrb	r2, [r7, #7]
 8000630:	429a      	cmp	r2, r3
 8000632:	d106      	bne.n	8000642 <addToPin+0x42>
            LedList[i].color = color;
 8000634:	7bfb      	ldrb	r3, [r7, #15]
 8000636:	4a15      	ldr	r2, [pc, #84]	@ (800068c <addToPin+0x8c>)
 8000638:	00db      	lsls	r3, r3, #3
 800063a:	4413      	add	r3, r2
 800063c:	683a      	ldr	r2, [r7, #0]
 800063e:	605a      	str	r2, [r3, #4]
            return;
 8000640:	e01d      	b.n	800067e <addToPin+0x7e>
    for (uint8_t i = 0; i < numActiveLeds; i++) {
 8000642:	7bfb      	ldrb	r3, [r7, #15]
 8000644:	3301      	adds	r3, #1
 8000646:	73fb      	strb	r3, [r7, #15]
 8000648:	4b0f      	ldr	r3, [pc, #60]	@ (8000688 <addToPin+0x88>)
 800064a:	781b      	ldrb	r3, [r3, #0]
 800064c:	7bfa      	ldrb	r2, [r7, #15]
 800064e:	429a      	cmp	r2, r3
 8000650:	d3e9      	bcc.n	8000626 <addToPin+0x26>
        }
    }

    // Add new entry
    LedList[numActiveLeds].pin = pin;
 8000652:	4b0d      	ldr	r3, [pc, #52]	@ (8000688 <addToPin+0x88>)
 8000654:	781b      	ldrb	r3, [r3, #0]
 8000656:	4619      	mov	r1, r3
 8000658:	4a0c      	ldr	r2, [pc, #48]	@ (800068c <addToPin+0x8c>)
 800065a:	79fb      	ldrb	r3, [r7, #7]
 800065c:	f802 3031 	strb.w	r3, [r2, r1, lsl #3]
    LedList[numActiveLeds].color = color;
 8000660:	4b09      	ldr	r3, [pc, #36]	@ (8000688 <addToPin+0x88>)
 8000662:	781b      	ldrb	r3, [r3, #0]
 8000664:	4a09      	ldr	r2, [pc, #36]	@ (800068c <addToPin+0x8c>)
 8000666:	00db      	lsls	r3, r3, #3
 8000668:	4413      	add	r3, r2
 800066a:	683a      	ldr	r2, [r7, #0]
 800066c:	605a      	str	r2, [r3, #4]
    numActiveLeds++;
 800066e:	4b06      	ldr	r3, [pc, #24]	@ (8000688 <addToPin+0x88>)
 8000670:	781b      	ldrb	r3, [r3, #0]
 8000672:	3301      	adds	r3, #1
 8000674:	b2da      	uxtb	r2, r3
 8000676:	4b04      	ldr	r3, [pc, #16]	@ (8000688 <addToPin+0x88>)
 8000678:	701a      	strb	r2, [r3, #0]
 800067a:	e000      	b.n	800067e <addToPin+0x7e>
        return;
 800067c:	bf00      	nop
}
 800067e:	3714      	adds	r7, #20
 8000680:	46bd      	mov	sp, r7
 8000682:	bc80      	pop	{r7}
 8000684:	4770      	bx	lr
 8000686:	bf00      	nop
 8000688:	20005304 	.word	0x20005304
 800068c:	20004f44 	.word	0x20004f44

08000690 <removeFromPin>:

void removeFromPin(uint8_t pin) {
 8000690:	b480      	push	{r7}
 8000692:	b085      	sub	sp, #20
 8000694:	af00      	add	r7, sp, #0
 8000696:	4603      	mov	r3, r0
 8000698:	71fb      	strb	r3, [r7, #7]
//    for (uint8_t k = 0; k < numActiveLeds; k++) {
//        printf("  Index %d: Pin %d -> R:%d G:%d B:%d\n", k, LedList[k].pin,
//               LedList[k].color.color.r, LedList[k].color.color.g, LedList[k].color.color.b);
//    }

    for (uint8_t i = 0; i < numActiveLeds; i++) {
 800069a:	2300      	movs	r3, #0
 800069c:	73fb      	strb	r3, [r7, #15]
 800069e:	e034      	b.n	800070a <removeFromPin+0x7a>
        if (LedList[i].pin == pin) {
 80006a0:	7bfb      	ldrb	r3, [r7, #15]
 80006a2:	4a1e      	ldr	r2, [pc, #120]	@ (800071c <removeFromPin+0x8c>)
 80006a4:	f812 3033 	ldrb.w	r3, [r2, r3, lsl #3]
 80006a8:	79fa      	ldrb	r2, [r7, #7]
 80006aa:	429a      	cmp	r2, r3
 80006ac:	d12a      	bne.n	8000704 <removeFromPin+0x74>
//            printf("Found pin %d at index %d, removing...\n", pin, i);
            for (uint8_t j = i; j < numActiveLeds - 1; j++) {
 80006ae:	7bfb      	ldrb	r3, [r7, #15]
 80006b0:	73bb      	strb	r3, [r7, #14]
 80006b2:	e00f      	b.n	80006d4 <removeFromPin+0x44>
//                printf("Shifting index %d -> index %d (Pin %d)\n", j + 1, j, LedList[j + 1].pin);
                LedList[j] = LedList[j + 1];
 80006b4:	7bbb      	ldrb	r3, [r7, #14]
 80006b6:	1c5a      	adds	r2, r3, #1
 80006b8:	7bbb      	ldrb	r3, [r7, #14]
 80006ba:	4818      	ldr	r0, [pc, #96]	@ (800071c <removeFromPin+0x8c>)
 80006bc:	4917      	ldr	r1, [pc, #92]	@ (800071c <removeFromPin+0x8c>)
 80006be:	00db      	lsls	r3, r3, #3
 80006c0:	4403      	add	r3, r0
 80006c2:	00d2      	lsls	r2, r2, #3
 80006c4:	440a      	add	r2, r1
 80006c6:	e892 0003 	ldmia.w	r2, {r0, r1}
 80006ca:	e883 0003 	stmia.w	r3, {r0, r1}
            for (uint8_t j = i; j < numActiveLeds - 1; j++) {
 80006ce:	7bbb      	ldrb	r3, [r7, #14]
 80006d0:	3301      	adds	r3, #1
 80006d2:	73bb      	strb	r3, [r7, #14]
 80006d4:	7bba      	ldrb	r2, [r7, #14]
 80006d6:	4b12      	ldr	r3, [pc, #72]	@ (8000720 <removeFromPin+0x90>)
 80006d8:	781b      	ldrb	r3, [r3, #0]
 80006da:	3b01      	subs	r3, #1
 80006dc:	429a      	cmp	r2, r3
 80006de:	dbe9      	blt.n	80006b4 <removeFromPin+0x24>
            }
            numActiveLeds--;
 80006e0:	4b0f      	ldr	r3, [pc, #60]	@ (8000720 <removeFromPin+0x90>)
 80006e2:	781b      	ldrb	r3, [r3, #0]
 80006e4:	3b01      	subs	r3, #1
 80006e6:	b2da      	uxtb	r2, r3
 80006e8:	4b0d      	ldr	r3, [pc, #52]	@ (8000720 <removeFromPin+0x90>)
 80006ea:	701a      	strb	r2, [r3, #0]
//            printf("LED removed. Updated LED list:\n");
            for (uint8_t k = 0; k < numActiveLeds; k++) {
 80006ec:	2300      	movs	r3, #0
 80006ee:	737b      	strb	r3, [r7, #13]
 80006f0:	e002      	b.n	80006f8 <removeFromPin+0x68>
 80006f2:	7b7b      	ldrb	r3, [r7, #13]
 80006f4:	3301      	adds	r3, #1
 80006f6:	737b      	strb	r3, [r7, #13]
 80006f8:	4b09      	ldr	r3, [pc, #36]	@ (8000720 <removeFromPin+0x90>)
 80006fa:	781b      	ldrb	r3, [r3, #0]
 80006fc:	7b7a      	ldrb	r2, [r7, #13]
 80006fe:	429a      	cmp	r2, r3
 8000700:	d3f7      	bcc.n	80006f2 <removeFromPin+0x62>
//                printf("  Index %d: Pin %d -> R:%d G:%d B:%d\n", k, LedList[k].pin,
//                       LedList[k].color.color.r, LedList[k].color.color.g, LedList[k].color.color.b);
            }
//            printf("Remaining active LEDs: %d\n", numActiveLeds);
            return;
 8000702:	e007      	b.n	8000714 <removeFromPin+0x84>
    for (uint8_t i = 0; i < numActiveLeds; i++) {
 8000704:	7bfb      	ldrb	r3, [r7, #15]
 8000706:	3301      	adds	r3, #1
 8000708:	73fb      	strb	r3, [r7, #15]
 800070a:	4b05      	ldr	r3, [pc, #20]	@ (8000720 <removeFromPin+0x90>)
 800070c:	781b      	ldrb	r3, [r3, #0]
 800070e:	7bfa      	ldrb	r2, [r7, #15]
 8000710:	429a      	cmp	r2, r3
 8000712:	d3c5      	bcc.n	80006a0 <removeFromPin+0x10>
        }
    }
//    printf("Pin %d not found in active list. No changes made.\n", pin);
}
 8000714:	3714      	adds	r7, #20
 8000716:	46bd      	mov	sp, r7
 8000718:	bc80      	pop	{r7}
 800071a:	4770      	bx	lr
 800071c:	20004f44 	.word	0x20004f44
 8000720:	20005304 	.word	0x20005304

08000724 <clearLeds>:




void clearLeds(void) {
 8000724:	b580      	push	{r7, lr}
 8000726:	b082      	sub	sp, #8
 8000728:	af00      	add	r7, sp, #0
	numActiveLeds = 0;
 800072a:	4b15      	ldr	r3, [pc, #84]	@ (8000780 <clearLeds+0x5c>)
 800072c:	2200      	movs	r2, #0
 800072e:	701a      	strb	r2, [r3, #0]
    uint32_t *pBuff = dmaBuffer;
 8000730:	4b14      	ldr	r3, [pc, #80]	@ (8000784 <clearLeds+0x60>)
 8000732:	607b      	str	r3, [r7, #4]
    for (int i = 0; i < NUM_PIXELS * 24; i++) {
 8000734:	2300      	movs	r3, #0
 8000736:	603b      	str	r3, [r7, #0]
 8000738:	e007      	b.n	800074a <clearLeds+0x26>
        *pBuff++ = NEOPIXEL_ZERO;
 800073a:	687b      	ldr	r3, [r7, #4]
 800073c:	1d1a      	adds	r2, r3, #4
 800073e:	607a      	str	r2, [r7, #4]
 8000740:	221d      	movs	r2, #29
 8000742:	601a      	str	r2, [r3, #0]
    for (int i = 0; i < NUM_PIXELS * 24; i++) {
 8000744:	683b      	ldr	r3, [r7, #0]
 8000746:	3301      	adds	r3, #1
 8000748:	603b      	str	r3, [r7, #0]
 800074a:	683b      	ldr	r3, [r7, #0]
 800074c:	f5b3 6f34 	cmp.w	r3, #2880	@ 0xb40
 8000750:	dbf3      	blt.n	800073a <clearLeds+0x16>
    }

    dmaBuffer[DMA_BUFF_SIZE - 1] = 0;
 8000752:	4b0c      	ldr	r3, [pc, #48]	@ (8000784 <clearLeds+0x60>)
 8000754:	f503 5300 	add.w	r3, r3, #8192	@ 0x2000
 8000758:	461a      	mov	r2, r3
 800075a:	2300      	movs	r3, #0
 800075c:	f8c2 3d00 	str.w	r3, [r2, #3328]	@ 0xd00

    PWM_Start_DMA(TIM2, LL_TIM_CHANNEL_CH1, dmaBuffer, DMA_BUFF_SIZE);
 8000760:	f640 3341 	movw	r3, #2881	@ 0xb41
 8000764:	4a07      	ldr	r2, [pc, #28]	@ (8000784 <clearLeds+0x60>)
 8000766:	2101      	movs	r1, #1
 8000768:	f04f 4080 	mov.w	r0, #1073741824	@ 0x40000000
 800076c:	f000 f8b6 	bl	80008dc <PWM_Start_DMA>
    LL_mDelay(10);
 8000770:	200a      	movs	r0, #10
 8000772:	f004 fafd 	bl	8004d70 <LL_mDelay>
}
 8000776:	bf00      	nop
 8000778:	3708      	adds	r7, #8
 800077a:	46bd      	mov	sp, r7
 800077c:	bd80      	pop	{r7, pc}
 800077e:	bf00      	nop
 8000780:	20005304 	.word	0x20005304
 8000784:	20002240 	.word	0x20002240

08000788 <sendPixelData>:

void sendPixelData() {
 8000788:	b580      	push	{r7, lr}
 800078a:	b088      	sub	sp, #32
 800078c:	af00      	add	r7, sp, #0
    LL_mDelay(10);
 800078e:	200a      	movs	r0, #10
 8000790:	f004 faee 	bl	8004d70 <LL_mDelay>
    if (numActiveLeds == 0) {
 8000794:	4b4d      	ldr	r3, [pc, #308]	@ (80008cc <sendPixelData+0x144>)
 8000796:	781b      	ldrb	r3, [r3, #0]
 8000798:	2b00      	cmp	r3, #0
 800079a:	d102      	bne.n	80007a2 <sendPixelData+0x1a>
        clearLeds();
 800079c:	f7ff ffc2 	bl	8000724 <clearLeds>
        return;
 80007a0:	e091      	b.n	80008c6 <sendPixelData+0x13e>
    }

//     Reset pixel buffer
    for (int i = 0; i < NUM_PIXELS; i++) {
 80007a2:	2300      	movs	r3, #0
 80007a4:	61fb      	str	r3, [r7, #28]
 80007a6:	e007      	b.n	80007b8 <sendPixelData+0x30>
        pixel[i].data = 0;
 80007a8:	4a49      	ldr	r2, [pc, #292]	@ (80008d0 <sendPixelData+0x148>)
 80007aa:	69fb      	ldr	r3, [r7, #28]
 80007ac:	2100      	movs	r1, #0
 80007ae:	f842 1023 	str.w	r1, [r2, r3, lsl #2]
    for (int i = 0; i < NUM_PIXELS; i++) {
 80007b2:	69fb      	ldr	r3, [r7, #28]
 80007b4:	3301      	adds	r3, #1
 80007b6:	61fb      	str	r3, [r7, #28]
 80007b8:	69fb      	ldr	r3, [r7, #28]
 80007ba:	2b77      	cmp	r3, #119	@ 0x77
 80007bc:	ddf4      	ble.n	80007a8 <sendPixelData+0x20>
    }

    // Copy assigned LED colors
    // Copy assigned LED colors
    for (uint8_t i = 0; i < numActiveLeds; i++) {
 80007be:	2300      	movs	r3, #0
 80007c0:	76fb      	strb	r3, [r7, #27]
 80007c2:	e041      	b.n	8000848 <sendPixelData+0xc0>
        uint8_t pin = LedList[i].pin;
 80007c4:	7efb      	ldrb	r3, [r7, #27]
 80007c6:	4a43      	ldr	r2, [pc, #268]	@ (80008d4 <sendPixelData+0x14c>)
 80007c8:	f812 3033 	ldrb.w	r3, [r2, r3, lsl #3]
 80007cc:	71fb      	strb	r3, [r7, #7]
        if (pin > 0 && pin <= NUM_PIXELS) {
 80007ce:	79fb      	ldrb	r3, [r7, #7]
 80007d0:	2b00      	cmp	r3, #0
 80007d2:	d036      	beq.n	8000842 <sendPixelData+0xba>
 80007d4:	79fb      	ldrb	r3, [r7, #7]
 80007d6:	2b78      	cmp	r3, #120	@ 0x78
 80007d8:	d833      	bhi.n	8000842 <sendPixelData+0xba>
            pixel[pin - 1] = LedList[i].color;
 80007da:	7efb      	ldrb	r3, [r7, #27]
 80007dc:	79fa      	ldrb	r2, [r7, #7]
 80007de:	3a01      	subs	r2, #1
 80007e0:	493b      	ldr	r1, [pc, #236]	@ (80008d0 <sendPixelData+0x148>)
 80007e2:	483c      	ldr	r0, [pc, #240]	@ (80008d4 <sendPixelData+0x14c>)
 80007e4:	00db      	lsls	r3, r3, #3
 80007e6:	4403      	add	r3, r0
 80007e8:	685b      	ldr	r3, [r3, #4]
 80007ea:	f841 3022 	str.w	r3, [r1, r2, lsl #2]
            pixel[pin - 1].color.r >>= 2;
 80007ee:	79fb      	ldrb	r3, [r7, #7]
 80007f0:	3b01      	subs	r3, #1
 80007f2:	4a37      	ldr	r2, [pc, #220]	@ (80008d0 <sendPixelData+0x148>)
 80007f4:	009b      	lsls	r3, r3, #2
 80007f6:	4413      	add	r3, r2
 80007f8:	785a      	ldrb	r2, [r3, #1]
 80007fa:	79fb      	ldrb	r3, [r7, #7]
 80007fc:	3b01      	subs	r3, #1
 80007fe:	0892      	lsrs	r2, r2, #2
 8000800:	b2d1      	uxtb	r1, r2
 8000802:	4a33      	ldr	r2, [pc, #204]	@ (80008d0 <sendPixelData+0x148>)
 8000804:	009b      	lsls	r3, r3, #2
 8000806:	4413      	add	r3, r2
 8000808:	460a      	mov	r2, r1
 800080a:	705a      	strb	r2, [r3, #1]
            pixel[pin - 1].color.g >>= 2;
 800080c:	79fb      	ldrb	r3, [r7, #7]
 800080e:	3b01      	subs	r3, #1
 8000810:	4a2f      	ldr	r2, [pc, #188]	@ (80008d0 <sendPixelData+0x148>)
 8000812:	009b      	lsls	r3, r3, #2
 8000814:	4413      	add	r3, r2
 8000816:	789a      	ldrb	r2, [r3, #2]
 8000818:	79fb      	ldrb	r3, [r7, #7]
 800081a:	3b01      	subs	r3, #1
 800081c:	0892      	lsrs	r2, r2, #2
 800081e:	b2d1      	uxtb	r1, r2
 8000820:	4a2b      	ldr	r2, [pc, #172]	@ (80008d0 <sendPixelData+0x148>)
 8000822:	009b      	lsls	r3, r3, #2
 8000824:	4413      	add	r3, r2
 8000826:	460a      	mov	r2, r1
 8000828:	709a      	strb	r2, [r3, #2]
            pixel[pin - 1].color.b >>= 2;
 800082a:	79fb      	ldrb	r3, [r7, #7]
 800082c:	3b01      	subs	r3, #1
 800082e:	4a28      	ldr	r2, [pc, #160]	@ (80008d0 <sendPixelData+0x148>)
 8000830:	f812 2023 	ldrb.w	r2, [r2, r3, lsl #2]
 8000834:	79fb      	ldrb	r3, [r7, #7]
 8000836:	3b01      	subs	r3, #1
 8000838:	0892      	lsrs	r2, r2, #2
 800083a:	b2d1      	uxtb	r1, r2
 800083c:	4a24      	ldr	r2, [pc, #144]	@ (80008d0 <sendPixelData+0x148>)
 800083e:	f802 1023 	strb.w	r1, [r2, r3, lsl #2]
    for (uint8_t i = 0; i < numActiveLeds; i++) {
 8000842:	7efb      	ldrb	r3, [r7, #27]
 8000844:	3301      	adds	r3, #1
 8000846:	76fb      	strb	r3, [r7, #27]
 8000848:	4b20      	ldr	r3, [pc, #128]	@ (80008cc <sendPixelData+0x144>)
 800084a:	781b      	ldrb	r3, [r3, #0]
 800084c:	7efa      	ldrb	r2, [r7, #27]
 800084e:	429a      	cmp	r2, r3
 8000850:	d3b8      	bcc.n	80007c4 <sendPixelData+0x3c>
    }



    // Transfer pixel data into DMA buffer
    uint32_t *pBuff = dmaBuffer;
 8000852:	4b21      	ldr	r3, [pc, #132]	@ (80008d8 <sendPixelData+0x150>)
 8000854:	617b      	str	r3, [r7, #20]
    for (int i = 0; i < NUM_PIXELS; i++) {
 8000856:	2300      	movs	r3, #0
 8000858:	613b      	str	r3, [r7, #16]
 800085a:	e01f      	b.n	800089c <sendPixelData+0x114>
//				printf("%d", bit);
//			}
//			printf("\n");
//		}

        for (int j = 23; j >= 0; j--) {
 800085c:	2317      	movs	r3, #23
 800085e:	60fb      	str	r3, [r7, #12]
 8000860:	e016      	b.n	8000890 <sendPixelData+0x108>
        	uint32_t bit = (pixel[i].data >> j) & 0x01 ? NEOPIXEL_ONE : NEOPIXEL_ZERO;
 8000862:	4a1b      	ldr	r2, [pc, #108]	@ (80008d0 <sendPixelData+0x148>)
 8000864:	693b      	ldr	r3, [r7, #16]
 8000866:	f852 2023 	ldr.w	r2, [r2, r3, lsl #2]
 800086a:	68fb      	ldr	r3, [r7, #12]
 800086c:	fa22 f303 	lsr.w	r3, r2, r3
 8000870:	f003 0301 	and.w	r3, r3, #1
 8000874:	2b00      	cmp	r3, #0
 8000876:	d001      	beq.n	800087c <sendPixelData+0xf4>
 8000878:	233a      	movs	r3, #58	@ 0x3a
 800087a:	e000      	b.n	800087e <sendPixelData+0xf6>
 800087c:	231d      	movs	r3, #29
 800087e:	60bb      	str	r3, [r7, #8]

        	*pBuff++ = bit;
 8000880:	697b      	ldr	r3, [r7, #20]
 8000882:	1d1a      	adds	r2, r3, #4
 8000884:	617a      	str	r2, [r7, #20]
 8000886:	68ba      	ldr	r2, [r7, #8]
 8000888:	601a      	str	r2, [r3, #0]
        for (int j = 23; j >= 0; j--) {
 800088a:	68fb      	ldr	r3, [r7, #12]
 800088c:	3b01      	subs	r3, #1
 800088e:	60fb      	str	r3, [r7, #12]
 8000890:	68fb      	ldr	r3, [r7, #12]
 8000892:	2b00      	cmp	r3, #0
 8000894:	dae5      	bge.n	8000862 <sendPixelData+0xda>
    for (int i = 0; i < NUM_PIXELS; i++) {
 8000896:	693b      	ldr	r3, [r7, #16]
 8000898:	3301      	adds	r3, #1
 800089a:	613b      	str	r3, [r7, #16]
 800089c:	693b      	ldr	r3, [r7, #16]
 800089e:	2b77      	cmp	r3, #119	@ 0x77
 80008a0:	dddc      	ble.n	800085c <sendPixelData+0xd4>
//        	dmaBuffer[i * 24 + j] = bit;
        }
    }

    dmaBuffer[DMA_BUFF_SIZE - 1] = 0;
 80008a2:	4b0d      	ldr	r3, [pc, #52]	@ (80008d8 <sendPixelData+0x150>)
 80008a4:	f503 5300 	add.w	r3, r3, #8192	@ 0x2000
 80008a8:	461a      	mov	r2, r3
 80008aa:	2300      	movs	r3, #0
 80008ac:	f8c2 3d00 	str.w	r3, [r2, #3328]	@ 0xd00
  	PWM_Start_DMA(TIM2, LL_TIM_CHANNEL_CH1, dmaBuffer, DMA_BUFF_SIZE);
 80008b0:	f640 3341 	movw	r3, #2881	@ 0xb41
 80008b4:	4a08      	ldr	r2, [pc, #32]	@ (80008d8 <sendPixelData+0x150>)
 80008b6:	2101      	movs	r1, #1
 80008b8:	f04f 4080 	mov.w	r0, #1073741824	@ 0x40000000
 80008bc:	f000 f80e 	bl	80008dc <PWM_Start_DMA>

    LL_mDelay(10);
 80008c0:	200a      	movs	r0, #10
 80008c2:	f004 fa55 	bl	8004d70 <LL_mDelay>
}
 80008c6:	3720      	adds	r7, #32
 80008c8:	46bd      	mov	sp, r7
 80008ca:	bd80      	pop	{r7, pc}
 80008cc:	20005304 	.word	0x20005304
 80008d0:	20002060 	.word	0x20002060
 80008d4:	20004f44 	.word	0x20004f44
 80008d8:	20002240 	.word	0x20002240

080008dc <PWM_Start_DMA>:




void PWM_Start_DMA(TIM_TypeDef *TIMx, uint32_t Channel, uint32_t *buffer, uint32_t size)
{
 80008dc:	b580      	push	{r7, lr}
 80008de:	b086      	sub	sp, #24
 80008e0:	af02      	add	r7, sp, #8
 80008e2:	60f8      	str	r0, [r7, #12]
 80008e4:	60b9      	str	r1, [r7, #8]
 80008e6:	607a      	str	r2, [r7, #4]
 80008e8:	603b      	str	r3, [r7, #0]
    // 1. Configure DMA source and destination
    LL_DMA_ConfigAddresses(DMA1, LL_DMA_CHANNEL_5,
 80008ea:	687a      	ldr	r2, [r7, #4]
                           (uint32_t)buffer,                      // Memory Address (source)
                           (uint32_t)&TIMx->CCR1,                 // Peripheral Address (destination)
 80008ec:	68fb      	ldr	r3, [r7, #12]
 80008ee:	3334      	adds	r3, #52	@ 0x34
    LL_DMA_ConfigAddresses(DMA1, LL_DMA_CHANNEL_5,
 80008f0:	4619      	mov	r1, r3
 80008f2:	2310      	movs	r3, #16
 80008f4:	9300      	str	r3, [sp, #0]
 80008f6:	460b      	mov	r3, r1
 80008f8:	2105      	movs	r1, #5
 80008fa:	480d      	ldr	r0, [pc, #52]	@ (8000930 <PWM_Start_DMA+0x54>)
 80008fc:	f7ff fde8 	bl	80004d0 <LL_DMA_ConfigAddresses>
                           LL_DMA_DIRECTION_MEMORY_TO_PERIPH);    // Memory-to-Peripheral

    // 2. Set number of data items
    LL_DMA_SetDataLength(DMA1, LL_DMA_CHANNEL_5, size);
 8000900:	683a      	ldr	r2, [r7, #0]
 8000902:	2105      	movs	r1, #5
 8000904:	480a      	ldr	r0, [pc, #40]	@ (8000930 <PWM_Start_DMA+0x54>)
 8000906:	f7ff fdc1 	bl	800048c <LL_DMA_SetDataLength>

    // 4. Enable DMA Stream
    LL_DMA_EnableChannel(DMA1, LL_DMA_CHANNEL_5);
 800090a:	2105      	movs	r1, #5
 800090c:	4808      	ldr	r0, [pc, #32]	@ (8000930 <PWM_Start_DMA+0x54>)
 800090e:	f7ff fd81 	bl	8000414 <LL_DMA_EnableChannel>

    // 5. Enable TIM2 DMA request for CC1
    LL_TIM_EnableDMAReq_CC1(TIMx);
 8000912:	68f8      	ldr	r0, [r7, #12]
 8000914:	f7ff fe55 	bl	80005c2 <LL_TIM_EnableDMAReq_CC1>

    // 6. Enable TIM2 Channel 1 (PWM mode must already be configured)
    LL_TIM_CC_EnableChannel(TIMx, Channel);
 8000918:	68b9      	ldr	r1, [r7, #8]
 800091a:	68f8      	ldr	r0, [r7, #12]
 800091c:	f7ff fe30 	bl	8000580 <LL_TIM_CC_EnableChannel>

    // 7. Start Timer
    LL_TIM_EnableCounter(TIMx);
 8000920:	68f8      	ldr	r0, [r7, #12]
 8000922:	f7ff fe0f 	bl	8000544 <LL_TIM_EnableCounter>
}
 8000926:	bf00      	nop
 8000928:	3710      	adds	r7, #16
 800092a:	46bd      	mov	sp, r7
 800092c:	bd80      	pop	{r7, pc}
 800092e:	bf00      	nop
 8000930:	40020000 	.word	0x40020000

08000934 <LL_TIM_PWM_PulseFinishedCallback>:

void LL_TIM_PWM_PulseFinishedCallback(TIM_TypeDef *TIMx)
{
 8000934:	b580      	push	{r7, lr}
 8000936:	b082      	sub	sp, #8
 8000938:	af00      	add	r7, sp, #0
 800093a:	6078      	str	r0, [r7, #4]
	LL_TIM_DisableDMAReq_CC1(TIMx);
 800093c:	6878      	ldr	r0, [r7, #4]
 800093e:	f7ff fe4f 	bl	80005e0 <LL_TIM_DisableDMAReq_CC1>
	LL_DMA_DisableChannel(DMA1, LL_DMA_CHANNEL_5);
 8000942:	2105      	movs	r1, #5
 8000944:	4806      	ldr	r0, [pc, #24]	@ (8000960 <LL_TIM_PWM_PulseFinishedCallback+0x2c>)
 8000946:	f7ff fd83 	bl	8000450 <LL_DMA_DisableChannel>

	LL_TIM_CC_DisableChannel(TIMx, LL_TIM_CHANNEL_CH1);
 800094a:	2101      	movs	r1, #1
 800094c:	6878      	ldr	r0, [r7, #4]
 800094e:	f7ff fe27 	bl	80005a0 <LL_TIM_CC_DisableChannel>
	LL_TIM_DisableCounter(TIMx);
 8000952:	6878      	ldr	r0, [r7, #4]
 8000954:	f7ff fe05 	bl	8000562 <LL_TIM_DisableCounter>
}
 8000958:	bf00      	nop
 800095a:	3708      	adds	r7, #8
 800095c:	46bd      	mov	sp, r7
 800095e:	bd80      	pop	{r7, pc}
 8000960:	40020000 	.word	0x40020000

08000964 <__NVIC_SetPriorityGrouping>:
           In case of a conflict between priority grouping and available
           priority bits (__NVIC_PRIO_BITS), the smallest possible priority group is set.
  \param [in]      PriorityGroup  Priority grouping field.
 */
__STATIC_INLINE void __NVIC_SetPriorityGrouping(uint32_t PriorityGroup)
{
 8000964:	b480      	push	{r7}
 8000966:	b085      	sub	sp, #20
 8000968:	af00      	add	r7, sp, #0
 800096a:	6078      	str	r0, [r7, #4]
  uint32_t reg_value;
  uint32_t PriorityGroupTmp = (PriorityGroup & (uint32_t)0x07UL);             /* only values 0..7 are used          */
 800096c:	687b      	ldr	r3, [r7, #4]
 800096e:	f003 0307 	and.w	r3, r3, #7
 8000972:	60fb      	str	r3, [r7, #12]

  reg_value  =  SCB->AIRCR;                                                   /* read old register configuration    */
 8000974:	4b0c      	ldr	r3, [pc, #48]	@ (80009a8 <__NVIC_SetPriorityGrouping+0x44>)
 8000976:	68db      	ldr	r3, [r3, #12]
 8000978:	60bb      	str	r3, [r7, #8]
  reg_value &= ~((uint32_t)(SCB_AIRCR_VECTKEY_Msk | SCB_AIRCR_PRIGROUP_Msk)); /* clear bits to change               */
 800097a:	68ba      	ldr	r2, [r7, #8]
 800097c:	f64f 03ff 	movw	r3, #63743	@ 0xf8ff
 8000980:	4013      	ands	r3, r2
 8000982:	60bb      	str	r3, [r7, #8]
  reg_value  =  (reg_value                                   |
                ((uint32_t)0x5FAUL << SCB_AIRCR_VECTKEY_Pos) |
                (PriorityGroupTmp << SCB_AIRCR_PRIGROUP_Pos) );               /* Insert write key and priority group */
 8000984:	68fb      	ldr	r3, [r7, #12]
 8000986:	021a      	lsls	r2, r3, #8
                ((uint32_t)0x5FAUL << SCB_AIRCR_VECTKEY_Pos) |
 8000988:	68bb      	ldr	r3, [r7, #8]
 800098a:	4313      	orrs	r3, r2
  reg_value  =  (reg_value                                   |
 800098c:	f043 63bf 	orr.w	r3, r3, #100139008	@ 0x5f80000
 8000990:	f443 3300 	orr.w	r3, r3, #131072	@ 0x20000
 8000994:	60bb      	str	r3, [r7, #8]
  SCB->AIRCR =  reg_value;
 8000996:	4a04      	ldr	r2, [pc, #16]	@ (80009a8 <__NVIC_SetPriorityGrouping+0x44>)
 8000998:	68bb      	ldr	r3, [r7, #8]
 800099a:	60d3      	str	r3, [r2, #12]
}
 800099c:	bf00      	nop
 800099e:	3714      	adds	r7, #20
 80009a0:	46bd      	mov	sp, r7
 80009a2:	bc80      	pop	{r7}
 80009a4:	4770      	bx	lr
 80009a6:	bf00      	nop
 80009a8:	e000ed00 	.word	0xe000ed00

080009ac <__NVIC_GetPriorityGrouping>:
  \brief   Get Priority Grouping
  \details Reads the priority grouping field from the NVIC Interrupt Controller.
  \return                Priority grouping field (SCB->AIRCR [10:8] PRIGROUP field).
 */
__STATIC_INLINE uint32_t __NVIC_GetPriorityGrouping(void)
{
 80009ac:	b480      	push	{r7}
 80009ae:	af00      	add	r7, sp, #0
  return ((uint32_t)((SCB->AIRCR & SCB_AIRCR_PRIGROUP_Msk) >> SCB_AIRCR_PRIGROUP_Pos));
 80009b0:	4b04      	ldr	r3, [pc, #16]	@ (80009c4 <__NVIC_GetPriorityGrouping+0x18>)
 80009b2:	68db      	ldr	r3, [r3, #12]
 80009b4:	0a1b      	lsrs	r3, r3, #8
 80009b6:	f003 0307 	and.w	r3, r3, #7
}
 80009ba:	4618      	mov	r0, r3
 80009bc:	46bd      	mov	sp, r7
 80009be:	bc80      	pop	{r7}
 80009c0:	4770      	bx	lr
 80009c2:	bf00      	nop
 80009c4:	e000ed00 	.word	0xe000ed00

080009c8 <__NVIC_EnableIRQ>:
  \details Enables a device specific interrupt in the NVIC interrupt controller.
  \param [in]      IRQn  Device specific interrupt number.
  \note    IRQn must not be negative.
 */
__STATIC_INLINE void __NVIC_EnableIRQ(IRQn_Type IRQn)
{
 80009c8:	b480      	push	{r7}
 80009ca:	b083      	sub	sp, #12
 80009cc:	af00      	add	r7, sp, #0
 80009ce:	4603      	mov	r3, r0
 80009d0:	71fb      	strb	r3, [r7, #7]
  if ((int32_t)(IRQn) >= 0)
 80009d2:	f997 3007 	ldrsb.w	r3, [r7, #7]
 80009d6:	2b00      	cmp	r3, #0
 80009d8:	db0b      	blt.n	80009f2 <__NVIC_EnableIRQ+0x2a>
  {
    NVIC->ISER[(((uint32_t)IRQn) >> 5UL)] = (uint32_t)(1UL << (((uint32_t)IRQn) & 0x1FUL));
 80009da:	79fb      	ldrb	r3, [r7, #7]
 80009dc:	f003 021f 	and.w	r2, r3, #31
 80009e0:	4906      	ldr	r1, [pc, #24]	@ (80009fc <__NVIC_EnableIRQ+0x34>)
 80009e2:	f997 3007 	ldrsb.w	r3, [r7, #7]
 80009e6:	095b      	lsrs	r3, r3, #5
 80009e8:	2001      	movs	r0, #1
 80009ea:	fa00 f202 	lsl.w	r2, r0, r2
 80009ee:	f841 2023 	str.w	r2, [r1, r3, lsl #2]
  }
}
 80009f2:	bf00      	nop
 80009f4:	370c      	adds	r7, #12
 80009f6:	46bd      	mov	sp, r7
 80009f8:	bc80      	pop	{r7}
 80009fa:	4770      	bx	lr
 80009fc:	e000e100 	.word	0xe000e100

08000a00 <__NVIC_SetPriority>:
  \param [in]      IRQn  Interrupt number.
  \param [in]  priority  Priority to set.
  \note    The priority cannot be set for every processor exception.
 */
__STATIC_INLINE void __NVIC_SetPriority(IRQn_Type IRQn, uint32_t priority)
{
 8000a00:	b480      	push	{r7}
 8000a02:	b083      	sub	sp, #12
 8000a04:	af00      	add	r7, sp, #0
 8000a06:	4603      	mov	r3, r0
 8000a08:	6039      	str	r1, [r7, #0]
 8000a0a:	71fb      	strb	r3, [r7, #7]
  if ((int32_t)(IRQn) >= 0)
 8000a0c:	f997 3007 	ldrsb.w	r3, [r7, #7]
 8000a10:	2b00      	cmp	r3, #0
 8000a12:	db0a      	blt.n	8000a2a <__NVIC_SetPriority+0x2a>
  {
    NVIC->IP[((uint32_t)IRQn)]               = (uint8_t)((priority << (8U - __NVIC_PRIO_BITS)) & (uint32_t)0xFFUL);
 8000a14:	683b      	ldr	r3, [r7, #0]
 8000a16:	b2da      	uxtb	r2, r3
 8000a18:	490c      	ldr	r1, [pc, #48]	@ (8000a4c <__NVIC_SetPriority+0x4c>)
 8000a1a:	f997 3007 	ldrsb.w	r3, [r7, #7]
 8000a1e:	0112      	lsls	r2, r2, #4
 8000a20:	b2d2      	uxtb	r2, r2
 8000a22:	440b      	add	r3, r1
 8000a24:	f883 2300 	strb.w	r2, [r3, #768]	@ 0x300
  }
  else
  {
    SCB->SHP[(((uint32_t)IRQn) & 0xFUL)-4UL] = (uint8_t)((priority << (8U - __NVIC_PRIO_BITS)) & (uint32_t)0xFFUL);
  }
}
 8000a28:	e00a      	b.n	8000a40 <__NVIC_SetPriority+0x40>
    SCB->SHP[(((uint32_t)IRQn) & 0xFUL)-4UL] = (uint8_t)((priority << (8U - __NVIC_PRIO_BITS)) & (uint32_t)0xFFUL);
 8000a2a:	683b      	ldr	r3, [r7, #0]
 8000a2c:	b2da      	uxtb	r2, r3
 8000a2e:	4908      	ldr	r1, [pc, #32]	@ (8000a50 <__NVIC_SetPriority+0x50>)
 8000a30:	79fb      	ldrb	r3, [r7, #7]
 8000a32:	f003 030f 	and.w	r3, r3, #15
 8000a36:	3b04      	subs	r3, #4
 8000a38:	0112      	lsls	r2, r2, #4
 8000a3a:	b2d2      	uxtb	r2, r2
 8000a3c:	440b      	add	r3, r1
 8000a3e:	761a      	strb	r2, [r3, #24]
}
 8000a40:	bf00      	nop
 8000a42:	370c      	adds	r7, #12
 8000a44:	46bd      	mov	sp, r7
 8000a46:	bc80      	pop	{r7}
 8000a48:	4770      	bx	lr
 8000a4a:	bf00      	nop
 8000a4c:	e000e100 	.word	0xe000e100
 8000a50:	e000ed00 	.word	0xe000ed00

08000a54 <NVIC_EncodePriority>:
  \param [in]   PreemptPriority  Preemptive priority value (starting from 0).
  \param [in]       SubPriority  Subpriority value (starting from 0).
  \return                        Encoded priority. Value can be used in the function \ref NVIC_SetPriority().
 */
__STATIC_INLINE uint32_t NVIC_EncodePriority (uint32_t PriorityGroup, uint32_t PreemptPriority, uint32_t SubPriority)
{
 8000a54:	b480      	push	{r7}
 8000a56:	b089      	sub	sp, #36	@ 0x24
 8000a58:	af00      	add	r7, sp, #0
 8000a5a:	60f8      	str	r0, [r7, #12]
 8000a5c:	60b9      	str	r1, [r7, #8]
 8000a5e:	607a      	str	r2, [r7, #4]
  uint32_t PriorityGroupTmp = (PriorityGroup & (uint32_t)0x07UL);   /* only values 0..7 are used          */
 8000a60:	68fb      	ldr	r3, [r7, #12]
 8000a62:	f003 0307 	and.w	r3, r3, #7
 8000a66:	61fb      	str	r3, [r7, #28]
  uint32_t PreemptPriorityBits;
  uint32_t SubPriorityBits;

  PreemptPriorityBits = ((7UL - PriorityGroupTmp) > (uint32_t)(__NVIC_PRIO_BITS)) ? (uint32_t)(__NVIC_PRIO_BITS) : (uint32_t)(7UL - PriorityGroupTmp);
 8000a68:	69fb      	ldr	r3, [r7, #28]
 8000a6a:	f1c3 0307 	rsb	r3, r3, #7
 8000a6e:	2b04      	cmp	r3, #4
 8000a70:	bf28      	it	cs
 8000a72:	2304      	movcs	r3, #4
 8000a74:	61bb      	str	r3, [r7, #24]
  SubPriorityBits     = ((PriorityGroupTmp + (uint32_t)(__NVIC_PRIO_BITS)) < (uint32_t)7UL) ? (uint32_t)0UL : (uint32_t)((PriorityGroupTmp - 7UL) + (uint32_t)(__NVIC_PRIO_BITS));
 8000a76:	69fb      	ldr	r3, [r7, #28]
 8000a78:	3304      	adds	r3, #4
 8000a7a:	2b06      	cmp	r3, #6
 8000a7c:	d902      	bls.n	8000a84 <NVIC_EncodePriority+0x30>
 8000a7e:	69fb      	ldr	r3, [r7, #28]
 8000a80:	3b03      	subs	r3, #3
 8000a82:	e000      	b.n	8000a86 <NVIC_EncodePriority+0x32>
 8000a84:	2300      	movs	r3, #0
 8000a86:	617b      	str	r3, [r7, #20]

  return (
           ((PreemptPriority & (uint32_t)((1UL << (PreemptPriorityBits)) - 1UL)) << SubPriorityBits) |
 8000a88:	f04f 32ff 	mov.w	r2, #4294967295
 8000a8c:	69bb      	ldr	r3, [r7, #24]
 8000a8e:	fa02 f303 	lsl.w	r3, r2, r3
 8000a92:	43da      	mvns	r2, r3
 8000a94:	68bb      	ldr	r3, [r7, #8]
 8000a96:	401a      	ands	r2, r3
 8000a98:	697b      	ldr	r3, [r7, #20]
 8000a9a:	409a      	lsls	r2, r3
           ((SubPriority     & (uint32_t)((1UL << (SubPriorityBits    )) - 1UL)))
 8000a9c:	f04f 31ff 	mov.w	r1, #4294967295
 8000aa0:	697b      	ldr	r3, [r7, #20]
 8000aa2:	fa01 f303 	lsl.w	r3, r1, r3
 8000aa6:	43d9      	mvns	r1, r3
 8000aa8:	687b      	ldr	r3, [r7, #4]
 8000aaa:	400b      	ands	r3, r1
           ((PreemptPriority & (uint32_t)((1UL << (PreemptPriorityBits)) - 1UL)) << SubPriorityBits) |
 8000aac:	4313      	orrs	r3, r2
         );
}
 8000aae:	4618      	mov	r0, r3
 8000ab0:	3724      	adds	r7, #36	@ 0x24
 8000ab2:	46bd      	mov	sp, r7
 8000ab4:	bc80      	pop	{r7}
 8000ab6:	4770      	bx	lr

08000ab8 <LL_ADC_REG_SetSequencerRanks>:
  *         
  *         (1) On STM32F1, parameter available only on ADC instance: ADC1.
  * @retval None
  */
__STATIC_INLINE void LL_ADC_REG_SetSequencerRanks(ADC_TypeDef *ADCx, uint32_t Rank, uint32_t Channel)
{
 8000ab8:	b480      	push	{r7}
 8000aba:	b089      	sub	sp, #36	@ 0x24
 8000abc:	af00      	add	r7, sp, #0
 8000abe:	60f8      	str	r0, [r7, #12]
 8000ac0:	60b9      	str	r1, [r7, #8]
 8000ac2:	607a      	str	r2, [r7, #4]
  /* Set bits with content of parameter "Channel" with bits position          */
  /* in register and register position depending on parameter "Rank".         */
  /* Parameters "Rank" and "Channel" are used with masks because containing   */
  /* other bits reserved for other purpose.                                   */
  __IO uint32_t *preg = __ADC_PTR_REG_OFFSET(ADCx->SQR1, __ADC_MASK_SHIFT(Rank, ADC_REG_SQRX_REGOFFSET_MASK));
 8000ac4:	68fb      	ldr	r3, [r7, #12]
 8000ac6:	332c      	adds	r3, #44	@ 0x2c
 8000ac8:	4619      	mov	r1, r3
 8000aca:	68bb      	ldr	r3, [r7, #8]
 8000acc:	f403 7340 	and.w	r3, r3, #768	@ 0x300
 8000ad0:	f44f 7240 	mov.w	r2, #768	@ 0x300
 8000ad4:	61ba      	str	r2, [r7, #24]
  uint32_t result;

#if ((defined (__ARM_ARCH_7M__      ) && (__ARM_ARCH_7M__      == 1)) || \
     (defined (__ARM_ARCH_7EM__     ) && (__ARM_ARCH_7EM__     == 1)) || \
     (defined (__ARM_ARCH_8M_MAIN__ ) && (__ARM_ARCH_8M_MAIN__ == 1))    )
   __ASM volatile ("rbit %0, %1" : "=r" (result) : "r" (value) );
 8000ad6:	69ba      	ldr	r2, [r7, #24]
 8000ad8:	fa92 f2a2 	rbit	r2, r2
 8000adc:	617a      	str	r2, [r7, #20]
    result |= value & 1U;
    s--;
  }
  result <<= s;                        /* shift when v's highest bits are zero */
#endif
  return result;
 8000ade:	697a      	ldr	r2, [r7, #20]
 8000ae0:	fab2 f282 	clz	r2, r2
 8000ae4:	b2d2      	uxtb	r2, r2
 8000ae6:	40d3      	lsrs	r3, r2
 8000ae8:	009b      	lsls	r3, r3, #2
 8000aea:	440b      	add	r3, r1
 8000aec:	61fb      	str	r3, [r7, #28]
  
  MODIFY_REG(*preg,
 8000aee:	69fb      	ldr	r3, [r7, #28]
 8000af0:	681a      	ldr	r2, [r3, #0]
 8000af2:	68bb      	ldr	r3, [r7, #8]
 8000af4:	f003 031f 	and.w	r3, r3, #31
 8000af8:	211f      	movs	r1, #31
 8000afa:	fa01 f303 	lsl.w	r3, r1, r3
 8000afe:	43db      	mvns	r3, r3
 8000b00:	401a      	ands	r2, r3
 8000b02:	687b      	ldr	r3, [r7, #4]
 8000b04:	f003 011f 	and.w	r1, r3, #31
 8000b08:	68bb      	ldr	r3, [r7, #8]
 8000b0a:	f003 031f 	and.w	r3, r3, #31
 8000b0e:	fa01 f303 	lsl.w	r3, r1, r3
 8000b12:	431a      	orrs	r2, r3
 8000b14:	69fb      	ldr	r3, [r7, #28]
 8000b16:	601a      	str	r2, [r3, #0]
             ADC_CHANNEL_ID_NUMBER_MASK << (Rank & ADC_REG_RANK_ID_SQRX_MASK),
             (Channel & ADC_CHANNEL_ID_NUMBER_MASK) << (Rank & ADC_REG_RANK_ID_SQRX_MASK));
}
 8000b18:	bf00      	nop
 8000b1a:	3724      	adds	r7, #36	@ 0x24
 8000b1c:	46bd      	mov	sp, r7
 8000b1e:	bc80      	pop	{r7}
 8000b20:	4770      	bx	lr

08000b22 <LL_ADC_SetChannelSamplingTime>:
  *         @arg @ref LL_ADC_SAMPLINGTIME_71CYCLES_5
  *         @arg @ref LL_ADC_SAMPLINGTIME_239CYCLES_5
  * @retval None
  */
__STATIC_INLINE void LL_ADC_SetChannelSamplingTime(ADC_TypeDef *ADCx, uint32_t Channel, uint32_t SamplingTime)
{
 8000b22:	b480      	push	{r7}
 8000b24:	b08d      	sub	sp, #52	@ 0x34
 8000b26:	af00      	add	r7, sp, #0
 8000b28:	60f8      	str	r0, [r7, #12]
 8000b2a:	60b9      	str	r1, [r7, #8]
 8000b2c:	607a      	str	r2, [r7, #4]
  /* Set bits with content of parameter "SamplingTime" with bits position     */
  /* in register and register position depending on parameter "Channel".      */
  /* Parameter "Channel" is used with masks because containing                */
  /* other bits reserved for other purpose.                                   */
  __IO uint32_t *preg = __ADC_PTR_REG_OFFSET(ADCx->SMPR1, __ADC_MASK_SHIFT(Channel, ADC_CHANNEL_SMPRX_REGOFFSET_MASK));
 8000b2e:	68fb      	ldr	r3, [r7, #12]
 8000b30:	330c      	adds	r3, #12
 8000b32:	4619      	mov	r1, r3
 8000b34:	68bb      	ldr	r3, [r7, #8]
 8000b36:	f003 7300 	and.w	r3, r3, #33554432	@ 0x2000000
 8000b3a:	f04f 7200 	mov.w	r2, #33554432	@ 0x2000000
 8000b3e:	61ba      	str	r2, [r7, #24]
   __ASM volatile ("rbit %0, %1" : "=r" (result) : "r" (value) );
 8000b40:	69ba      	ldr	r2, [r7, #24]
 8000b42:	fa92 f2a2 	rbit	r2, r2
 8000b46:	617a      	str	r2, [r7, #20]
  return result;
 8000b48:	697a      	ldr	r2, [r7, #20]
 8000b4a:	fab2 f282 	clz	r2, r2
 8000b4e:	b2d2      	uxtb	r2, r2
 8000b50:	40d3      	lsrs	r3, r2
 8000b52:	009b      	lsls	r3, r3, #2
 8000b54:	440b      	add	r3, r1
 8000b56:	62fb      	str	r3, [r7, #44]	@ 0x2c
  
  MODIFY_REG(*preg,
 8000b58:	6afb      	ldr	r3, [r7, #44]	@ 0x2c
 8000b5a:	681a      	ldr	r2, [r3, #0]
 8000b5c:	68bb      	ldr	r3, [r7, #8]
 8000b5e:	f003 73f8 	and.w	r3, r3, #32505856	@ 0x1f00000
 8000b62:	f04f 71f8 	mov.w	r1, #32505856	@ 0x1f00000
 8000b66:	6239      	str	r1, [r7, #32]
   __ASM volatile ("rbit %0, %1" : "=r" (result) : "r" (value) );
 8000b68:	6a39      	ldr	r1, [r7, #32]
 8000b6a:	fa91 f1a1 	rbit	r1, r1
 8000b6e:	61f9      	str	r1, [r7, #28]
  return result;
 8000b70:	69f9      	ldr	r1, [r7, #28]
 8000b72:	fab1 f181 	clz	r1, r1
 8000b76:	b2c9      	uxtb	r1, r1
 8000b78:	40cb      	lsrs	r3, r1
 8000b7a:	2107      	movs	r1, #7
 8000b7c:	fa01 f303 	lsl.w	r3, r1, r3
 8000b80:	43db      	mvns	r3, r3
 8000b82:	401a      	ands	r2, r3
 8000b84:	68bb      	ldr	r3, [r7, #8]
 8000b86:	f003 73f8 	and.w	r3, r3, #32505856	@ 0x1f00000
 8000b8a:	f04f 71f8 	mov.w	r1, #32505856	@ 0x1f00000
 8000b8e:	62b9      	str	r1, [r7, #40]	@ 0x28
   __ASM volatile ("rbit %0, %1" : "=r" (result) : "r" (value) );
 8000b90:	6ab9      	ldr	r1, [r7, #40]	@ 0x28
 8000b92:	fa91 f1a1 	rbit	r1, r1
 8000b96:	6279      	str	r1, [r7, #36]	@ 0x24
  return result;
 8000b98:	6a79      	ldr	r1, [r7, #36]	@ 0x24
 8000b9a:	fab1 f181 	clz	r1, r1
 8000b9e:	b2c9      	uxtb	r1, r1
 8000ba0:	40cb      	lsrs	r3, r1
 8000ba2:	6879      	ldr	r1, [r7, #4]
 8000ba4:	fa01 f303 	lsl.w	r3, r1, r3
 8000ba8:	431a      	orrs	r2, r3
 8000baa:	6afb      	ldr	r3, [r7, #44]	@ 0x2c
 8000bac:	601a      	str	r2, [r3, #0]
             ADC_SMPR2_SMP0 << __ADC_MASK_SHIFT(Channel, ADC_CHANNEL_SMPx_BITOFFSET_MASK),
             SamplingTime   << __ADC_MASK_SHIFT(Channel, ADC_CHANNEL_SMPx_BITOFFSET_MASK));
}
 8000bae:	bf00      	nop
 8000bb0:	3734      	adds	r7, #52	@ 0x34
 8000bb2:	46bd      	mov	sp, r7
 8000bb4:	bc80      	pop	{r7}
 8000bb6:	4770      	bx	lr

08000bb8 <LL_DMA_SetDataTransferDirection>:
{
 8000bb8:	b480      	push	{r7}
 8000bba:	b085      	sub	sp, #20
 8000bbc:	af00      	add	r7, sp, #0
 8000bbe:	60f8      	str	r0, [r7, #12]
 8000bc0:	60b9      	str	r1, [r7, #8]
 8000bc2:	607a      	str	r2, [r7, #4]
  MODIFY_REG(((DMA_Channel_TypeDef *)((uint32_t)((uint32_t)DMAx + CHANNEL_OFFSET_TAB[Channel - 1U])))->CCR,
 8000bc4:	68bb      	ldr	r3, [r7, #8]
 8000bc6:	3b01      	subs	r3, #1
 8000bc8:	4a0c      	ldr	r2, [pc, #48]	@ (8000bfc <LL_DMA_SetDataTransferDirection+0x44>)
 8000bca:	5cd3      	ldrb	r3, [r2, r3]
 8000bcc:	461a      	mov	r2, r3
 8000bce:	68fb      	ldr	r3, [r7, #12]
 8000bd0:	4413      	add	r3, r2
 8000bd2:	681b      	ldr	r3, [r3, #0]
 8000bd4:	f423 4380 	bic.w	r3, r3, #16384	@ 0x4000
 8000bd8:	f023 0310 	bic.w	r3, r3, #16
 8000bdc:	68ba      	ldr	r2, [r7, #8]
 8000bde:	3a01      	subs	r2, #1
 8000be0:	4906      	ldr	r1, [pc, #24]	@ (8000bfc <LL_DMA_SetDataTransferDirection+0x44>)
 8000be2:	5c8a      	ldrb	r2, [r1, r2]
 8000be4:	4611      	mov	r1, r2
 8000be6:	68fa      	ldr	r2, [r7, #12]
 8000be8:	440a      	add	r2, r1
 8000bea:	4611      	mov	r1, r2
 8000bec:	687a      	ldr	r2, [r7, #4]
 8000bee:	4313      	orrs	r3, r2
 8000bf0:	600b      	str	r3, [r1, #0]
}
 8000bf2:	bf00      	nop
 8000bf4:	3714      	adds	r7, #20
 8000bf6:	46bd      	mov	sp, r7
 8000bf8:	bc80      	pop	{r7}
 8000bfa:	4770      	bx	lr
 8000bfc:	08007830 	.word	0x08007830

08000c00 <LL_DMA_SetMode>:
{
 8000c00:	b480      	push	{r7}
 8000c02:	b085      	sub	sp, #20
 8000c04:	af00      	add	r7, sp, #0
 8000c06:	60f8      	str	r0, [r7, #12]
 8000c08:	60b9      	str	r1, [r7, #8]
 8000c0a:	607a      	str	r2, [r7, #4]
  MODIFY_REG(((DMA_Channel_TypeDef *)((uint32_t)((uint32_t)DMAx + CHANNEL_OFFSET_TAB[Channel - 1U])))->CCR, DMA_CCR_CIRC,
 8000c0c:	68bb      	ldr	r3, [r7, #8]
 8000c0e:	3b01      	subs	r3, #1
 8000c10:	4a0b      	ldr	r2, [pc, #44]	@ (8000c40 <LL_DMA_SetMode+0x40>)
 8000c12:	5cd3      	ldrb	r3, [r2, r3]
 8000c14:	461a      	mov	r2, r3
 8000c16:	68fb      	ldr	r3, [r7, #12]
 8000c18:	4413      	add	r3, r2
 8000c1a:	681b      	ldr	r3, [r3, #0]
 8000c1c:	f023 0220 	bic.w	r2, r3, #32
 8000c20:	68bb      	ldr	r3, [r7, #8]
 8000c22:	3b01      	subs	r3, #1
 8000c24:	4906      	ldr	r1, [pc, #24]	@ (8000c40 <LL_DMA_SetMode+0x40>)
 8000c26:	5ccb      	ldrb	r3, [r1, r3]
 8000c28:	4619      	mov	r1, r3
 8000c2a:	68fb      	ldr	r3, [r7, #12]
 8000c2c:	440b      	add	r3, r1
 8000c2e:	4619      	mov	r1, r3
 8000c30:	687b      	ldr	r3, [r7, #4]
 8000c32:	4313      	orrs	r3, r2
 8000c34:	600b      	str	r3, [r1, #0]
}
 8000c36:	bf00      	nop
 8000c38:	3714      	adds	r7, #20
 8000c3a:	46bd      	mov	sp, r7
 8000c3c:	bc80      	pop	{r7}
 8000c3e:	4770      	bx	lr
 8000c40:	08007830 	.word	0x08007830

08000c44 <LL_DMA_SetPeriphIncMode>:
{
 8000c44:	b480      	push	{r7}
 8000c46:	b085      	sub	sp, #20
 8000c48:	af00      	add	r7, sp, #0
 8000c4a:	60f8      	str	r0, [r7, #12]
 8000c4c:	60b9      	str	r1, [r7, #8]
 8000c4e:	607a      	str	r2, [r7, #4]
  MODIFY_REG(((DMA_Channel_TypeDef *)((uint32_t)((uint32_t)DMAx + CHANNEL_OFFSET_TAB[Channel - 1U])))->CCR, DMA_CCR_PINC,
 8000c50:	68bb      	ldr	r3, [r7, #8]
 8000c52:	3b01      	subs	r3, #1
 8000c54:	4a0b      	ldr	r2, [pc, #44]	@ (8000c84 <LL_DMA_SetPeriphIncMode+0x40>)
 8000c56:	5cd3      	ldrb	r3, [r2, r3]
 8000c58:	461a      	mov	r2, r3
 8000c5a:	68fb      	ldr	r3, [r7, #12]
 8000c5c:	4413      	add	r3, r2
 8000c5e:	681b      	ldr	r3, [r3, #0]
 8000c60:	f023 0240 	bic.w	r2, r3, #64	@ 0x40
 8000c64:	68bb      	ldr	r3, [r7, #8]
 8000c66:	3b01      	subs	r3, #1
 8000c68:	4906      	ldr	r1, [pc, #24]	@ (8000c84 <LL_DMA_SetPeriphIncMode+0x40>)
 8000c6a:	5ccb      	ldrb	r3, [r1, r3]
 8000c6c:	4619      	mov	r1, r3
 8000c6e:	68fb      	ldr	r3, [r7, #12]
 8000c70:	440b      	add	r3, r1
 8000c72:	4619      	mov	r1, r3
 8000c74:	687b      	ldr	r3, [r7, #4]
 8000c76:	4313      	orrs	r3, r2
 8000c78:	600b      	str	r3, [r1, #0]
}
 8000c7a:	bf00      	nop
 8000c7c:	3714      	adds	r7, #20
 8000c7e:	46bd      	mov	sp, r7
 8000c80:	bc80      	pop	{r7}
 8000c82:	4770      	bx	lr
 8000c84:	08007830 	.word	0x08007830

08000c88 <LL_DMA_SetMemoryIncMode>:
{
 8000c88:	b480      	push	{r7}
 8000c8a:	b085      	sub	sp, #20
 8000c8c:	af00      	add	r7, sp, #0
 8000c8e:	60f8      	str	r0, [r7, #12]
 8000c90:	60b9      	str	r1, [r7, #8]
 8000c92:	607a      	str	r2, [r7, #4]
  MODIFY_REG(((DMA_Channel_TypeDef *)((uint32_t)((uint32_t)DMAx + CHANNEL_OFFSET_TAB[Channel - 1U])))->CCR, DMA_CCR_MINC,
 8000c94:	68bb      	ldr	r3, [r7, #8]
 8000c96:	3b01      	subs	r3, #1
 8000c98:	4a0b      	ldr	r2, [pc, #44]	@ (8000cc8 <LL_DMA_SetMemoryIncMode+0x40>)
 8000c9a:	5cd3      	ldrb	r3, [r2, r3]
 8000c9c:	461a      	mov	r2, r3
 8000c9e:	68fb      	ldr	r3, [r7, #12]
 8000ca0:	4413      	add	r3, r2
 8000ca2:	681b      	ldr	r3, [r3, #0]
 8000ca4:	f023 0280 	bic.w	r2, r3, #128	@ 0x80
 8000ca8:	68bb      	ldr	r3, [r7, #8]
 8000caa:	3b01      	subs	r3, #1
 8000cac:	4906      	ldr	r1, [pc, #24]	@ (8000cc8 <LL_DMA_SetMemoryIncMode+0x40>)
 8000cae:	5ccb      	ldrb	r3, [r1, r3]
 8000cb0:	4619      	mov	r1, r3
 8000cb2:	68fb      	ldr	r3, [r7, #12]
 8000cb4:	440b      	add	r3, r1
 8000cb6:	4619      	mov	r1, r3
 8000cb8:	687b      	ldr	r3, [r7, #4]
 8000cba:	4313      	orrs	r3, r2
 8000cbc:	600b      	str	r3, [r1, #0]
}
 8000cbe:	bf00      	nop
 8000cc0:	3714      	adds	r7, #20
 8000cc2:	46bd      	mov	sp, r7
 8000cc4:	bc80      	pop	{r7}
 8000cc6:	4770      	bx	lr
 8000cc8:	08007830 	.word	0x08007830

08000ccc <LL_DMA_SetPeriphSize>:
{
 8000ccc:	b480      	push	{r7}
 8000cce:	b085      	sub	sp, #20
 8000cd0:	af00      	add	r7, sp, #0
 8000cd2:	60f8      	str	r0, [r7, #12]
 8000cd4:	60b9      	str	r1, [r7, #8]
 8000cd6:	607a      	str	r2, [r7, #4]
  MODIFY_REG(((DMA_Channel_TypeDef *)((uint32_t)((uint32_t)DMAx + CHANNEL_OFFSET_TAB[Channel - 1U])))->CCR, DMA_CCR_PSIZE,
 8000cd8:	68bb      	ldr	r3, [r7, #8]
 8000cda:	3b01      	subs	r3, #1
 8000cdc:	4a0b      	ldr	r2, [pc, #44]	@ (8000d0c <LL_DMA_SetPeriphSize+0x40>)
 8000cde:	5cd3      	ldrb	r3, [r2, r3]
 8000ce0:	461a      	mov	r2, r3
 8000ce2:	68fb      	ldr	r3, [r7, #12]
 8000ce4:	4413      	add	r3, r2
 8000ce6:	681b      	ldr	r3, [r3, #0]
 8000ce8:	f423 7240 	bic.w	r2, r3, #768	@ 0x300
 8000cec:	68bb      	ldr	r3, [r7, #8]
 8000cee:	3b01      	subs	r3, #1
 8000cf0:	4906      	ldr	r1, [pc, #24]	@ (8000d0c <LL_DMA_SetPeriphSize+0x40>)
 8000cf2:	5ccb      	ldrb	r3, [r1, r3]
 8000cf4:	4619      	mov	r1, r3
 8000cf6:	68fb      	ldr	r3, [r7, #12]
 8000cf8:	440b      	add	r3, r1
 8000cfa:	4619      	mov	r1, r3
 8000cfc:	687b      	ldr	r3, [r7, #4]
 8000cfe:	4313      	orrs	r3, r2
 8000d00:	600b      	str	r3, [r1, #0]
}
 8000d02:	bf00      	nop
 8000d04:	3714      	adds	r7, #20
 8000d06:	46bd      	mov	sp, r7
 8000d08:	bc80      	pop	{r7}
 8000d0a:	4770      	bx	lr
 8000d0c:	08007830 	.word	0x08007830

08000d10 <LL_DMA_SetMemorySize>:
{
 8000d10:	b480      	push	{r7}
 8000d12:	b085      	sub	sp, #20
 8000d14:	af00      	add	r7, sp, #0
 8000d16:	60f8      	str	r0, [r7, #12]
 8000d18:	60b9      	str	r1, [r7, #8]
 8000d1a:	607a      	str	r2, [r7, #4]
  MODIFY_REG(((DMA_Channel_TypeDef *)((uint32_t)((uint32_t)DMAx + CHANNEL_OFFSET_TAB[Channel - 1U])))->CCR, DMA_CCR_MSIZE,
 8000d1c:	68bb      	ldr	r3, [r7, #8]
 8000d1e:	3b01      	subs	r3, #1
 8000d20:	4a0b      	ldr	r2, [pc, #44]	@ (8000d50 <LL_DMA_SetMemorySize+0x40>)
 8000d22:	5cd3      	ldrb	r3, [r2, r3]
 8000d24:	461a      	mov	r2, r3
 8000d26:	68fb      	ldr	r3, [r7, #12]
 8000d28:	4413      	add	r3, r2
 8000d2a:	681b      	ldr	r3, [r3, #0]
 8000d2c:	f423 6240 	bic.w	r2, r3, #3072	@ 0xc00
 8000d30:	68bb      	ldr	r3, [r7, #8]
 8000d32:	3b01      	subs	r3, #1
 8000d34:	4906      	ldr	r1, [pc, #24]	@ (8000d50 <LL_DMA_SetMemorySize+0x40>)
 8000d36:	5ccb      	ldrb	r3, [r1, r3]
 8000d38:	4619      	mov	r1, r3
 8000d3a:	68fb      	ldr	r3, [r7, #12]
 8000d3c:	440b      	add	r3, r1
 8000d3e:	4619      	mov	r1, r3
 8000d40:	687b      	ldr	r3, [r7, #4]
 8000d42:	4313      	orrs	r3, r2
 8000d44:	600b      	str	r3, [r1, #0]
}
 8000d46:	bf00      	nop
 8000d48:	3714      	adds	r7, #20
 8000d4a:	46bd      	mov	sp, r7
 8000d4c:	bc80      	pop	{r7}
 8000d4e:	4770      	bx	lr
 8000d50:	08007830 	.word	0x08007830

08000d54 <LL_DMA_SetChannelPriorityLevel>:
{
 8000d54:	b480      	push	{r7}
 8000d56:	b085      	sub	sp, #20
 8000d58:	af00      	add	r7, sp, #0
 8000d5a:	60f8      	str	r0, [r7, #12]
 8000d5c:	60b9      	str	r1, [r7, #8]
 8000d5e:	607a      	str	r2, [r7, #4]
  MODIFY_REG(((DMA_Channel_TypeDef *)((uint32_t)((uint32_t)DMAx + CHANNEL_OFFSET_TAB[Channel - 1U])))->CCR, DMA_CCR_PL,
 8000d60:	68bb      	ldr	r3, [r7, #8]
 8000d62:	3b01      	subs	r3, #1
 8000d64:	4a0b      	ldr	r2, [pc, #44]	@ (8000d94 <LL_DMA_SetChannelPriorityLevel+0x40>)
 8000d66:	5cd3      	ldrb	r3, [r2, r3]
 8000d68:	461a      	mov	r2, r3
 8000d6a:	68fb      	ldr	r3, [r7, #12]
 8000d6c:	4413      	add	r3, r2
 8000d6e:	681b      	ldr	r3, [r3, #0]
 8000d70:	f423 5240 	bic.w	r2, r3, #12288	@ 0x3000
 8000d74:	68bb      	ldr	r3, [r7, #8]
 8000d76:	3b01      	subs	r3, #1
 8000d78:	4906      	ldr	r1, [pc, #24]	@ (8000d94 <LL_DMA_SetChannelPriorityLevel+0x40>)
 8000d7a:	5ccb      	ldrb	r3, [r1, r3]
 8000d7c:	4619      	mov	r1, r3
 8000d7e:	68fb      	ldr	r3, [r7, #12]
 8000d80:	440b      	add	r3, r1
 8000d82:	4619      	mov	r1, r3
 8000d84:	687b      	ldr	r3, [r7, #4]
 8000d86:	4313      	orrs	r3, r2
 8000d88:	600b      	str	r3, [r1, #0]
}
 8000d8a:	bf00      	nop
 8000d8c:	3714      	adds	r7, #20
 8000d8e:	46bd      	mov	sp, r7
 8000d90:	bc80      	pop	{r7}
 8000d92:	4770      	bx	lr
 8000d94:	08007830 	.word	0x08007830

08000d98 <LL_DMA_EnableIT_TC>:
  *         @arg @ref LL_DMA_CHANNEL_6
  *         @arg @ref LL_DMA_CHANNEL_7
  * @retval None
  */
__STATIC_INLINE void LL_DMA_EnableIT_TC(DMA_TypeDef *DMAx, uint32_t Channel)
{
 8000d98:	b480      	push	{r7}
 8000d9a:	b083      	sub	sp, #12
 8000d9c:	af00      	add	r7, sp, #0
 8000d9e:	6078      	str	r0, [r7, #4]
 8000da0:	6039      	str	r1, [r7, #0]
  SET_BIT(((DMA_Channel_TypeDef *)((uint32_t)((uint32_t)DMAx + CHANNEL_OFFSET_TAB[Channel - 1U])))->CCR, DMA_CCR_TCIE);
 8000da2:	683b      	ldr	r3, [r7, #0]
 8000da4:	3b01      	subs	r3, #1
 8000da6:	4a0a      	ldr	r2, [pc, #40]	@ (8000dd0 <LL_DMA_EnableIT_TC+0x38>)
 8000da8:	5cd3      	ldrb	r3, [r2, r3]
 8000daa:	461a      	mov	r2, r3
 8000dac:	687b      	ldr	r3, [r7, #4]
 8000dae:	4413      	add	r3, r2
 8000db0:	681b      	ldr	r3, [r3, #0]
 8000db2:	683a      	ldr	r2, [r7, #0]
 8000db4:	3a01      	subs	r2, #1
 8000db6:	4906      	ldr	r1, [pc, #24]	@ (8000dd0 <LL_DMA_EnableIT_TC+0x38>)
 8000db8:	5c8a      	ldrb	r2, [r1, r2]
 8000dba:	4611      	mov	r1, r2
 8000dbc:	687a      	ldr	r2, [r7, #4]
 8000dbe:	440a      	add	r2, r1
 8000dc0:	f043 0302 	orr.w	r3, r3, #2
 8000dc4:	6013      	str	r3, [r2, #0]
}
 8000dc6:	bf00      	nop
 8000dc8:	370c      	adds	r7, #12
 8000dca:	46bd      	mov	sp, r7
 8000dcc:	bc80      	pop	{r7}
 8000dce:	4770      	bx	lr
 8000dd0:	08007830 	.word	0x08007830

08000dd4 <LL_RCC_HSE_Enable>:
  * @brief  Enable HSE crystal oscillator (HSE ON)
  * @rmtoll CR           HSEON         LL_RCC_HSE_Enable
  * @retval None
  */
__STATIC_INLINE void LL_RCC_HSE_Enable(void)
{
 8000dd4:	b480      	push	{r7}
 8000dd6:	af00      	add	r7, sp, #0
  SET_BIT(RCC->CR, RCC_CR_HSEON);
 8000dd8:	4b04      	ldr	r3, [pc, #16]	@ (8000dec <LL_RCC_HSE_Enable+0x18>)
 8000dda:	681b      	ldr	r3, [r3, #0]
 8000ddc:	4a03      	ldr	r2, [pc, #12]	@ (8000dec <LL_RCC_HSE_Enable+0x18>)
 8000dde:	f443 3380 	orr.w	r3, r3, #65536	@ 0x10000
 8000de2:	6013      	str	r3, [r2, #0]
}
 8000de4:	bf00      	nop
 8000de6:	46bd      	mov	sp, r7
 8000de8:	bc80      	pop	{r7}
 8000dea:	4770      	bx	lr
 8000dec:	40021000 	.word	0x40021000

08000df0 <LL_RCC_HSE_IsReady>:
  * @brief  Check if HSE oscillator Ready
  * @rmtoll CR           HSERDY        LL_RCC_HSE_IsReady
  * @retval State of bit (1 or 0).
  */
__STATIC_INLINE uint32_t LL_RCC_HSE_IsReady(void)
{
 8000df0:	b480      	push	{r7}
 8000df2:	af00      	add	r7, sp, #0
  return (READ_BIT(RCC->CR, RCC_CR_HSERDY) == (RCC_CR_HSERDY));
 8000df4:	4b06      	ldr	r3, [pc, #24]	@ (8000e10 <LL_RCC_HSE_IsReady+0x20>)
 8000df6:	681b      	ldr	r3, [r3, #0]
 8000df8:	f403 3300 	and.w	r3, r3, #131072	@ 0x20000
 8000dfc:	f5b3 3f00 	cmp.w	r3, #131072	@ 0x20000
 8000e00:	bf0c      	ite	eq
 8000e02:	2301      	moveq	r3, #1
 8000e04:	2300      	movne	r3, #0
 8000e06:	b2db      	uxtb	r3, r3
}
 8000e08:	4618      	mov	r0, r3
 8000e0a:	46bd      	mov	sp, r7
 8000e0c:	bc80      	pop	{r7}
 8000e0e:	4770      	bx	lr
 8000e10:	40021000 	.word	0x40021000

08000e14 <LL_RCC_SetSysClkSource>:
  *         @arg @ref LL_RCC_SYS_CLKSOURCE_HSE
  *         @arg @ref LL_RCC_SYS_CLKSOURCE_PLL
  * @retval None
  */
__STATIC_INLINE void LL_RCC_SetSysClkSource(uint32_t Source)
{
 8000e14:	b480      	push	{r7}
 8000e16:	b083      	sub	sp, #12
 8000e18:	af00      	add	r7, sp, #0
 8000e1a:	6078      	str	r0, [r7, #4]
  MODIFY_REG(RCC->CFGR, RCC_CFGR_SW, Source);
 8000e1c:	4b06      	ldr	r3, [pc, #24]	@ (8000e38 <LL_RCC_SetSysClkSource+0x24>)
 8000e1e:	685b      	ldr	r3, [r3, #4]
 8000e20:	f023 0203 	bic.w	r2, r3, #3
 8000e24:	4904      	ldr	r1, [pc, #16]	@ (8000e38 <LL_RCC_SetSysClkSource+0x24>)
 8000e26:	687b      	ldr	r3, [r7, #4]
 8000e28:	4313      	orrs	r3, r2
 8000e2a:	604b      	str	r3, [r1, #4]
}
 8000e2c:	bf00      	nop
 8000e2e:	370c      	adds	r7, #12
 8000e30:	46bd      	mov	sp, r7
 8000e32:	bc80      	pop	{r7}
 8000e34:	4770      	bx	lr
 8000e36:	bf00      	nop
 8000e38:	40021000 	.word	0x40021000

08000e3c <LL_RCC_GetSysClkSource>:
  *         @arg @ref LL_RCC_SYS_CLKSOURCE_STATUS_HSI
  *         @arg @ref LL_RCC_SYS_CLKSOURCE_STATUS_HSE
  *         @arg @ref LL_RCC_SYS_CLKSOURCE_STATUS_PLL
  */
__STATIC_INLINE uint32_t LL_RCC_GetSysClkSource(void)
{
 8000e3c:	b480      	push	{r7}
 8000e3e:	af00      	add	r7, sp, #0
  return (uint32_t)(READ_BIT(RCC->CFGR, RCC_CFGR_SWS));
 8000e40:	4b03      	ldr	r3, [pc, #12]	@ (8000e50 <LL_RCC_GetSysClkSource+0x14>)
 8000e42:	685b      	ldr	r3, [r3, #4]
 8000e44:	f003 030c 	and.w	r3, r3, #12
}
 8000e48:	4618      	mov	r0, r3
 8000e4a:	46bd      	mov	sp, r7
 8000e4c:	bc80      	pop	{r7}
 8000e4e:	4770      	bx	lr
 8000e50:	40021000 	.word	0x40021000

08000e54 <LL_RCC_SetAHBPrescaler>:
  *         @arg @ref LL_RCC_SYSCLK_DIV_256
  *         @arg @ref LL_RCC_SYSCLK_DIV_512
  * @retval None
  */
__STATIC_INLINE void LL_RCC_SetAHBPrescaler(uint32_t Prescaler)
{
 8000e54:	b480      	push	{r7}
 8000e56:	b083      	sub	sp, #12
 8000e58:	af00      	add	r7, sp, #0
 8000e5a:	6078      	str	r0, [r7, #4]
  MODIFY_REG(RCC->CFGR, RCC_CFGR_HPRE, Prescaler);
 8000e5c:	4b06      	ldr	r3, [pc, #24]	@ (8000e78 <LL_RCC_SetAHBPrescaler+0x24>)
 8000e5e:	685b      	ldr	r3, [r3, #4]
 8000e60:	f023 02f0 	bic.w	r2, r3, #240	@ 0xf0
 8000e64:	4904      	ldr	r1, [pc, #16]	@ (8000e78 <LL_RCC_SetAHBPrescaler+0x24>)
 8000e66:	687b      	ldr	r3, [r7, #4]
 8000e68:	4313      	orrs	r3, r2
 8000e6a:	604b      	str	r3, [r1, #4]
}
 8000e6c:	bf00      	nop
 8000e6e:	370c      	adds	r7, #12
 8000e70:	46bd      	mov	sp, r7
 8000e72:	bc80      	pop	{r7}
 8000e74:	4770      	bx	lr
 8000e76:	bf00      	nop
 8000e78:	40021000 	.word	0x40021000

08000e7c <LL_RCC_SetAPB1Prescaler>:
  *         @arg @ref LL_RCC_APB1_DIV_8
  *         @arg @ref LL_RCC_APB1_DIV_16
  * @retval None
  */
__STATIC_INLINE void LL_RCC_SetAPB1Prescaler(uint32_t Prescaler)
{
 8000e7c:	b480      	push	{r7}
 8000e7e:	b083      	sub	sp, #12
 8000e80:	af00      	add	r7, sp, #0
 8000e82:	6078      	str	r0, [r7, #4]
  MODIFY_REG(RCC->CFGR, RCC_CFGR_PPRE1, Prescaler);
 8000e84:	4b06      	ldr	r3, [pc, #24]	@ (8000ea0 <LL_RCC_SetAPB1Prescaler+0x24>)
 8000e86:	685b      	ldr	r3, [r3, #4]
 8000e88:	f423 62e0 	bic.w	r2, r3, #1792	@ 0x700
 8000e8c:	4904      	ldr	r1, [pc, #16]	@ (8000ea0 <LL_RCC_SetAPB1Prescaler+0x24>)
 8000e8e:	687b      	ldr	r3, [r7, #4]
 8000e90:	4313      	orrs	r3, r2
 8000e92:	604b      	str	r3, [r1, #4]
}
 8000e94:	bf00      	nop
 8000e96:	370c      	adds	r7, #12
 8000e98:	46bd      	mov	sp, r7
 8000e9a:	bc80      	pop	{r7}
 8000e9c:	4770      	bx	lr
 8000e9e:	bf00      	nop
 8000ea0:	40021000 	.word	0x40021000

08000ea4 <LL_RCC_SetAPB2Prescaler>:
  *         @arg @ref LL_RCC_APB2_DIV_8
  *         @arg @ref LL_RCC_APB2_DIV_16
  * @retval None
  */
__STATIC_INLINE void LL_RCC_SetAPB2Prescaler(uint32_t Prescaler)
{
 8000ea4:	b480      	push	{r7}
 8000ea6:	b083      	sub	sp, #12
 8000ea8:	af00      	add	r7, sp, #0
 8000eaa:	6078      	str	r0, [r7, #4]
  MODIFY_REG(RCC->CFGR, RCC_CFGR_PPRE2, Prescaler);
 8000eac:	4b06      	ldr	r3, [pc, #24]	@ (8000ec8 <LL_RCC_SetAPB2Prescaler+0x24>)
 8000eae:	685b      	ldr	r3, [r3, #4]
 8000eb0:	f423 5260 	bic.w	r2, r3, #14336	@ 0x3800
 8000eb4:	4904      	ldr	r1, [pc, #16]	@ (8000ec8 <LL_RCC_SetAPB2Prescaler+0x24>)
 8000eb6:	687b      	ldr	r3, [r7, #4]
 8000eb8:	4313      	orrs	r3, r2
 8000eba:	604b      	str	r3, [r1, #4]
}
 8000ebc:	bf00      	nop
 8000ebe:	370c      	adds	r7, #12
 8000ec0:	46bd      	mov	sp, r7
 8000ec2:	bc80      	pop	{r7}
 8000ec4:	4770      	bx	lr
 8000ec6:	bf00      	nop
 8000ec8:	40021000 	.word	0x40021000

08000ecc <LL_RCC_SetADCClockSource>:
  *         @arg @ref LL_RCC_ADC_CLKSRC_PCLK2_DIV_6
  *         @arg @ref LL_RCC_ADC_CLKSRC_PCLK2_DIV_8
  * @retval None
  */
__STATIC_INLINE void LL_RCC_SetADCClockSource(uint32_t ADCxSource)
{
 8000ecc:	b480      	push	{r7}
 8000ece:	b083      	sub	sp, #12
 8000ed0:	af00      	add	r7, sp, #0
 8000ed2:	6078      	str	r0, [r7, #4]
  MODIFY_REG(RCC->CFGR, RCC_CFGR_ADCPRE, ADCxSource);
 8000ed4:	4b06      	ldr	r3, [pc, #24]	@ (8000ef0 <LL_RCC_SetADCClockSource+0x24>)
 8000ed6:	685b      	ldr	r3, [r3, #4]
 8000ed8:	f423 4240 	bic.w	r2, r3, #49152	@ 0xc000
 8000edc:	4904      	ldr	r1, [pc, #16]	@ (8000ef0 <LL_RCC_SetADCClockSource+0x24>)
 8000ede:	687b      	ldr	r3, [r7, #4]
 8000ee0:	4313      	orrs	r3, r2
 8000ee2:	604b      	str	r3, [r1, #4]
}
 8000ee4:	bf00      	nop
 8000ee6:	370c      	adds	r7, #12
 8000ee8:	46bd      	mov	sp, r7
 8000eea:	bc80      	pop	{r7}
 8000eec:	4770      	bx	lr
 8000eee:	bf00      	nop
 8000ef0:	40021000 	.word	0x40021000

08000ef4 <LL_RCC_PLL_Enable>:
  * @brief  Enable PLL
  * @rmtoll CR           PLLON         LL_RCC_PLL_Enable
  * @retval None
  */
__STATIC_INLINE void LL_RCC_PLL_Enable(void)
{
 8000ef4:	b480      	push	{r7}
 8000ef6:	af00      	add	r7, sp, #0
  SET_BIT(RCC->CR, RCC_CR_PLLON);
 8000ef8:	4b04      	ldr	r3, [pc, #16]	@ (8000f0c <LL_RCC_PLL_Enable+0x18>)
 8000efa:	681b      	ldr	r3, [r3, #0]
 8000efc:	4a03      	ldr	r2, [pc, #12]	@ (8000f0c <LL_RCC_PLL_Enable+0x18>)
 8000efe:	f043 7380 	orr.w	r3, r3, #16777216	@ 0x1000000
 8000f02:	6013      	str	r3, [r2, #0]
}
 8000f04:	bf00      	nop
 8000f06:	46bd      	mov	sp, r7
 8000f08:	bc80      	pop	{r7}
 8000f0a:	4770      	bx	lr
 8000f0c:	40021000 	.word	0x40021000

08000f10 <LL_RCC_PLL_IsReady>:
  * @brief  Check if PLL Ready
  * @rmtoll CR           PLLRDY        LL_RCC_PLL_IsReady
  * @retval State of bit (1 or 0).
  */
__STATIC_INLINE uint32_t LL_RCC_PLL_IsReady(void)
{
 8000f10:	b480      	push	{r7}
 8000f12:	af00      	add	r7, sp, #0
  return (READ_BIT(RCC->CR, RCC_CR_PLLRDY) == (RCC_CR_PLLRDY));
 8000f14:	4b06      	ldr	r3, [pc, #24]	@ (8000f30 <LL_RCC_PLL_IsReady+0x20>)
 8000f16:	681b      	ldr	r3, [r3, #0]
 8000f18:	f003 7300 	and.w	r3, r3, #33554432	@ 0x2000000
 8000f1c:	f1b3 7f00 	cmp.w	r3, #33554432	@ 0x2000000
 8000f20:	bf0c      	ite	eq
 8000f22:	2301      	moveq	r3, #1
 8000f24:	2300      	movne	r3, #0
 8000f26:	b2db      	uxtb	r3, r3
}
 8000f28:	4618      	mov	r0, r3
 8000f2a:	46bd      	mov	sp, r7
 8000f2c:	bc80      	pop	{r7}
 8000f2e:	4770      	bx	lr
 8000f30:	40021000 	.word	0x40021000

08000f34 <LL_RCC_PLL_ConfigDomain_SYS>:
  *
  *         (*) value not defined in all devices
  * @retval None
  */
__STATIC_INLINE void LL_RCC_PLL_ConfigDomain_SYS(uint32_t Source, uint32_t PLLMul)
{
 8000f34:	b480      	push	{r7}
 8000f36:	b083      	sub	sp, #12
 8000f38:	af00      	add	r7, sp, #0
 8000f3a:	6078      	str	r0, [r7, #4]
 8000f3c:	6039      	str	r1, [r7, #0]
  MODIFY_REG(RCC->CFGR, RCC_CFGR_PLLSRC | RCC_CFGR_PLLXTPRE | RCC_CFGR_PLLMULL,
 8000f3e:	4b11      	ldr	r3, [pc, #68]	@ (8000f84 <LL_RCC_PLL_ConfigDomain_SYS+0x50>)
 8000f40:	685b      	ldr	r3, [r3, #4]
 8000f42:	f423 127c 	bic.w	r2, r3, #4128768	@ 0x3f0000
 8000f46:	687b      	ldr	r3, [r7, #4]
 8000f48:	f403 3140 	and.w	r1, r3, #196608	@ 0x30000
 8000f4c:	683b      	ldr	r3, [r7, #0]
 8000f4e:	430b      	orrs	r3, r1
 8000f50:	490c      	ldr	r1, [pc, #48]	@ (8000f84 <LL_RCC_PLL_ConfigDomain_SYS+0x50>)
 8000f52:	4313      	orrs	r3, r2
 8000f54:	604b      	str	r3, [r1, #4]
             (Source & (RCC_CFGR_PLLSRC | RCC_CFGR_PLLXTPRE)) | PLLMul);
#if defined(RCC_CFGR2_PREDIV1)
#if defined(RCC_CFGR2_PREDIV1SRC)
  MODIFY_REG(RCC->CFGR2, (RCC_CFGR2_PREDIV1 | RCC_CFGR2_PREDIV1SRC),
 8000f56:	4b0b      	ldr	r3, [pc, #44]	@ (8000f84 <LL_RCC_PLL_ConfigDomain_SYS+0x50>)
 8000f58:	6adb      	ldr	r3, [r3, #44]	@ 0x2c
 8000f5a:	f423 3380 	bic.w	r3, r3, #65536	@ 0x10000
 8000f5e:	f023 030f 	bic.w	r3, r3, #15
 8000f62:	687a      	ldr	r2, [r7, #4]
 8000f64:	f002 010f 	and.w	r1, r2, #15
 8000f68:	687a      	ldr	r2, [r7, #4]
 8000f6a:	0912      	lsrs	r2, r2, #4
 8000f6c:	f402 3280 	and.w	r2, r2, #65536	@ 0x10000
 8000f70:	430a      	orrs	r2, r1
 8000f72:	4904      	ldr	r1, [pc, #16]	@ (8000f84 <LL_RCC_PLL_ConfigDomain_SYS+0x50>)
 8000f74:	4313      	orrs	r3, r2
 8000f76:	62cb      	str	r3, [r1, #44]	@ 0x2c
             (Source & RCC_CFGR2_PREDIV1) | ((Source & (RCC_CFGR2_PREDIV1SRC << 4U)) >> 4U));
#else
  MODIFY_REG(RCC->CFGR2, RCC_CFGR2_PREDIV1, (Source & RCC_CFGR2_PREDIV1));
#endif /*RCC_CFGR2_PREDIV1SRC*/
#endif /*RCC_CFGR2_PREDIV1*/
}
 8000f78:	bf00      	nop
 8000f7a:	370c      	adds	r7, #12
 8000f7c:	46bd      	mov	sp, r7
 8000f7e:	bc80      	pop	{r7}
 8000f80:	4770      	bx	lr
 8000f82:	bf00      	nop
 8000f84:	40021000 	.word	0x40021000

08000f88 <LL_AHB1_GRP1_EnableClock>:
  *
  *         (*) value not defined in all devices.
  * @retval None
*/
__STATIC_INLINE void LL_AHB1_GRP1_EnableClock(uint32_t Periphs)
{
 8000f88:	b480      	push	{r7}
 8000f8a:	b085      	sub	sp, #20
 8000f8c:	af00      	add	r7, sp, #0
 8000f8e:	6078      	str	r0, [r7, #4]
  __IO uint32_t tmpreg;
  SET_BIT(RCC->AHBENR, Periphs);
 8000f90:	4b08      	ldr	r3, [pc, #32]	@ (8000fb4 <LL_AHB1_GRP1_EnableClock+0x2c>)
 8000f92:	695a      	ldr	r2, [r3, #20]
 8000f94:	4907      	ldr	r1, [pc, #28]	@ (8000fb4 <LL_AHB1_GRP1_EnableClock+0x2c>)
 8000f96:	687b      	ldr	r3, [r7, #4]
 8000f98:	4313      	orrs	r3, r2
 8000f9a:	614b      	str	r3, [r1, #20]
  /* Delay after an RCC peripheral clock enabling */
  tmpreg = READ_BIT(RCC->AHBENR, Periphs);
 8000f9c:	4b05      	ldr	r3, [pc, #20]	@ (8000fb4 <LL_AHB1_GRP1_EnableClock+0x2c>)
 8000f9e:	695a      	ldr	r2, [r3, #20]
 8000fa0:	687b      	ldr	r3, [r7, #4]
 8000fa2:	4013      	ands	r3, r2
 8000fa4:	60fb      	str	r3, [r7, #12]
  (void)tmpreg;
 8000fa6:	68fb      	ldr	r3, [r7, #12]
}
 8000fa8:	bf00      	nop
 8000faa:	3714      	adds	r7, #20
 8000fac:	46bd      	mov	sp, r7
 8000fae:	bc80      	pop	{r7}
 8000fb0:	4770      	bx	lr
 8000fb2:	bf00      	nop
 8000fb4:	40021000 	.word	0x40021000

08000fb8 <LL_APB1_GRP1_EnableClock>:
  *
  *         (*) value not defined in all devices.
  * @retval None
*/
__STATIC_INLINE void LL_APB1_GRP1_EnableClock(uint32_t Periphs)
{
 8000fb8:	b480      	push	{r7}
 8000fba:	b085      	sub	sp, #20
 8000fbc:	af00      	add	r7, sp, #0
 8000fbe:	6078      	str	r0, [r7, #4]
  __IO uint32_t tmpreg;
  SET_BIT(RCC->APB1ENR, Periphs);
 8000fc0:	4b08      	ldr	r3, [pc, #32]	@ (8000fe4 <LL_APB1_GRP1_EnableClock+0x2c>)
 8000fc2:	69da      	ldr	r2, [r3, #28]
 8000fc4:	4907      	ldr	r1, [pc, #28]	@ (8000fe4 <LL_APB1_GRP1_EnableClock+0x2c>)
 8000fc6:	687b      	ldr	r3, [r7, #4]
 8000fc8:	4313      	orrs	r3, r2
 8000fca:	61cb      	str	r3, [r1, #28]
  /* Delay after an RCC peripheral clock enabling */
  tmpreg = READ_BIT(RCC->APB1ENR, Periphs);
 8000fcc:	4b05      	ldr	r3, [pc, #20]	@ (8000fe4 <LL_APB1_GRP1_EnableClock+0x2c>)
 8000fce:	69da      	ldr	r2, [r3, #28]
 8000fd0:	687b      	ldr	r3, [r7, #4]
 8000fd2:	4013      	ands	r3, r2
 8000fd4:	60fb      	str	r3, [r7, #12]
  (void)tmpreg;
 8000fd6:	68fb      	ldr	r3, [r7, #12]
}
 8000fd8:	bf00      	nop
 8000fda:	3714      	adds	r7, #20
 8000fdc:	46bd      	mov	sp, r7
 8000fde:	bc80      	pop	{r7}
 8000fe0:	4770      	bx	lr
 8000fe2:	bf00      	nop
 8000fe4:	40021000 	.word	0x40021000

08000fe8 <LL_APB2_GRP1_EnableClock>:
  *
  *         (*) value not defined in all devices.
  * @retval None
*/
__STATIC_INLINE void LL_APB2_GRP1_EnableClock(uint32_t Periphs)
{
 8000fe8:	b480      	push	{r7}
 8000fea:	b085      	sub	sp, #20
 8000fec:	af00      	add	r7, sp, #0
 8000fee:	6078      	str	r0, [r7, #4]
  __IO uint32_t tmpreg;
  SET_BIT(RCC->APB2ENR, Periphs);
 8000ff0:	4b08      	ldr	r3, [pc, #32]	@ (8001014 <LL_APB2_GRP1_EnableClock+0x2c>)
 8000ff2:	699a      	ldr	r2, [r3, #24]
 8000ff4:	4907      	ldr	r1, [pc, #28]	@ (8001014 <LL_APB2_GRP1_EnableClock+0x2c>)
 8000ff6:	687b      	ldr	r3, [r7, #4]
 8000ff8:	4313      	orrs	r3, r2
 8000ffa:	618b      	str	r3, [r1, #24]
  /* Delay after an RCC peripheral clock enabling */
  tmpreg = READ_BIT(RCC->APB2ENR, Periphs);
 8000ffc:	4b05      	ldr	r3, [pc, #20]	@ (8001014 <LL_APB2_GRP1_EnableClock+0x2c>)
 8000ffe:	699a      	ldr	r2, [r3, #24]
 8001000:	687b      	ldr	r3, [r7, #4]
 8001002:	4013      	ands	r3, r2
 8001004:	60fb      	str	r3, [r7, #12]
  (void)tmpreg;
 8001006:	68fb      	ldr	r3, [r7, #12]
}
 8001008:	bf00      	nop
 800100a:	3714      	adds	r7, #20
 800100c:	46bd      	mov	sp, r7
 800100e:	bc80      	pop	{r7}
 8001010:	4770      	bx	lr
 8001012:	bf00      	nop
 8001014:	40021000 	.word	0x40021000

08001018 <LL_FLASH_SetLatency>:
  *         @arg @ref LL_FLASH_LATENCY_1
  *         @arg @ref LL_FLASH_LATENCY_2
  * @retval None
  */
__STATIC_INLINE void LL_FLASH_SetLatency(uint32_t Latency)
{
 8001018:	b480      	push	{r7}
 800101a:	b083      	sub	sp, #12
 800101c:	af00      	add	r7, sp, #0
 800101e:	6078      	str	r0, [r7, #4]
  MODIFY_REG(FLASH->ACR, FLASH_ACR_LATENCY, Latency);
 8001020:	4b06      	ldr	r3, [pc, #24]	@ (800103c <LL_FLASH_SetLatency+0x24>)
 8001022:	681b      	ldr	r3, [r3, #0]
 8001024:	f023 0207 	bic.w	r2, r3, #7
 8001028:	4904      	ldr	r1, [pc, #16]	@ (800103c <LL_FLASH_SetLatency+0x24>)
 800102a:	687b      	ldr	r3, [r7, #4]
 800102c:	4313      	orrs	r3, r2
 800102e:	600b      	str	r3, [r1, #0]
}
 8001030:	bf00      	nop
 8001032:	370c      	adds	r7, #12
 8001034:	46bd      	mov	sp, r7
 8001036:	bc80      	pop	{r7}
 8001038:	4770      	bx	lr
 800103a:	bf00      	nop
 800103c:	40022000 	.word	0x40022000

08001040 <LL_FLASH_GetLatency>:
  *         @arg @ref LL_FLASH_LATENCY_0
  *         @arg @ref LL_FLASH_LATENCY_1
  *         @arg @ref LL_FLASH_LATENCY_2
  */
__STATIC_INLINE uint32_t LL_FLASH_GetLatency(void)
{
 8001040:	b480      	push	{r7}
 8001042:	af00      	add	r7, sp, #0
  return (uint32_t)(READ_BIT(FLASH->ACR, FLASH_ACR_LATENCY));
 8001044:	4b03      	ldr	r3, [pc, #12]	@ (8001054 <LL_FLASH_GetLatency+0x14>)
 8001046:	681b      	ldr	r3, [r3, #0]
 8001048:	f003 0307 	and.w	r3, r3, #7
}
 800104c:	4618      	mov	r0, r3
 800104e:	46bd      	mov	sp, r7
 8001050:	bc80      	pop	{r7}
 8001052:	4770      	bx	lr
 8001054:	40022000 	.word	0x40022000

08001058 <LL_EXTI_EnableIT_0_31>:
  *         @arg @ref LL_EXTI_LINE_ALL_0_31
  * @note   Please check each device line mapping for EXTI Line availability
  * @retval None
  */
__STATIC_INLINE void LL_EXTI_EnableIT_0_31(uint32_t ExtiLine)
{
 8001058:	b480      	push	{r7}
 800105a:	b083      	sub	sp, #12
 800105c:	af00      	add	r7, sp, #0
 800105e:	6078      	str	r0, [r7, #4]
  SET_BIT(EXTI->IMR, ExtiLine);
 8001060:	4b05      	ldr	r3, [pc, #20]	@ (8001078 <LL_EXTI_EnableIT_0_31+0x20>)
 8001062:	681a      	ldr	r2, [r3, #0]
 8001064:	4904      	ldr	r1, [pc, #16]	@ (8001078 <LL_EXTI_EnableIT_0_31+0x20>)
 8001066:	687b      	ldr	r3, [r7, #4]
 8001068:	4313      	orrs	r3, r2
 800106a:	600b      	str	r3, [r1, #0]
}
 800106c:	bf00      	nop
 800106e:	370c      	adds	r7, #12
 8001070:	46bd      	mov	sp, r7
 8001072:	bc80      	pop	{r7}
 8001074:	4770      	bx	lr
 8001076:	bf00      	nop
 8001078:	40010400 	.word	0x40010400

0800107c <LL_TIM_EnableCounter>:
{
 800107c:	b480      	push	{r7}
 800107e:	b083      	sub	sp, #12
 8001080:	af00      	add	r7, sp, #0
 8001082:	6078      	str	r0, [r7, #4]
  SET_BIT(TIMx->CR1, TIM_CR1_CEN);
 8001084:	687b      	ldr	r3, [r7, #4]
 8001086:	681b      	ldr	r3, [r3, #0]
 8001088:	f043 0201 	orr.w	r2, r3, #1
 800108c:	687b      	ldr	r3, [r7, #4]
 800108e:	601a      	str	r2, [r3, #0]
}
 8001090:	bf00      	nop
 8001092:	370c      	adds	r7, #12
 8001094:	46bd      	mov	sp, r7
 8001096:	bc80      	pop	{r7}
 8001098:	4770      	bx	lr

0800109a <LL_TIM_DisableARRPreload>:
{
 800109a:	b480      	push	{r7}
 800109c:	b083      	sub	sp, #12
 800109e:	af00      	add	r7, sp, #0
 80010a0:	6078      	str	r0, [r7, #4]
  CLEAR_BIT(TIMx->CR1, TIM_CR1_ARPE);
 80010a2:	687b      	ldr	r3, [r7, #4]
 80010a4:	681b      	ldr	r3, [r3, #0]
 80010a6:	f023 0280 	bic.w	r2, r3, #128	@ 0x80
 80010aa:	687b      	ldr	r3, [r7, #4]
 80010ac:	601a      	str	r2, [r3, #0]
}
 80010ae:	bf00      	nop
 80010b0:	370c      	adds	r7, #12
 80010b2:	46bd      	mov	sp, r7
 80010b4:	bc80      	pop	{r7}
 80010b6:	4770      	bx	lr

080010b8 <LL_TIM_OC_DisableFast>:
{
 80010b8:	b480      	push	{r7}
 80010ba:	b085      	sub	sp, #20
 80010bc:	af00      	add	r7, sp, #0
 80010be:	6078      	str	r0, [r7, #4]
 80010c0:	6039      	str	r1, [r7, #0]
  uint8_t iChannel = TIM_GET_CHANNEL_INDEX(Channel);
 80010c2:	683b      	ldr	r3, [r7, #0]
 80010c4:	2b01      	cmp	r3, #1
 80010c6:	d01c      	beq.n	8001102 <LL_TIM_OC_DisableFast+0x4a>
 80010c8:	683b      	ldr	r3, [r7, #0]
 80010ca:	2b04      	cmp	r3, #4
 80010cc:	d017      	beq.n	80010fe <LL_TIM_OC_DisableFast+0x46>
 80010ce:	683b      	ldr	r3, [r7, #0]
 80010d0:	2b10      	cmp	r3, #16
 80010d2:	d012      	beq.n	80010fa <LL_TIM_OC_DisableFast+0x42>
 80010d4:	683b      	ldr	r3, [r7, #0]
 80010d6:	2b40      	cmp	r3, #64	@ 0x40
 80010d8:	d00d      	beq.n	80010f6 <LL_TIM_OC_DisableFast+0x3e>
 80010da:	683b      	ldr	r3, [r7, #0]
 80010dc:	f5b3 7f80 	cmp.w	r3, #256	@ 0x100
 80010e0:	d007      	beq.n	80010f2 <LL_TIM_OC_DisableFast+0x3a>
 80010e2:	683b      	ldr	r3, [r7, #0]
 80010e4:	f5b3 6f80 	cmp.w	r3, #1024	@ 0x400
 80010e8:	d101      	bne.n	80010ee <LL_TIM_OC_DisableFast+0x36>
 80010ea:	2305      	movs	r3, #5
 80010ec:	e00a      	b.n	8001104 <LL_TIM_OC_DisableFast+0x4c>
 80010ee:	2306      	movs	r3, #6
 80010f0:	e008      	b.n	8001104 <LL_TIM_OC_DisableFast+0x4c>
 80010f2:	2304      	movs	r3, #4
 80010f4:	e006      	b.n	8001104 <LL_TIM_OC_DisableFast+0x4c>
 80010f6:	2303      	movs	r3, #3
 80010f8:	e004      	b.n	8001104 <LL_TIM_OC_DisableFast+0x4c>
 80010fa:	2302      	movs	r3, #2
 80010fc:	e002      	b.n	8001104 <LL_TIM_OC_DisableFast+0x4c>
 80010fe:	2301      	movs	r3, #1
 8001100:	e000      	b.n	8001104 <LL_TIM_OC_DisableFast+0x4c>
 8001102:	2300      	movs	r3, #0
 8001104:	73fb      	strb	r3, [r7, #15]
  __IO uint32_t *pReg = (__IO uint32_t *)((uint32_t)((uint32_t)(&TIMx->CCMR1) + OFFSET_TAB_CCMRx[iChannel]));
 8001106:	687b      	ldr	r3, [r7, #4]
 8001108:	3318      	adds	r3, #24
 800110a:	4619      	mov	r1, r3
 800110c:	7bfb      	ldrb	r3, [r7, #15]
 800110e:	4a0a      	ldr	r2, [pc, #40]	@ (8001138 <LL_TIM_OC_DisableFast+0x80>)
 8001110:	5cd3      	ldrb	r3, [r2, r3]
 8001112:	440b      	add	r3, r1
 8001114:	60bb      	str	r3, [r7, #8]
  CLEAR_BIT(*pReg, (TIM_CCMR1_OC1FE << SHIFT_TAB_OCxx[iChannel]));
 8001116:	68bb      	ldr	r3, [r7, #8]
 8001118:	681a      	ldr	r2, [r3, #0]
 800111a:	7bfb      	ldrb	r3, [r7, #15]
 800111c:	4907      	ldr	r1, [pc, #28]	@ (800113c <LL_TIM_OC_DisableFast+0x84>)
 800111e:	5ccb      	ldrb	r3, [r1, r3]
 8001120:	4619      	mov	r1, r3
 8001122:	2304      	movs	r3, #4
 8001124:	408b      	lsls	r3, r1
 8001126:	43db      	mvns	r3, r3
 8001128:	401a      	ands	r2, r3
 800112a:	68bb      	ldr	r3, [r7, #8]
 800112c:	601a      	str	r2, [r3, #0]
}
 800112e:	bf00      	nop
 8001130:	3714      	adds	r7, #20
 8001132:	46bd      	mov	sp, r7
 8001134:	bc80      	pop	{r7}
 8001136:	4770      	bx	lr
 8001138:	08007838 	.word	0x08007838
 800113c:	08007840 	.word	0x08007840

08001140 <LL_TIM_OC_EnablePreload>:
{
 8001140:	b480      	push	{r7}
 8001142:	b085      	sub	sp, #20
 8001144:	af00      	add	r7, sp, #0
 8001146:	6078      	str	r0, [r7, #4]
 8001148:	6039      	str	r1, [r7, #0]
  uint8_t iChannel = TIM_GET_CHANNEL_INDEX(Channel);
 800114a:	683b      	ldr	r3, [r7, #0]
 800114c:	2b01      	cmp	r3, #1
 800114e:	d01c      	beq.n	800118a <LL_TIM_OC_EnablePreload+0x4a>
 8001150:	683b      	ldr	r3, [r7, #0]
 8001152:	2b04      	cmp	r3, #4
 8001154:	d017      	beq.n	8001186 <LL_TIM_OC_EnablePreload+0x46>
 8001156:	683b      	ldr	r3, [r7, #0]
 8001158:	2b10      	cmp	r3, #16
 800115a:	d012      	beq.n	8001182 <LL_TIM_OC_EnablePreload+0x42>
 800115c:	683b      	ldr	r3, [r7, #0]
 800115e:	2b40      	cmp	r3, #64	@ 0x40
 8001160:	d00d      	beq.n	800117e <LL_TIM_OC_EnablePreload+0x3e>
 8001162:	683b      	ldr	r3, [r7, #0]
 8001164:	f5b3 7f80 	cmp.w	r3, #256	@ 0x100
 8001168:	d007      	beq.n	800117a <LL_TIM_OC_EnablePreload+0x3a>
 800116a:	683b      	ldr	r3, [r7, #0]
 800116c:	f5b3 6f80 	cmp.w	r3, #1024	@ 0x400
 8001170:	d101      	bne.n	8001176 <LL_TIM_OC_EnablePreload+0x36>
 8001172:	2305      	movs	r3, #5
 8001174:	e00a      	b.n	800118c <LL_TIM_OC_EnablePreload+0x4c>
 8001176:	2306      	movs	r3, #6
 8001178:	e008      	b.n	800118c <LL_TIM_OC_EnablePreload+0x4c>
 800117a:	2304      	movs	r3, #4
 800117c:	e006      	b.n	800118c <LL_TIM_OC_EnablePreload+0x4c>
 800117e:	2303      	movs	r3, #3
 8001180:	e004      	b.n	800118c <LL_TIM_OC_EnablePreload+0x4c>
 8001182:	2302      	movs	r3, #2
 8001184:	e002      	b.n	800118c <LL_TIM_OC_EnablePreload+0x4c>
 8001186:	2301      	movs	r3, #1
 8001188:	e000      	b.n	800118c <LL_TIM_OC_EnablePreload+0x4c>
 800118a:	2300      	movs	r3, #0
 800118c:	73fb      	strb	r3, [r7, #15]
  __IO uint32_t *pReg = (__IO uint32_t *)((uint32_t)((uint32_t)(&TIMx->CCMR1) + OFFSET_TAB_CCMRx[iChannel]));
 800118e:	687b      	ldr	r3, [r7, #4]
 8001190:	3318      	adds	r3, #24
 8001192:	4619      	mov	r1, r3
 8001194:	7bfb      	ldrb	r3, [r7, #15]
 8001196:	4a0a      	ldr	r2, [pc, #40]	@ (80011c0 <LL_TIM_OC_EnablePreload+0x80>)
 8001198:	5cd3      	ldrb	r3, [r2, r3]
 800119a:	440b      	add	r3, r1
 800119c:	60bb      	str	r3, [r7, #8]
  SET_BIT(*pReg, (TIM_CCMR1_OC1PE << SHIFT_TAB_OCxx[iChannel]));
 800119e:	68bb      	ldr	r3, [r7, #8]
 80011a0:	681a      	ldr	r2, [r3, #0]
 80011a2:	7bfb      	ldrb	r3, [r7, #15]
 80011a4:	4907      	ldr	r1, [pc, #28]	@ (80011c4 <LL_TIM_OC_EnablePreload+0x84>)
 80011a6:	5ccb      	ldrb	r3, [r1, r3]
 80011a8:	4619      	mov	r1, r3
 80011aa:	2308      	movs	r3, #8
 80011ac:	408b      	lsls	r3, r1
 80011ae:	431a      	orrs	r2, r3
 80011b0:	68bb      	ldr	r3, [r7, #8]
 80011b2:	601a      	str	r2, [r3, #0]
}
 80011b4:	bf00      	nop
 80011b6:	3714      	adds	r7, #20
 80011b8:	46bd      	mov	sp, r7
 80011ba:	bc80      	pop	{r7}
 80011bc:	4770      	bx	lr
 80011be:	bf00      	nop
 80011c0:	08007838 	.word	0x08007838
 80011c4:	08007840 	.word	0x08007840

080011c8 <LL_TIM_SetClockSource>:
{
 80011c8:	b480      	push	{r7}
 80011ca:	b083      	sub	sp, #12
 80011cc:	af00      	add	r7, sp, #0
 80011ce:	6078      	str	r0, [r7, #4]
 80011d0:	6039      	str	r1, [r7, #0]
  MODIFY_REG(TIMx->SMCR, TIM_SMCR_SMS | TIM_SMCR_ECE, ClockSource);
 80011d2:	687b      	ldr	r3, [r7, #4]
 80011d4:	689b      	ldr	r3, [r3, #8]
 80011d6:	f423 4380 	bic.w	r3, r3, #16384	@ 0x4000
 80011da:	f023 0307 	bic.w	r3, r3, #7
 80011de:	683a      	ldr	r2, [r7, #0]
 80011e0:	431a      	orrs	r2, r3
 80011e2:	687b      	ldr	r3, [r7, #4]
 80011e4:	609a      	str	r2, [r3, #8]
}
 80011e6:	bf00      	nop
 80011e8:	370c      	adds	r7, #12
 80011ea:	46bd      	mov	sp, r7
 80011ec:	bc80      	pop	{r7}
 80011ee:	4770      	bx	lr

080011f0 <LL_TIM_SetTriggerOutput>:
{
 80011f0:	b480      	push	{r7}
 80011f2:	b083      	sub	sp, #12
 80011f4:	af00      	add	r7, sp, #0
 80011f6:	6078      	str	r0, [r7, #4]
 80011f8:	6039      	str	r1, [r7, #0]
  MODIFY_REG(TIMx->CR2, TIM_CR2_MMS, TimerSynchronization);
 80011fa:	687b      	ldr	r3, [r7, #4]
 80011fc:	685b      	ldr	r3, [r3, #4]
 80011fe:	f023 0270 	bic.w	r2, r3, #112	@ 0x70
 8001202:	683b      	ldr	r3, [r7, #0]
 8001204:	431a      	orrs	r2, r3
 8001206:	687b      	ldr	r3, [r7, #4]
 8001208:	605a      	str	r2, [r3, #4]
}
 800120a:	bf00      	nop
 800120c:	370c      	adds	r7, #12
 800120e:	46bd      	mov	sp, r7
 8001210:	bc80      	pop	{r7}
 8001212:	4770      	bx	lr

08001214 <LL_TIM_DisableMasterSlaveMode>:
{
 8001214:	b480      	push	{r7}
 8001216:	b083      	sub	sp, #12
 8001218:	af00      	add	r7, sp, #0
 800121a:	6078      	str	r0, [r7, #4]
  CLEAR_BIT(TIMx->SMCR, TIM_SMCR_MSM);
 800121c:	687b      	ldr	r3, [r7, #4]
 800121e:	689b      	ldr	r3, [r3, #8]
 8001220:	f023 0280 	bic.w	r2, r3, #128	@ 0x80
 8001224:	687b      	ldr	r3, [r7, #4]
 8001226:	609a      	str	r2, [r3, #8]
}
 8001228:	bf00      	nop
 800122a:	370c      	adds	r7, #12
 800122c:	46bd      	mov	sp, r7
 800122e:	bc80      	pop	{r7}
 8001230:	4770      	bx	lr

08001232 <LL_USART_Enable>:
  * @rmtoll CR1          UE            LL_USART_Enable
  * @param  USARTx USART Instance
  * @retval None
  */
__STATIC_INLINE void LL_USART_Enable(USART_TypeDef *USARTx)
{
 8001232:	b480      	push	{r7}
 8001234:	b083      	sub	sp, #12
 8001236:	af00      	add	r7, sp, #0
 8001238:	6078      	str	r0, [r7, #4]
  SET_BIT(USARTx->CR1, USART_CR1_UE);
 800123a:	687b      	ldr	r3, [r7, #4]
 800123c:	68db      	ldr	r3, [r3, #12]
 800123e:	f443 5200 	orr.w	r2, r3, #8192	@ 0x2000
 8001242:	687b      	ldr	r3, [r7, #4]
 8001244:	60da      	str	r2, [r3, #12]
}
 8001246:	bf00      	nop
 8001248:	370c      	adds	r7, #12
 800124a:	46bd      	mov	sp, r7
 800124c:	bc80      	pop	{r7}
 800124e:	4770      	bx	lr

08001250 <LL_USART_ConfigAsyncMode>:
  *         CR3          HDSEL         LL_USART_ConfigAsyncMode
  * @param  USARTx USART Instance
  * @retval None
  */
__STATIC_INLINE void LL_USART_ConfigAsyncMode(USART_TypeDef *USARTx)
{
 8001250:	b480      	push	{r7}
 8001252:	b083      	sub	sp, #12
 8001254:	af00      	add	r7, sp, #0
 8001256:	6078      	str	r0, [r7, #4]
  /* In Asynchronous mode, the following bits must be kept cleared:
  - LINEN, CLKEN bits in the USART_CR2 register,
  - SCEN, IREN and HDSEL bits in the USART_CR3 register.*/
  CLEAR_BIT(USARTx->CR2, (USART_CR2_LINEN | USART_CR2_CLKEN));
 8001258:	687b      	ldr	r3, [r7, #4]
 800125a:	691b      	ldr	r3, [r3, #16]
 800125c:	f423 4290 	bic.w	r2, r3, #18432	@ 0x4800
 8001260:	687b      	ldr	r3, [r7, #4]
 8001262:	611a      	str	r2, [r3, #16]
  CLEAR_BIT(USARTx->CR3, (USART_CR3_SCEN | USART_CR3_IREN | USART_CR3_HDSEL));
 8001264:	687b      	ldr	r3, [r7, #4]
 8001266:	695b      	ldr	r3, [r3, #20]
 8001268:	f023 022a 	bic.w	r2, r3, #42	@ 0x2a
 800126c:	687b      	ldr	r3, [r7, #4]
 800126e:	615a      	str	r2, [r3, #20]
}
 8001270:	bf00      	nop
 8001272:	370c      	adds	r7, #12
 8001274:	46bd      	mov	sp, r7
 8001276:	bc80      	pop	{r7}
 8001278:	4770      	bx	lr

0800127a <LL_USART_IsActiveFlag_TC>:
  * @rmtoll SR           TC            LL_USART_IsActiveFlag_TC
  * @param  USARTx USART Instance
  * @retval State of bit (1 or 0).
  */
__STATIC_INLINE uint32_t LL_USART_IsActiveFlag_TC(const USART_TypeDef *USARTx)
{
 800127a:	b480      	push	{r7}
 800127c:	b083      	sub	sp, #12
 800127e:	af00      	add	r7, sp, #0
 8001280:	6078      	str	r0, [r7, #4]
  return (READ_BIT(USARTx->SR, USART_SR_TC) == (USART_SR_TC));
 8001282:	687b      	ldr	r3, [r7, #4]
 8001284:	681b      	ldr	r3, [r3, #0]
 8001286:	f003 0340 	and.w	r3, r3, #64	@ 0x40
 800128a:	2b40      	cmp	r3, #64	@ 0x40
 800128c:	bf0c      	ite	eq
 800128e:	2301      	moveq	r3, #1
 8001290:	2300      	movne	r3, #0
 8001292:	b2db      	uxtb	r3, r3
}
 8001294:	4618      	mov	r0, r3
 8001296:	370c      	adds	r7, #12
 8001298:	46bd      	mov	sp, r7
 800129a:	bc80      	pop	{r7}
 800129c:	4770      	bx	lr

0800129e <LL_USART_IsActiveFlag_TXE>:
  * @rmtoll SR           TXE           LL_USART_IsActiveFlag_TXE
  * @param  USARTx USART Instance
  * @retval State of bit (1 or 0).
  */
__STATIC_INLINE uint32_t LL_USART_IsActiveFlag_TXE(const USART_TypeDef *USARTx)
{
 800129e:	b480      	push	{r7}
 80012a0:	b083      	sub	sp, #12
 80012a2:	af00      	add	r7, sp, #0
 80012a4:	6078      	str	r0, [r7, #4]
  return (READ_BIT(USARTx->SR, USART_SR_TXE) == (USART_SR_TXE));
 80012a6:	687b      	ldr	r3, [r7, #4]
 80012a8:	681b      	ldr	r3, [r3, #0]
 80012aa:	f003 0380 	and.w	r3, r3, #128	@ 0x80
 80012ae:	2b80      	cmp	r3, #128	@ 0x80
 80012b0:	bf0c      	ite	eq
 80012b2:	2301      	moveq	r3, #1
 80012b4:	2300      	movne	r3, #0
 80012b6:	b2db      	uxtb	r3, r3
}
 80012b8:	4618      	mov	r0, r3
 80012ba:	370c      	adds	r7, #12
 80012bc:	46bd      	mov	sp, r7
 80012be:	bc80      	pop	{r7}
 80012c0:	4770      	bx	lr

080012c2 <LL_USART_EnableIT_RXNE>:
  * @rmtoll CR1          RXNEIE        LL_USART_EnableIT_RXNE
  * @param  USARTx USART Instance
  * @retval None
  */
__STATIC_INLINE void LL_USART_EnableIT_RXNE(USART_TypeDef *USARTx)
{
 80012c2:	b480      	push	{r7}
 80012c4:	b089      	sub	sp, #36	@ 0x24
 80012c6:	af00      	add	r7, sp, #0
 80012c8:	6078      	str	r0, [r7, #4]
  ATOMIC_SET_BIT(USARTx->CR1, USART_CR1_RXNEIE);
 80012ca:	687b      	ldr	r3, [r7, #4]
 80012cc:	330c      	adds	r3, #12
 80012ce:	60fb      	str	r3, [r7, #12]
 */
__STATIC_FORCEINLINE uint32_t __LDREXW(volatile uint32_t *addr)
{
    uint32_t result;

   __ASM volatile ("ldrex %0, %1" : "=r" (result) : "Q" (*addr) );
 80012d0:	68fb      	ldr	r3, [r7, #12]
 80012d2:	e853 3f00 	ldrex	r3, [r3]
 80012d6:	60bb      	str	r3, [r7, #8]
   return(result);
 80012d8:	68bb      	ldr	r3, [r7, #8]
 80012da:	f043 0320 	orr.w	r3, r3, #32
 80012de:	61fb      	str	r3, [r7, #28]
 80012e0:	687b      	ldr	r3, [r7, #4]
 80012e2:	330c      	adds	r3, #12
 80012e4:	69fa      	ldr	r2, [r7, #28]
 80012e6:	61ba      	str	r2, [r7, #24]
 80012e8:	617b      	str	r3, [r7, #20]
 */
__STATIC_FORCEINLINE uint32_t __STREXW(uint32_t value, volatile uint32_t *addr)
{
   uint32_t result;

   __ASM volatile ("strex %0, %2, %1" : "=&r" (result), "=Q" (*addr) : "r" (value) );
 80012ea:	6979      	ldr	r1, [r7, #20]
 80012ec:	69ba      	ldr	r2, [r7, #24]
 80012ee:	e841 2300 	strex	r3, r2, [r1]
 80012f2:	613b      	str	r3, [r7, #16]
   return(result);
 80012f4:	693b      	ldr	r3, [r7, #16]
 80012f6:	2b00      	cmp	r3, #0
 80012f8:	d1e7      	bne.n	80012ca <LL_USART_EnableIT_RXNE+0x8>
}
 80012fa:	bf00      	nop
 80012fc:	bf00      	nop
 80012fe:	3724      	adds	r7, #36	@ 0x24
 8001300:	46bd      	mov	sp, r7
 8001302:	bc80      	pop	{r7}
 8001304:	4770      	bx	lr

08001306 <LL_USART_TransmitData8>:
  * @param  USARTx USART Instance
  * @param  Value between Min_Data=0x00 and Max_Data=0xFF
  * @retval None
  */
__STATIC_INLINE void LL_USART_TransmitData8(USART_TypeDef *USARTx, uint8_t Value)
{
 8001306:	b480      	push	{r7}
 8001308:	b083      	sub	sp, #12
 800130a:	af00      	add	r7, sp, #0
 800130c:	6078      	str	r0, [r7, #4]
 800130e:	460b      	mov	r3, r1
 8001310:	70fb      	strb	r3, [r7, #3]
  USARTx->DR = Value;
 8001312:	78fa      	ldrb	r2, [r7, #3]
 8001314:	687b      	ldr	r3, [r7, #4]
 8001316:	605a      	str	r2, [r3, #4]
}
 8001318:	bf00      	nop
 800131a:	370c      	adds	r7, #12
 800131c:	46bd      	mov	sp, r7
 800131e:	bc80      	pop	{r7}
 8001320:	4770      	bx	lr

08001322 <LL_GPIO_SetPinMode>:
{
 8001322:	b490      	push	{r4, r7}
 8001324:	b088      	sub	sp, #32
 8001326:	af00      	add	r7, sp, #0
 8001328:	60f8      	str	r0, [r7, #12]
 800132a:	60b9      	str	r1, [r7, #8]
 800132c:	607a      	str	r2, [r7, #4]
  register uint32_t *pReg = (uint32_t *)((uint32_t)((uint32_t)(&GPIOx->CRL) + (Pin >> 24)));
 800132e:	68fb      	ldr	r3, [r7, #12]
 8001330:	461a      	mov	r2, r3
 8001332:	68bb      	ldr	r3, [r7, #8]
 8001334:	0e1b      	lsrs	r3, r3, #24
 8001336:	4413      	add	r3, r2
 8001338:	461c      	mov	r4, r3
  MODIFY_REG(*pReg, ((GPIO_CRL_CNF0 | GPIO_CRL_MODE0) << (POSITION_VAL(Pin) * 4U)), (Mode << (POSITION_VAL(Pin) * 4U)));
 800133a:	6822      	ldr	r2, [r4, #0]
 800133c:	68bb      	ldr	r3, [r7, #8]
 800133e:	617b      	str	r3, [r7, #20]
   __ASM volatile ("rbit %0, %1" : "=r" (result) : "r" (value) );
 8001340:	697b      	ldr	r3, [r7, #20]
 8001342:	fa93 f3a3 	rbit	r3, r3
 8001346:	613b      	str	r3, [r7, #16]
  return result;
 8001348:	693b      	ldr	r3, [r7, #16]
 800134a:	fab3 f383 	clz	r3, r3
 800134e:	b2db      	uxtb	r3, r3
 8001350:	009b      	lsls	r3, r3, #2
 8001352:	210f      	movs	r1, #15
 8001354:	fa01 f303 	lsl.w	r3, r1, r3
 8001358:	43db      	mvns	r3, r3
 800135a:	401a      	ands	r2, r3
 800135c:	68bb      	ldr	r3, [r7, #8]
 800135e:	61fb      	str	r3, [r7, #28]
   __ASM volatile ("rbit %0, %1" : "=r" (result) : "r" (value) );
 8001360:	69fb      	ldr	r3, [r7, #28]
 8001362:	fa93 f3a3 	rbit	r3, r3
 8001366:	61bb      	str	r3, [r7, #24]
  return result;
 8001368:	69bb      	ldr	r3, [r7, #24]
 800136a:	fab3 f383 	clz	r3, r3
 800136e:	b2db      	uxtb	r3, r3
 8001370:	009b      	lsls	r3, r3, #2
 8001372:	6879      	ldr	r1, [r7, #4]
 8001374:	fa01 f303 	lsl.w	r3, r1, r3
 8001378:	4313      	orrs	r3, r2
 800137a:	6023      	str	r3, [r4, #0]
}
 800137c:	bf00      	nop
 800137e:	3720      	adds	r7, #32
 8001380:	46bd      	mov	sp, r7
 8001382:	bc90      	pop	{r4, r7}
 8001384:	4770      	bx	lr

08001386 <LL_GPIO_SetOutputPin>:
{
 8001386:	b480      	push	{r7}
 8001388:	b083      	sub	sp, #12
 800138a:	af00      	add	r7, sp, #0
 800138c:	6078      	str	r0, [r7, #4]
 800138e:	6039      	str	r1, [r7, #0]
  WRITE_REG(GPIOx->BSRR, (PinMask >> GPIO_PIN_MASK_POS) & 0x0000FFFFU);
 8001390:	683b      	ldr	r3, [r7, #0]
 8001392:	0a1b      	lsrs	r3, r3, #8
 8001394:	b29a      	uxth	r2, r3
 8001396:	687b      	ldr	r3, [r7, #4]
 8001398:	611a      	str	r2, [r3, #16]
}
 800139a:	bf00      	nop
 800139c:	370c      	adds	r7, #12
 800139e:	46bd      	mov	sp, r7
 80013a0:	bc80      	pop	{r7}
 80013a2:	4770      	bx	lr

080013a4 <LL_GPIO_ResetOutputPin>:
{
 80013a4:	b480      	push	{r7}
 80013a6:	b083      	sub	sp, #12
 80013a8:	af00      	add	r7, sp, #0
 80013aa:	6078      	str	r0, [r7, #4]
 80013ac:	6039      	str	r1, [r7, #0]
  WRITE_REG(GPIOx->BRR, (PinMask >> GPIO_PIN_MASK_POS) & 0x0000FFFFU);
 80013ae:	683b      	ldr	r3, [r7, #0]
 80013b0:	0a1b      	lsrs	r3, r3, #8
 80013b2:	b29a      	uxth	r2, r3
 80013b4:	687b      	ldr	r3, [r7, #4]
 80013b6:	615a      	str	r2, [r3, #20]
}
 80013b8:	bf00      	nop
 80013ba:	370c      	adds	r7, #12
 80013bc:	46bd      	mov	sp, r7
 80013be:	bc80      	pop	{r7}
 80013c0:	4770      	bx	lr
	...

080013c4 <LL_GPIO_AF_EnableRemap_USART2>:
  * @rmtoll MAPR          USART2_REMAP           LL_GPIO_AF_EnableRemap_USART2
  * @note  ENABLE: Remap     (CTS/PD3, RTS/PD4, TX/PD5, RX/PD6, CK/PD7)
  * @retval None
  */
__STATIC_INLINE void LL_GPIO_AF_EnableRemap_USART2(void)
{
 80013c4:	b480      	push	{r7}
 80013c6:	af00      	add	r7, sp, #0
  SET_BIT(AFIO->MAPR, AFIO_MAPR_USART2_REMAP | AFIO_MAPR_SWJ_CFG);
 80013c8:	4b05      	ldr	r3, [pc, #20]	@ (80013e0 <LL_GPIO_AF_EnableRemap_USART2+0x1c>)
 80013ca:	685b      	ldr	r3, [r3, #4]
 80013cc:	4a04      	ldr	r2, [pc, #16]	@ (80013e0 <LL_GPIO_AF_EnableRemap_USART2+0x1c>)
 80013ce:	f043 63e0 	orr.w	r3, r3, #117440512	@ 0x7000000
 80013d2:	f043 0308 	orr.w	r3, r3, #8
 80013d6:	6053      	str	r3, [r2, #4]
}
 80013d8:	bf00      	nop
 80013da:	46bd      	mov	sp, r7
 80013dc:	bc80      	pop	{r7}
 80013de:	4770      	bx	lr
 80013e0:	40010000 	.word	0x40010000

080013e4 <LL_GPIO_AF_RemapPartial1_TIM2>:
  * @rmtoll MAPR          TIM2_REMAP           LL_GPIO_AF_RemapPartial1_TIM2
  * @note  PARTIAL_1: Partial remap (CH1/ETR/PA15, CH2/PB3, CH3/PA2,  CH4/PA3)
  * @retval None
  */
__STATIC_INLINE void LL_GPIO_AF_RemapPartial1_TIM2(void)
{
 80013e4:	b480      	push	{r7}
 80013e6:	af00      	add	r7, sp, #0
  MODIFY_REG(AFIO->MAPR, (AFIO_MAPR_TIM2_REMAP | AFIO_MAPR_SWJ_CFG), (AFIO_MAPR_TIM2_REMAP_PARTIALREMAP1 | AFIO_MAPR_SWJ_CFG));
 80013e8:	4b07      	ldr	r3, [pc, #28]	@ (8001408 <LL_GPIO_AF_RemapPartial1_TIM2+0x24>)
 80013ea:	685b      	ldr	r3, [r3, #4]
 80013ec:	f023 63e0 	bic.w	r3, r3, #117440512	@ 0x7000000
 80013f0:	f423 7340 	bic.w	r3, r3, #768	@ 0x300
 80013f4:	4a04      	ldr	r2, [pc, #16]	@ (8001408 <LL_GPIO_AF_RemapPartial1_TIM2+0x24>)
 80013f6:	f043 63e0 	orr.w	r3, r3, #117440512	@ 0x7000000
 80013fa:	f443 7380 	orr.w	r3, r3, #256	@ 0x100
 80013fe:	6053      	str	r3, [r2, #4]
}
 8001400:	bf00      	nop
 8001402:	46bd      	mov	sp, r7
 8001404:	bc80      	pop	{r7}
 8001406:	4770      	bx	lr
 8001408:	40010000 	.word	0x40010000

0800140c <LL_GPIO_AF_Remap_SWJ_NOJTAG>:
  * @rmtoll MAPR          SWJ_CFG           LL_GPIO_AF_Remap_SWJ_NOJTAG
  * @note  NOJTAG: JTAG-DP Disabled and SW-DP Enabled
  * @retval None
  */
__STATIC_INLINE void LL_GPIO_AF_Remap_SWJ_NOJTAG(void)
{
 800140c:	b480      	push	{r7}
 800140e:	af00      	add	r7, sp, #0
  MODIFY_REG(AFIO->MAPR, AFIO_MAPR_SWJ_CFG, AFIO_MAPR_SWJ_CFG_JTAGDISABLE);
 8001410:	4b05      	ldr	r3, [pc, #20]	@ (8001428 <LL_GPIO_AF_Remap_SWJ_NOJTAG+0x1c>)
 8001412:	685b      	ldr	r3, [r3, #4]
 8001414:	f023 63e0 	bic.w	r3, r3, #117440512	@ 0x7000000
 8001418:	4a03      	ldr	r2, [pc, #12]	@ (8001428 <LL_GPIO_AF_Remap_SWJ_NOJTAG+0x1c>)
 800141a:	f043 7300 	orr.w	r3, r3, #33554432	@ 0x2000000
 800141e:	6053      	str	r3, [r2, #4]
}
 8001420:	bf00      	nop
 8001422:	46bd      	mov	sp, r7
 8001424:	bc80      	pop	{r7}
 8001426:	4770      	bx	lr
 8001428:	40010000 	.word	0x40010000

0800142c <LL_GPIO_AF_SetEXTISource>:
  *         @arg @ref LL_GPIO_AF_EXTI_LINE14
  *         @arg @ref LL_GPIO_AF_EXTI_LINE15
  * @retval None
  */
__STATIC_INLINE void LL_GPIO_AF_SetEXTISource(uint32_t Port, uint32_t Line)
{
 800142c:	b480      	push	{r7}
 800142e:	b085      	sub	sp, #20
 8001430:	af00      	add	r7, sp, #0
 8001432:	6078      	str	r0, [r7, #4]
 8001434:	6039      	str	r1, [r7, #0]
  MODIFY_REG(AFIO->EXTICR[Line & 0xFF], (Line >> 16), Port << POSITION_VAL((Line >> 16)));
 8001436:	4a13      	ldr	r2, [pc, #76]	@ (8001484 <LL_GPIO_AF_SetEXTISource+0x58>)
 8001438:	683b      	ldr	r3, [r7, #0]
 800143a:	b2db      	uxtb	r3, r3
 800143c:	3302      	adds	r3, #2
 800143e:	f852 2023 	ldr.w	r2, [r2, r3, lsl #2]
 8001442:	683b      	ldr	r3, [r7, #0]
 8001444:	0c1b      	lsrs	r3, r3, #16
 8001446:	43db      	mvns	r3, r3
 8001448:	ea02 0103 	and.w	r1, r2, r3
 800144c:	683b      	ldr	r3, [r7, #0]
 800144e:	0c1b      	lsrs	r3, r3, #16
 8001450:	60fb      	str	r3, [r7, #12]
   __ASM volatile ("rbit %0, %1" : "=r" (result) : "r" (value) );
 8001452:	68fb      	ldr	r3, [r7, #12]
 8001454:	fa93 f3a3 	rbit	r3, r3
 8001458:	60bb      	str	r3, [r7, #8]
  return result;
 800145a:	68bb      	ldr	r3, [r7, #8]
 800145c:	fab3 f383 	clz	r3, r3
 8001460:	b2db      	uxtb	r3, r3
 8001462:	461a      	mov	r2, r3
 8001464:	687b      	ldr	r3, [r7, #4]
 8001466:	fa03 f202 	lsl.w	r2, r3, r2
 800146a:	4806      	ldr	r0, [pc, #24]	@ (8001484 <LL_GPIO_AF_SetEXTISource+0x58>)
 800146c:	683b      	ldr	r3, [r7, #0]
 800146e:	b2db      	uxtb	r3, r3
 8001470:	430a      	orrs	r2, r1
 8001472:	3302      	adds	r3, #2
 8001474:	f840 2023 	str.w	r2, [r0, r3, lsl #2]
}
 8001478:	bf00      	nop
 800147a:	3714      	adds	r7, #20
 800147c:	46bd      	mov	sp, r7
 800147e:	bc80      	pop	{r7}
 8001480:	4770      	bx	lr
 8001482:	bf00      	nop
 8001484:	40010000 	.word	0x40010000

08001488 <_write>:
/* Private user code ---------------------------------------------------------*/
/* USER CODE BEGIN 0 */

//    - , _write e  

int _write(int file, char *ptr, int len) {
 8001488:	b580      	push	{r7, lr}
 800148a:	b086      	sub	sp, #24
 800148c:	af00      	add	r7, sp, #0
 800148e:	60f8      	str	r0, [r7, #12]
 8001490:	60b9      	str	r1, [r7, #8]
 8001492:	607a      	str	r2, [r7, #4]
    for (int i = 0; i < len; i++) {
 8001494:	2300      	movs	r3, #0
 8001496:	617b      	str	r3, [r7, #20]
 8001498:	e011      	b.n	80014be <_write+0x36>
        while (!LL_USART_IsActiveFlag_TXE(USART2));  // Wait until TX buffer is empty
 800149a:	bf00      	nop
 800149c:	4810      	ldr	r0, [pc, #64]	@ (80014e0 <_write+0x58>)
 800149e:	f7ff fefe 	bl	800129e <LL_USART_IsActiveFlag_TXE>
 80014a2:	4603      	mov	r3, r0
 80014a4:	2b00      	cmp	r3, #0
 80014a6:	d0f9      	beq.n	800149c <_write+0x14>
        LL_USART_TransmitData8(USART2, ptr[i]);      // Send byte
 80014a8:	697b      	ldr	r3, [r7, #20]
 80014aa:	68ba      	ldr	r2, [r7, #8]
 80014ac:	4413      	add	r3, r2
 80014ae:	781b      	ldrb	r3, [r3, #0]
 80014b0:	4619      	mov	r1, r3
 80014b2:	480b      	ldr	r0, [pc, #44]	@ (80014e0 <_write+0x58>)
 80014b4:	f7ff ff27 	bl	8001306 <LL_USART_TransmitData8>
    for (int i = 0; i < len; i++) {
 80014b8:	697b      	ldr	r3, [r7, #20]
 80014ba:	3301      	adds	r3, #1
 80014bc:	617b      	str	r3, [r7, #20]
 80014be:	697a      	ldr	r2, [r7, #20]
 80014c0:	687b      	ldr	r3, [r7, #4]
 80014c2:	429a      	cmp	r2, r3
 80014c4:	dbe9      	blt.n	800149a <_write+0x12>
    }

    while (!LL_USART_IsActiveFlag_TC(USART2));  // Wait for last transmission to complete
 80014c6:	bf00      	nop
 80014c8:	4805      	ldr	r0, [pc, #20]	@ (80014e0 <_write+0x58>)
 80014ca:	f7ff fed6 	bl	800127a <LL_USART_IsActiveFlag_TC>
 80014ce:	4603      	mov	r3, r0
 80014d0:	2b00      	cmp	r3, #0
 80014d2:	d0f9      	beq.n	80014c8 <_write+0x40>
    return len;
 80014d4:	687b      	ldr	r3, [r7, #4]
}
 80014d6:	4618      	mov	r0, r3
 80014d8:	3718      	adds	r7, #24
 80014da:	46bd      	mov	sp, r7
 80014dc:	bd80      	pop	{r7, pc}
 80014de:	bf00      	nop
 80014e0:	40004400 	.word	0x40004400

080014e4 <main>:
/**
  * @brief  The application entry point.
  * @retval int
  */
int main(void)
{
 80014e4:	b580      	push	{r7, lr}
 80014e6:	af00      	add	r7, sp, #0
  /* USER CODE END 1 */

  /* MCU Configuration--------------------------------------------------------*/

  /* Reset of all peripherals, Initializes the Flash interface and the Systick. */
  LL_APB2_GRP1_EnableClock(LL_APB2_GRP1_PERIPH_AFIO);
 80014e8:	2001      	movs	r0, #1
 80014ea:	f7ff fd7d 	bl	8000fe8 <LL_APB2_GRP1_EnableClock>
  LL_APB1_GRP1_EnableClock(LL_APB1_GRP1_PERIPH_PWR);
 80014ee:	f04f 5080 	mov.w	r0, #268435456	@ 0x10000000
 80014f2:	f7ff fd61 	bl	8000fb8 <LL_APB1_GRP1_EnableClock>

  /* System interrupt init*/
  NVIC_SetPriorityGrouping(NVIC_PRIORITYGROUP_4);
 80014f6:	2003      	movs	r0, #3
 80014f8:	f7ff fa34 	bl	8000964 <__NVIC_SetPriorityGrouping>

  /* SysTick_IRQn interrupt configuration */
  NVIC_SetPriority(SysTick_IRQn, NVIC_EncodePriority(NVIC_GetPriorityGrouping(),15, 0));
 80014fc:	f7ff fa56 	bl	80009ac <__NVIC_GetPriorityGrouping>
 8001500:	4603      	mov	r3, r0
 8001502:	2200      	movs	r2, #0
 8001504:	210f      	movs	r1, #15
 8001506:	4618      	mov	r0, r3
 8001508:	f7ff faa4 	bl	8000a54 <NVIC_EncodePriority>
 800150c:	4603      	mov	r3, r0
 800150e:	4619      	mov	r1, r3
 8001510:	f04f 30ff 	mov.w	r0, #4294967295
 8001514:	f7ff fa74 	bl	8000a00 <__NVIC_SetPriority>

  /** NOJTAG: JTAG-DP Disabled and SW-DP Enabled
  */
  LL_GPIO_AF_Remap_SWJ_NOJTAG();
 8001518:	f7ff ff78 	bl	800140c <LL_GPIO_AF_Remap_SWJ_NOJTAG>
  /* USER CODE BEGIN Init */

  /* USER CODE END Init */

  /* Configure the system clock */
  SystemClock_Config();
 800151c:	f000 f850 	bl	80015c0 <SystemClock_Config>
  /* USER CODE BEGIN SysInit */

  /* USER CODE END SysInit */

  /* Initialize all configured peripherals */
  MX_GPIO_Init();
 8001520:	f000 fb8e 	bl	8001c40 <MX_GPIO_Init>
  MX_DMA_Init();
 8001524:	f000 fb64 	bl	8001bf0 <MX_DMA_Init>
  MX_ADC1_Init();
 8001528:	f000 f88c 	bl	8001644 <MX_ADC1_Init>
  MX_USART1_UART_Init();
 800152c:	f000 fa38 	bl	80019a0 <MX_USART1_UART_Init>
  MX_USART2_UART_Init();
 8001530:	f000 fa9e 	bl	8001a70 <MX_USART2_UART_Init>
  MX_USART3_UART_Init();
 8001534:	f000 faf4 	bl	8001b20 <MX_USART3_UART_Init>
  MX_TIM6_Init();
 8001538:	f000 fa08 	bl	800194c <MX_TIM6_Init>
  MX_TIM2_Init();
 800153c:	f000 f96a 	bl	8001814 <MX_TIM2_Init>
  /* USER CODE BEGIN 2 */

  // Enable UART Interupts
  LL_USART_EnableIT_RXNE(USART1);
 8001540:	4817      	ldr	r0, [pc, #92]	@ (80015a0 <main+0xbc>)
 8001542:	f7ff febe 	bl	80012c2 <LL_USART_EnableIT_RXNE>
  LL_USART_EnableIT_RXNE(USART3);
 8001546:	4817      	ldr	r0, [pc, #92]	@ (80015a4 <main+0xc0>)
 8001548:	f7ff febb 	bl	80012c2 <LL_USART_EnableIT_RXNE>

  // Enable EXTI Fault GPIO Interrupts
  LL_EXTI_EnableIT_0_31(LL_EXTI_LINE_12);
 800154c:	f44f 5080 	mov.w	r0, #4096	@ 0x1000
 8001550:	f7ff fd82 	bl	8001058 <LL_EXTI_EnableIT_0_31>
  LL_EXTI_EnableIT_0_31(LL_EXTI_LINE_13);
 8001554:	f44f 5000 	mov.w	r0, #8192	@ 0x2000
 8001558:	f7ff fd7e 	bl	8001058 <LL_EXTI_EnableIT_0_31>

  // Enable DMA Interrupt
  LL_DMA_EnableIT_TC(DMA1, LL_DMA_CHANNEL_5);
 800155c:	2105      	movs	r1, #5
 800155e:	4812      	ldr	r0, [pc, #72]	@ (80015a8 <main+0xc4>)
 8001560:	f7ff fc1a 	bl	8000d98 <LL_DMA_EnableIT_TC>

  LL_TIM_EnableCounter(TIM6);
 8001564:	4811      	ldr	r0, [pc, #68]	@ (80015ac <main+0xc8>)
 8001566:	f7ff fd89 	bl	800107c <LL_TIM_EnableCounter>

  OscilloscopeInit();
 800156a:	f002 f807 	bl	800357c <OscilloscopeInit>

  // Reset all Muxes
  LL_GPIO_SetOutputPin(RST_GPIO, RST_PIN);
 800156e:	4910      	ldr	r1, [pc, #64]	@ (80015b0 <main+0xcc>)
 8001570:	4810      	ldr	r0, [pc, #64]	@ (80015b4 <main+0xd0>)
 8001572:	f7ff ff08 	bl	8001386 <LL_GPIO_SetOutputPin>
  LL_mDelay(20);
 8001576:	2014      	movs	r0, #20
 8001578:	f003 fbfa 	bl	8004d70 <LL_mDelay>
  LL_GPIO_ResetOutputPin(RST_GPIO, RST_PIN);
 800157c:	490c      	ldr	r1, [pc, #48]	@ (80015b0 <main+0xcc>)
 800157e:	480d      	ldr	r0, [pc, #52]	@ (80015b4 <main+0xd0>)
 8001580:	f7ff ff10 	bl	80013a4 <LL_GPIO_ResetOutputPin>
  LL_mDelay(20);
 8001584:	2014      	movs	r0, #20
 8001586:	f003 fbf3 	bl	8004d70 <LL_mDelay>

  // Enable Protection
  LL_GPIO_SetOutputPin(PROTECTION_GPIO, PROTECTION_PIN);
 800158a:	490b      	ldr	r1, [pc, #44]	@ (80015b8 <main+0xd4>)
 800158c:	480b      	ldr	r0, [pc, #44]	@ (80015bc <main+0xd8>)
 800158e:	f7ff fefa 	bl	8001386 <LL_GPIO_SetOutputPin>
	  {
    /* USER CODE END WHILE */

    /* USER CODE BEGIN 3 */

		  sendSignalData();
 8001592:	f002 f9c9 	bl	8003928 <sendSignalData>
		  FAULT_CheckAndReport();  // Only sends UART if a fault was detected
 8001596:	f7fe fe75 	bl	8000284 <FAULT_CheckAndReport>
		  sendSignalData();
 800159a:	bf00      	nop
 800159c:	e7f9      	b.n	8001592 <main+0xae>
 800159e:	bf00      	nop
 80015a0:	40013800 	.word	0x40013800
 80015a4:	40004800 	.word	0x40004800
 80015a8:	40020000 	.word	0x40020000
 80015ac:	40001000 	.word	0x40001000
 80015b0:	04020002 	.word	0x04020002
 80015b4:	40010c00 	.word	0x40010c00
 80015b8:	04080008 	.word	0x04080008
 80015bc:	40011800 	.word	0x40011800

080015c0 <SystemClock_Config>:
/**
  * @brief System Clock Configuration
  * @retval None
  */
void SystemClock_Config(void)
{
 80015c0:	b580      	push	{r7, lr}
 80015c2:	af00      	add	r7, sp, #0
  LL_FLASH_SetLatency(LL_FLASH_LATENCY_2);
 80015c4:	2002      	movs	r0, #2
 80015c6:	f7ff fd27 	bl	8001018 <LL_FLASH_SetLatency>
  while(LL_FLASH_GetLatency()!= LL_FLASH_LATENCY_2)
 80015ca:	bf00      	nop
 80015cc:	f7ff fd38 	bl	8001040 <LL_FLASH_GetLatency>
 80015d0:	4603      	mov	r3, r0
 80015d2:	2b02      	cmp	r3, #2
 80015d4:	d1fa      	bne.n	80015cc <SystemClock_Config+0xc>
  {
  }
  LL_RCC_HSE_Enable();
 80015d6:	f7ff fbfd 	bl	8000dd4 <LL_RCC_HSE_Enable>

   /* Wait till HSE is ready */
  while(LL_RCC_HSE_IsReady() != 1)
 80015da:	bf00      	nop
 80015dc:	f7ff fc08 	bl	8000df0 <LL_RCC_HSE_IsReady>
 80015e0:	4603      	mov	r3, r0
 80015e2:	2b01      	cmp	r3, #1
 80015e4:	d1fa      	bne.n	80015dc <SystemClock_Config+0x1c>
  {

  }
  LL_RCC_PLL_ConfigDomain_SYS(LL_RCC_PLLSOURCE_HSE_DIV_1, LL_RCC_PLL_MUL_9);
 80015e6:	f44f 11e0 	mov.w	r1, #1835008	@ 0x1c0000
 80015ea:	f44f 3080 	mov.w	r0, #65536	@ 0x10000
 80015ee:	f7ff fca1 	bl	8000f34 <LL_RCC_PLL_ConfigDomain_SYS>
  LL_RCC_PLL_Enable();
 80015f2:	f7ff fc7f 	bl	8000ef4 <LL_RCC_PLL_Enable>

   /* Wait till PLL is ready */
  while(LL_RCC_PLL_IsReady() != 1)
 80015f6:	bf00      	nop
 80015f8:	f7ff fc8a 	bl	8000f10 <LL_RCC_PLL_IsReady>
 80015fc:	4603      	mov	r3, r0
 80015fe:	2b01      	cmp	r3, #1
 8001600:	d1fa      	bne.n	80015f8 <SystemClock_Config+0x38>
  {

  }
  LL_RCC_SetAHBPrescaler(LL_RCC_SYSCLK_DIV_1);
 8001602:	2000      	movs	r0, #0
 8001604:	f7ff fc26 	bl	8000e54 <LL_RCC_SetAHBPrescaler>
  LL_RCC_SetAPB1Prescaler(LL_RCC_APB1_DIV_2);
 8001608:	f44f 6080 	mov.w	r0, #1024	@ 0x400
 800160c:	f7ff fc36 	bl	8000e7c <LL_RCC_SetAPB1Prescaler>
  LL_RCC_SetAPB2Prescaler(LL_RCC_APB2_DIV_1);
 8001610:	2000      	movs	r0, #0
 8001612:	f7ff fc47 	bl	8000ea4 <LL_RCC_SetAPB2Prescaler>
  LL_RCC_SetSysClkSource(LL_RCC_SYS_CLKSOURCE_PLL);
 8001616:	2002      	movs	r0, #2
 8001618:	f7ff fbfc 	bl	8000e14 <LL_RCC_SetSysClkSource>

   /* Wait till System clock is ready */
  while(LL_RCC_GetSysClkSource() != LL_RCC_SYS_CLKSOURCE_STATUS_PLL)
 800161c:	bf00      	nop
 800161e:	f7ff fc0d 	bl	8000e3c <LL_RCC_GetSysClkSource>
 8001622:	4603      	mov	r3, r0
 8001624:	2b08      	cmp	r3, #8
 8001626:	d1fa      	bne.n	800161e <SystemClock_Config+0x5e>
  {

  }
  LL_Init1msTick(72000000);
 8001628:	4805      	ldr	r0, [pc, #20]	@ (8001640 <SystemClock_Config+0x80>)
 800162a:	f003 fb93 	bl	8004d54 <LL_Init1msTick>
  LL_SetSystemCoreClock(72000000);
 800162e:	4804      	ldr	r0, [pc, #16]	@ (8001640 <SystemClock_Config+0x80>)
 8001630:	f003 fbc2 	bl	8004db8 <LL_SetSystemCoreClock>
  LL_RCC_SetADCClockSource(LL_RCC_ADC_CLKSRC_PCLK2_DIV_6);
 8001634:	f44f 4000 	mov.w	r0, #32768	@ 0x8000
 8001638:	f7ff fc48 	bl	8000ecc <LL_RCC_SetADCClockSource>
}
 800163c:	bf00      	nop
 800163e:	bd80      	pop	{r7, pc}
 8001640:	044aa200 	.word	0x044aa200

08001644 <MX_ADC1_Init>:
  * @brief ADC1 Initialization Function
  * @param None
  * @retval None
  */
static void MX_ADC1_Init(void)
{
 8001644:	b580      	push	{r7, lr}
 8001646:	b08e      	sub	sp, #56	@ 0x38
 8001648:	af00      	add	r7, sp, #0

  /* USER CODE BEGIN ADC1_Init 0 */

  /* USER CODE END ADC1_Init 0 */

  LL_ADC_InitTypeDef ADC_InitStruct = {0};
 800164a:	f107 0330 	add.w	r3, r7, #48	@ 0x30
 800164e:	2200      	movs	r2, #0
 8001650:	601a      	str	r2, [r3, #0]
 8001652:	605a      	str	r2, [r3, #4]
  LL_ADC_CommonInitTypeDef ADC_CommonInitStruct = {0};
 8001654:	2300      	movs	r3, #0
 8001656:	62fb      	str	r3, [r7, #44]	@ 0x2c
  LL_ADC_REG_InitTypeDef ADC_REG_InitStruct = {0};
 8001658:	f107 0318 	add.w	r3, r7, #24
 800165c:	2200      	movs	r2, #0
 800165e:	601a      	str	r2, [r3, #0]
 8001660:	605a      	str	r2, [r3, #4]
 8001662:	609a      	str	r2, [r3, #8]
 8001664:	60da      	str	r2, [r3, #12]
 8001666:	611a      	str	r2, [r3, #16]

  LL_GPIO_InitTypeDef GPIO_InitStruct = {0};
 8001668:	1d3b      	adds	r3, r7, #4
 800166a:	2200      	movs	r2, #0
 800166c:	601a      	str	r2, [r3, #0]
 800166e:	605a      	str	r2, [r3, #4]
 8001670:	609a      	str	r2, [r3, #8]
 8001672:	60da      	str	r2, [r3, #12]
 8001674:	611a      	str	r2, [r3, #16]

  /* Peripheral clock enable */
  LL_APB2_GRP1_EnableClock(LL_APB2_GRP1_PERIPH_ADC1);
 8001676:	f44f 7000 	mov.w	r0, #512	@ 0x200
 800167a:	f7ff fcb5 	bl	8000fe8 <LL_APB2_GRP1_EnableClock>

  LL_APB2_GRP1_EnableClock(LL_APB2_GRP1_PERIPH_GPIOA);
 800167e:	2004      	movs	r0, #4
 8001680:	f7ff fcb2 	bl	8000fe8 <LL_APB2_GRP1_EnableClock>
  PA4   ------> ADC1_IN4
  PA5   ------> ADC1_IN5
  PA6   ------> ADC1_IN6
  PA7   ------> ADC1_IN7
  */
  GPIO_InitStruct.Pin = LL_GPIO_PIN_0|LL_GPIO_PIN_1|LL_GPIO_PIN_2|LL_GPIO_PIN_3
 8001684:	f64f 73ff 	movw	r3, #65535	@ 0xffff
 8001688:	607b      	str	r3, [r7, #4]
                          |LL_GPIO_PIN_4|LL_GPIO_PIN_5|LL_GPIO_PIN_6|LL_GPIO_PIN_7;
  GPIO_InitStruct.Mode = LL_GPIO_MODE_ANALOG;
 800168a:	2300      	movs	r3, #0
 800168c:	60bb      	str	r3, [r7, #8]
  LL_GPIO_Init(GPIOA, &GPIO_InitStruct);
 800168e:	1d3b      	adds	r3, r7, #4
 8001690:	4619      	mov	r1, r3
 8001692:	4856      	ldr	r0, [pc, #344]	@ (80017ec <MX_ADC1_Init+0x1a8>)
 8001694:	f002 fdc7 	bl	8004226 <LL_GPIO_Init>

  /* ADC1 DMA Init */

  /* ADC1 Init */
  LL_DMA_SetDataTransferDirection(DMA1, LL_DMA_CHANNEL_1, LL_DMA_DIRECTION_PERIPH_TO_MEMORY);
 8001698:	2200      	movs	r2, #0
 800169a:	2101      	movs	r1, #1
 800169c:	4854      	ldr	r0, [pc, #336]	@ (80017f0 <MX_ADC1_Init+0x1ac>)
 800169e:	f7ff fa8b 	bl	8000bb8 <LL_DMA_SetDataTransferDirection>

  LL_DMA_SetChannelPriorityLevel(DMA1, LL_DMA_CHANNEL_1, LL_DMA_PRIORITY_HIGH);
 80016a2:	f44f 5200 	mov.w	r2, #8192	@ 0x2000
 80016a6:	2101      	movs	r1, #1
 80016a8:	4851      	ldr	r0, [pc, #324]	@ (80017f0 <MX_ADC1_Init+0x1ac>)
 80016aa:	f7ff fb53 	bl	8000d54 <LL_DMA_SetChannelPriorityLevel>

  LL_DMA_SetMode(DMA1, LL_DMA_CHANNEL_1, LL_DMA_MODE_CIRCULAR);
 80016ae:	2220      	movs	r2, #32
 80016b0:	2101      	movs	r1, #1
 80016b2:	484f      	ldr	r0, [pc, #316]	@ (80017f0 <MX_ADC1_Init+0x1ac>)
 80016b4:	f7ff faa4 	bl	8000c00 <LL_DMA_SetMode>

  LL_DMA_SetPeriphIncMode(DMA1, LL_DMA_CHANNEL_1, LL_DMA_PERIPH_NOINCREMENT);
 80016b8:	2200      	movs	r2, #0
 80016ba:	2101      	movs	r1, #1
 80016bc:	484c      	ldr	r0, [pc, #304]	@ (80017f0 <MX_ADC1_Init+0x1ac>)
 80016be:	f7ff fac1 	bl	8000c44 <LL_DMA_SetPeriphIncMode>

  LL_DMA_SetMemoryIncMode(DMA1, LL_DMA_CHANNEL_1, LL_DMA_MEMORY_INCREMENT);
 80016c2:	2280      	movs	r2, #128	@ 0x80
 80016c4:	2101      	movs	r1, #1
 80016c6:	484a      	ldr	r0, [pc, #296]	@ (80017f0 <MX_ADC1_Init+0x1ac>)
 80016c8:	f7ff fade 	bl	8000c88 <LL_DMA_SetMemoryIncMode>

  LL_DMA_SetPeriphSize(DMA1, LL_DMA_CHANNEL_1, LL_DMA_PDATAALIGN_HALFWORD);
 80016cc:	f44f 7280 	mov.w	r2, #256	@ 0x100
 80016d0:	2101      	movs	r1, #1
 80016d2:	4847      	ldr	r0, [pc, #284]	@ (80017f0 <MX_ADC1_Init+0x1ac>)
 80016d4:	f7ff fafa 	bl	8000ccc <LL_DMA_SetPeriphSize>

  LL_DMA_SetMemorySize(DMA1, LL_DMA_CHANNEL_1, LL_DMA_MDATAALIGN_HALFWORD);
 80016d8:	f44f 6280 	mov.w	r2, #1024	@ 0x400
 80016dc:	2101      	movs	r1, #1
 80016de:	4844      	ldr	r0, [pc, #272]	@ (80017f0 <MX_ADC1_Init+0x1ac>)
 80016e0:	f7ff fb16 	bl	8000d10 <LL_DMA_SetMemorySize>

  /* USER CODE END ADC1_Init 1 */

  /** Common config
  */
  ADC_InitStruct.DataAlignment = LL_ADC_DATA_ALIGN_RIGHT;
 80016e4:	2300      	movs	r3, #0
 80016e6:	633b      	str	r3, [r7, #48]	@ 0x30
  ADC_InitStruct.SequencersScanMode = LL_ADC_SEQ_SCAN_ENABLE;
 80016e8:	f44f 7380 	mov.w	r3, #256	@ 0x100
 80016ec:	637b      	str	r3, [r7, #52]	@ 0x34
  LL_ADC_Init(ADC1, &ADC_InitStruct);
 80016ee:	f107 0330 	add.w	r3, r7, #48	@ 0x30
 80016f2:	4619      	mov	r1, r3
 80016f4:	483f      	ldr	r0, [pc, #252]	@ (80017f4 <MX_ADC1_Init+0x1b0>)
 80016f6:	f002 fb61 	bl	8003dbc <LL_ADC_Init>
  ADC_CommonInitStruct.Multimode = LL_ADC_MULTI_INDEPENDENT;
 80016fa:	2300      	movs	r3, #0
 80016fc:	62fb      	str	r3, [r7, #44]	@ 0x2c
  LL_ADC_CommonInit(__LL_ADC_COMMON_INSTANCE(ADC1), &ADC_CommonInitStruct);
 80016fe:	f107 032c 	add.w	r3, r7, #44	@ 0x2c
 8001702:	4619      	mov	r1, r3
 8001704:	483b      	ldr	r0, [pc, #236]	@ (80017f4 <MX_ADC1_Init+0x1b0>)
 8001706:	f002 fb27 	bl	8003d58 <LL_ADC_CommonInit>
  ADC_REG_InitStruct.TriggerSource = LL_ADC_REG_TRIG_SOFTWARE;
 800170a:	f44f 2360 	mov.w	r3, #917504	@ 0xe0000
 800170e:	61bb      	str	r3, [r7, #24]
  ADC_REG_InitStruct.SequencerLength = LL_ADC_REG_SEQ_SCAN_ENABLE_8RANKS;
 8001710:	f44f 03e0 	mov.w	r3, #7340032	@ 0x700000
 8001714:	61fb      	str	r3, [r7, #28]
  ADC_REG_InitStruct.SequencerDiscont = LL_ADC_REG_SEQ_DISCONT_DISABLE;
 8001716:	2300      	movs	r3, #0
 8001718:	623b      	str	r3, [r7, #32]
  ADC_REG_InitStruct.ContinuousMode = LL_ADC_REG_CONV_CONTINUOUS;
 800171a:	2302      	movs	r3, #2
 800171c:	627b      	str	r3, [r7, #36]	@ 0x24
  ADC_REG_InitStruct.DMATransfer = LL_ADC_REG_DMA_TRANSFER_UNLIMITED;
 800171e:	f44f 7380 	mov.w	r3, #256	@ 0x100
 8001722:	62bb      	str	r3, [r7, #40]	@ 0x28
  LL_ADC_REG_Init(ADC1, &ADC_REG_InitStruct);
 8001724:	f107 0318 	add.w	r3, r7, #24
 8001728:	4619      	mov	r1, r3
 800172a:	4832      	ldr	r0, [pc, #200]	@ (80017f4 <MX_ADC1_Init+0x1b0>)
 800172c:	f002 fb6d 	bl	8003e0a <LL_ADC_REG_Init>

  /** Configure Regular Channel
  */
  LL_ADC_REG_SetSequencerRanks(ADC1, LL_ADC_REG_RANK_1, LL_ADC_CHANNEL_0);
 8001730:	f04f 7200 	mov.w	r2, #33554432	@ 0x2000000
 8001734:	f44f 7100 	mov.w	r1, #512	@ 0x200
 8001738:	482e      	ldr	r0, [pc, #184]	@ (80017f4 <MX_ADC1_Init+0x1b0>)
 800173a:	f7ff f9bd 	bl	8000ab8 <LL_ADC_REG_SetSequencerRanks>
  LL_ADC_SetChannelSamplingTime(ADC1, LL_ADC_CHANNEL_0, LL_ADC_SAMPLINGTIME_13CYCLES_5);
 800173e:	2202      	movs	r2, #2
 8001740:	f04f 7100 	mov.w	r1, #33554432	@ 0x2000000
 8001744:	482b      	ldr	r0, [pc, #172]	@ (80017f4 <MX_ADC1_Init+0x1b0>)
 8001746:	f7ff f9ec 	bl	8000b22 <LL_ADC_SetChannelSamplingTime>

  /** Configure Regular Channel
  */
  LL_ADC_REG_SetSequencerRanks(ADC1, LL_ADC_REG_RANK_2, LL_ADC_CHANNEL_1);
 800174a:	4a2b      	ldr	r2, [pc, #172]	@ (80017f8 <MX_ADC1_Init+0x1b4>)
 800174c:	f240 2105 	movw	r1, #517	@ 0x205
 8001750:	4828      	ldr	r0, [pc, #160]	@ (80017f4 <MX_ADC1_Init+0x1b0>)
 8001752:	f7ff f9b1 	bl	8000ab8 <LL_ADC_REG_SetSequencerRanks>
  LL_ADC_SetChannelSamplingTime(ADC1, LL_ADC_CHANNEL_1, LL_ADC_SAMPLINGTIME_13CYCLES_5);
 8001756:	2202      	movs	r2, #2
 8001758:	4927      	ldr	r1, [pc, #156]	@ (80017f8 <MX_ADC1_Init+0x1b4>)
 800175a:	4826      	ldr	r0, [pc, #152]	@ (80017f4 <MX_ADC1_Init+0x1b0>)
 800175c:	f7ff f9e1 	bl	8000b22 <LL_ADC_SetChannelSamplingTime>

  /** Configure Regular Channel
  */
  LL_ADC_REG_SetSequencerRanks(ADC1, LL_ADC_REG_RANK_3, LL_ADC_CHANNEL_2);
 8001760:	4a26      	ldr	r2, [pc, #152]	@ (80017fc <MX_ADC1_Init+0x1b8>)
 8001762:	f240 210a 	movw	r1, #522	@ 0x20a
 8001766:	4823      	ldr	r0, [pc, #140]	@ (80017f4 <MX_ADC1_Init+0x1b0>)
 8001768:	f7ff f9a6 	bl	8000ab8 <LL_ADC_REG_SetSequencerRanks>
  LL_ADC_SetChannelSamplingTime(ADC1, LL_ADC_CHANNEL_2, LL_ADC_SAMPLINGTIME_13CYCLES_5);
 800176c:	2202      	movs	r2, #2
 800176e:	4923      	ldr	r1, [pc, #140]	@ (80017fc <MX_ADC1_Init+0x1b8>)
 8001770:	4820      	ldr	r0, [pc, #128]	@ (80017f4 <MX_ADC1_Init+0x1b0>)
 8001772:	f7ff f9d6 	bl	8000b22 <LL_ADC_SetChannelSamplingTime>

  /** Configure Regular Channel
  */
  LL_ADC_REG_SetSequencerRanks(ADC1, LL_ADC_REG_RANK_4, LL_ADC_CHANNEL_3);
 8001776:	4a22      	ldr	r2, [pc, #136]	@ (8001800 <MX_ADC1_Init+0x1bc>)
 8001778:	f240 210f 	movw	r1, #527	@ 0x20f
 800177c:	481d      	ldr	r0, [pc, #116]	@ (80017f4 <MX_ADC1_Init+0x1b0>)
 800177e:	f7ff f99b 	bl	8000ab8 <LL_ADC_REG_SetSequencerRanks>
  LL_ADC_SetChannelSamplingTime(ADC1, LL_ADC_CHANNEL_3, LL_ADC_SAMPLINGTIME_13CYCLES_5);
 8001782:	2202      	movs	r2, #2
 8001784:	491e      	ldr	r1, [pc, #120]	@ (8001800 <MX_ADC1_Init+0x1bc>)
 8001786:	481b      	ldr	r0, [pc, #108]	@ (80017f4 <MX_ADC1_Init+0x1b0>)
 8001788:	f7ff f9cb 	bl	8000b22 <LL_ADC_SetChannelSamplingTime>

  /** Configure Regular Channel
  */
  LL_ADC_REG_SetSequencerRanks(ADC1, LL_ADC_REG_RANK_5, LL_ADC_CHANNEL_4);
 800178c:	4a1d      	ldr	r2, [pc, #116]	@ (8001804 <MX_ADC1_Init+0x1c0>)
 800178e:	f44f 7105 	mov.w	r1, #532	@ 0x214
 8001792:	4818      	ldr	r0, [pc, #96]	@ (80017f4 <MX_ADC1_Init+0x1b0>)
 8001794:	f7ff f990 	bl	8000ab8 <LL_ADC_REG_SetSequencerRanks>
  LL_ADC_SetChannelSamplingTime(ADC1, LL_ADC_CHANNEL_4, LL_ADC_SAMPLINGTIME_13CYCLES_5);
 8001798:	2202      	movs	r2, #2
 800179a:	491a      	ldr	r1, [pc, #104]	@ (8001804 <MX_ADC1_Init+0x1c0>)
 800179c:	4815      	ldr	r0, [pc, #84]	@ (80017f4 <MX_ADC1_Init+0x1b0>)
 800179e:	f7ff f9c0 	bl	8000b22 <LL_ADC_SetChannelSamplingTime>

  /** Configure Regular Channel
  */
  LL_ADC_REG_SetSequencerRanks(ADC1, LL_ADC_REG_RANK_6, LL_ADC_CHANNEL_5);
 80017a2:	4a19      	ldr	r2, [pc, #100]	@ (8001808 <MX_ADC1_Init+0x1c4>)
 80017a4:	f240 2119 	movw	r1, #537	@ 0x219
 80017a8:	4812      	ldr	r0, [pc, #72]	@ (80017f4 <MX_ADC1_Init+0x1b0>)
 80017aa:	f7ff f985 	bl	8000ab8 <LL_ADC_REG_SetSequencerRanks>
  LL_ADC_SetChannelSamplingTime(ADC1, LL_ADC_CHANNEL_5, LL_ADC_SAMPLINGTIME_13CYCLES_5);
 80017ae:	2202      	movs	r2, #2
 80017b0:	4915      	ldr	r1, [pc, #84]	@ (8001808 <MX_ADC1_Init+0x1c4>)
 80017b2:	4810      	ldr	r0, [pc, #64]	@ (80017f4 <MX_ADC1_Init+0x1b0>)
 80017b4:	f7ff f9b5 	bl	8000b22 <LL_ADC_SetChannelSamplingTime>

  /** Configure Regular Channel
  */
  LL_ADC_REG_SetSequencerRanks(ADC1, LL_ADC_REG_RANK_7, LL_ADC_CHANNEL_6);
 80017b8:	4a14      	ldr	r2, [pc, #80]	@ (800180c <MX_ADC1_Init+0x1c8>)
 80017ba:	f44f 7180 	mov.w	r1, #256	@ 0x100
 80017be:	480d      	ldr	r0, [pc, #52]	@ (80017f4 <MX_ADC1_Init+0x1b0>)
 80017c0:	f7ff f97a 	bl	8000ab8 <LL_ADC_REG_SetSequencerRanks>
  LL_ADC_SetChannelSamplingTime(ADC1, LL_ADC_CHANNEL_6, LL_ADC_SAMPLINGTIME_13CYCLES_5);
 80017c4:	2202      	movs	r2, #2
 80017c6:	4911      	ldr	r1, [pc, #68]	@ (800180c <MX_ADC1_Init+0x1c8>)
 80017c8:	480a      	ldr	r0, [pc, #40]	@ (80017f4 <MX_ADC1_Init+0x1b0>)
 80017ca:	f7ff f9aa 	bl	8000b22 <LL_ADC_SetChannelSamplingTime>

  /** Configure Regular Channel
  */
  LL_ADC_REG_SetSequencerRanks(ADC1, LL_ADC_REG_RANK_8, LL_ADC_CHANNEL_7);
 80017ce:	4a10      	ldr	r2, [pc, #64]	@ (8001810 <MX_ADC1_Init+0x1cc>)
 80017d0:	f240 1105 	movw	r1, #261	@ 0x105
 80017d4:	4807      	ldr	r0, [pc, #28]	@ (80017f4 <MX_ADC1_Init+0x1b0>)
 80017d6:	f7ff f96f 	bl	8000ab8 <LL_ADC_REG_SetSequencerRanks>
  LL_ADC_SetChannelSamplingTime(ADC1, LL_ADC_CHANNEL_7, LL_ADC_SAMPLINGTIME_13CYCLES_5);
 80017da:	2202      	movs	r2, #2
 80017dc:	490c      	ldr	r1, [pc, #48]	@ (8001810 <MX_ADC1_Init+0x1cc>)
 80017de:	4805      	ldr	r0, [pc, #20]	@ (80017f4 <MX_ADC1_Init+0x1b0>)
 80017e0:	f7ff f99f 	bl	8000b22 <LL_ADC_SetChannelSamplingTime>
  /* USER CODE BEGIN ADC1_Init 2 */

  /* USER CODE END ADC1_Init 2 */

}
 80017e4:	bf00      	nop
 80017e6:	3738      	adds	r7, #56	@ 0x38
 80017e8:	46bd      	mov	sp, r7
 80017ea:	bd80      	pop	{r7, pc}
 80017ec:	40010800 	.word	0x40010800
 80017f0:	40020000 	.word	0x40020000
 80017f4:	40012400 	.word	0x40012400
 80017f8:	02300001 	.word	0x02300001
 80017fc:	02600002 	.word	0x02600002
 8001800:	02900003 	.word	0x02900003
 8001804:	02c00004 	.word	0x02c00004
 8001808:	02f00005 	.word	0x02f00005
 800180c:	03200006 	.word	0x03200006
 8001810:	03500007 	.word	0x03500007

08001814 <MX_TIM2_Init>:
  * @brief TIM2 Initialization Function
  * @param None
  * @retval None
  */
static void MX_TIM2_Init(void)
{
 8001814:	b580      	push	{r7, lr}
 8001816:	b092      	sub	sp, #72	@ 0x48
 8001818:	af00      	add	r7, sp, #0

  /* USER CODE BEGIN TIM2_Init 0 */

  /* USER CODE END TIM2_Init 0 */

  LL_TIM_InitTypeDef TIM_InitStruct = {0};
 800181a:	f107 0334 	add.w	r3, r7, #52	@ 0x34
 800181e:	2200      	movs	r2, #0
 8001820:	601a      	str	r2, [r3, #0]
 8001822:	605a      	str	r2, [r3, #4]
 8001824:	609a      	str	r2, [r3, #8]
 8001826:	60da      	str	r2, [r3, #12]
 8001828:	611a      	str	r2, [r3, #16]
  LL_TIM_OC_InitTypeDef TIM_OC_InitStruct = {0};
 800182a:	f107 0314 	add.w	r3, r7, #20
 800182e:	2220      	movs	r2, #32
 8001830:	2100      	movs	r1, #0
 8001832:	4618      	mov	r0, r3
 8001834:	f003 fdfc 	bl	8005430 <memset>

  LL_GPIO_InitTypeDef GPIO_InitStruct = {0};
 8001838:	463b      	mov	r3, r7
 800183a:	2200      	movs	r2, #0
 800183c:	601a      	str	r2, [r3, #0]
 800183e:	605a      	str	r2, [r3, #4]
 8001840:	609a      	str	r2, [r3, #8]
 8001842:	60da      	str	r2, [r3, #12]
 8001844:	611a      	str	r2, [r3, #16]

  /* Peripheral clock enable */
  LL_APB1_GRP1_EnableClock(LL_APB1_GRP1_PERIPH_TIM2);
 8001846:	2001      	movs	r0, #1
 8001848:	f7ff fbb6 	bl	8000fb8 <LL_APB1_GRP1_EnableClock>

  /* TIM2 DMA Init */

  /* TIM2_CH1 Init */
  LL_DMA_SetDataTransferDirection(DMA1, LL_DMA_CHANNEL_5, LL_DMA_DIRECTION_MEMORY_TO_PERIPH);
 800184c:	2210      	movs	r2, #16
 800184e:	2105      	movs	r1, #5
 8001850:	483b      	ldr	r0, [pc, #236]	@ (8001940 <MX_TIM2_Init+0x12c>)
 8001852:	f7ff f9b1 	bl	8000bb8 <LL_DMA_SetDataTransferDirection>

  LL_DMA_SetChannelPriorityLevel(DMA1, LL_DMA_CHANNEL_5, LL_DMA_PRIORITY_VERYHIGH);
 8001856:	f44f 5240 	mov.w	r2, #12288	@ 0x3000
 800185a:	2105      	movs	r1, #5
 800185c:	4838      	ldr	r0, [pc, #224]	@ (8001940 <MX_TIM2_Init+0x12c>)
 800185e:	f7ff fa79 	bl	8000d54 <LL_DMA_SetChannelPriorityLevel>

  LL_DMA_SetMode(DMA1, LL_DMA_CHANNEL_5, LL_DMA_MODE_NORMAL);
 8001862:	2200      	movs	r2, #0
 8001864:	2105      	movs	r1, #5
 8001866:	4836      	ldr	r0, [pc, #216]	@ (8001940 <MX_TIM2_Init+0x12c>)
 8001868:	f7ff f9ca 	bl	8000c00 <LL_DMA_SetMode>

  LL_DMA_SetPeriphIncMode(DMA1, LL_DMA_CHANNEL_5, LL_DMA_PERIPH_NOINCREMENT);
 800186c:	2200      	movs	r2, #0
 800186e:	2105      	movs	r1, #5
 8001870:	4833      	ldr	r0, [pc, #204]	@ (8001940 <MX_TIM2_Init+0x12c>)
 8001872:	f7ff f9e7 	bl	8000c44 <LL_DMA_SetPeriphIncMode>

  LL_DMA_SetMemoryIncMode(DMA1, LL_DMA_CHANNEL_5, LL_DMA_MEMORY_INCREMENT);
 8001876:	2280      	movs	r2, #128	@ 0x80
 8001878:	2105      	movs	r1, #5
 800187a:	4831      	ldr	r0, [pc, #196]	@ (8001940 <MX_TIM2_Init+0x12c>)
 800187c:	f7ff fa04 	bl	8000c88 <LL_DMA_SetMemoryIncMode>

  LL_DMA_SetPeriphSize(DMA1, LL_DMA_CHANNEL_5, LL_DMA_PDATAALIGN_WORD);
 8001880:	f44f 7200 	mov.w	r2, #512	@ 0x200
 8001884:	2105      	movs	r1, #5
 8001886:	482e      	ldr	r0, [pc, #184]	@ (8001940 <MX_TIM2_Init+0x12c>)
 8001888:	f7ff fa20 	bl	8000ccc <LL_DMA_SetPeriphSize>

  LL_DMA_SetMemorySize(DMA1, LL_DMA_CHANNEL_5, LL_DMA_MDATAALIGN_WORD);
 800188c:	f44f 6200 	mov.w	r2, #2048	@ 0x800
 8001890:	2105      	movs	r1, #5
 8001892:	482b      	ldr	r0, [pc, #172]	@ (8001940 <MX_TIM2_Init+0x12c>)
 8001894:	f7ff fa3c 	bl	8000d10 <LL_DMA_SetMemorySize>

  /* USER CODE BEGIN TIM2_Init 1 */

  /* USER CODE END TIM2_Init 1 */
  TIM_InitStruct.Prescaler = 0;
 8001898:	2300      	movs	r3, #0
 800189a:	86bb      	strh	r3, [r7, #52]	@ 0x34
  TIM_InitStruct.CounterMode = LL_TIM_COUNTERMODE_UP;
 800189c:	2300      	movs	r3, #0
 800189e:	63bb      	str	r3, [r7, #56]	@ 0x38
  TIM_InitStruct.Autoreload = 89;
 80018a0:	2359      	movs	r3, #89	@ 0x59
 80018a2:	63fb      	str	r3, [r7, #60]	@ 0x3c
  TIM_InitStruct.ClockDivision = LL_TIM_CLOCKDIVISION_DIV1;
 80018a4:	2300      	movs	r3, #0
 80018a6:	643b      	str	r3, [r7, #64]	@ 0x40
  LL_TIM_Init(TIM2, &TIM_InitStruct);
 80018a8:	f107 0334 	add.w	r3, r7, #52	@ 0x34
 80018ac:	4619      	mov	r1, r3
 80018ae:	f04f 4080 	mov.w	r0, #1073741824	@ 0x40000000
 80018b2:	f002 fef7 	bl	80046a4 <LL_TIM_Init>
  LL_TIM_DisableARRPreload(TIM2);
 80018b6:	f04f 4080 	mov.w	r0, #1073741824	@ 0x40000000
 80018ba:	f7ff fbee 	bl	800109a <LL_TIM_DisableARRPreload>
  LL_TIM_SetClockSource(TIM2, LL_TIM_CLOCKSOURCE_INTERNAL);
 80018be:	2100      	movs	r1, #0
 80018c0:	f04f 4080 	mov.w	r0, #1073741824	@ 0x40000000
 80018c4:	f7ff fc80 	bl	80011c8 <LL_TIM_SetClockSource>
  LL_TIM_OC_EnablePreload(TIM2, LL_TIM_CHANNEL_CH1);
 80018c8:	2101      	movs	r1, #1
 80018ca:	f04f 4080 	mov.w	r0, #1073741824	@ 0x40000000
 80018ce:	f7ff fc37 	bl	8001140 <LL_TIM_OC_EnablePreload>
  TIM_OC_InitStruct.OCMode = LL_TIM_OCMODE_PWM1;
 80018d2:	2360      	movs	r3, #96	@ 0x60
 80018d4:	617b      	str	r3, [r7, #20]
  TIM_OC_InitStruct.OCState = LL_TIM_OCSTATE_DISABLE;
 80018d6:	2300      	movs	r3, #0
 80018d8:	61bb      	str	r3, [r7, #24]
  TIM_OC_InitStruct.OCNState = LL_TIM_OCSTATE_DISABLE;
 80018da:	2300      	movs	r3, #0
 80018dc:	61fb      	str	r3, [r7, #28]
  TIM_OC_InitStruct.CompareValue = 0;
 80018de:	2300      	movs	r3, #0
 80018e0:	623b      	str	r3, [r7, #32]
  TIM_OC_InitStruct.OCPolarity = LL_TIM_OCPOLARITY_HIGH;
 80018e2:	2300      	movs	r3, #0
 80018e4:	627b      	str	r3, [r7, #36]	@ 0x24
  LL_TIM_OC_Init(TIM2, LL_TIM_CHANNEL_CH1, &TIM_OC_InitStruct);
 80018e6:	f107 0314 	add.w	r3, r7, #20
 80018ea:	461a      	mov	r2, r3
 80018ec:	2101      	movs	r1, #1
 80018ee:	f04f 4080 	mov.w	r0, #1073741824	@ 0x40000000
 80018f2:	f002 ff3f 	bl	8004774 <LL_TIM_OC_Init>
  LL_TIM_OC_DisableFast(TIM2, LL_TIM_CHANNEL_CH1);
 80018f6:	2101      	movs	r1, #1
 80018f8:	f04f 4080 	mov.w	r0, #1073741824	@ 0x40000000
 80018fc:	f7ff fbdc 	bl	80010b8 <LL_TIM_OC_DisableFast>
  LL_TIM_SetTriggerOutput(TIM2, LL_TIM_TRGO_RESET);
 8001900:	2100      	movs	r1, #0
 8001902:	f04f 4080 	mov.w	r0, #1073741824	@ 0x40000000
 8001906:	f7ff fc73 	bl	80011f0 <LL_TIM_SetTriggerOutput>
  LL_TIM_DisableMasterSlaveMode(TIM2);
 800190a:	f04f 4080 	mov.w	r0, #1073741824	@ 0x40000000
 800190e:	f7ff fc81 	bl	8001214 <LL_TIM_DisableMasterSlaveMode>
  /* USER CODE BEGIN TIM2_Init 2 */

  /* USER CODE END TIM2_Init 2 */
  LL_APB2_GRP1_EnableClock(LL_APB2_GRP1_PERIPH_GPIOA);
 8001912:	2004      	movs	r0, #4
 8001914:	f7ff fb68 	bl	8000fe8 <LL_APB2_GRP1_EnableClock>
  /**TIM2 GPIO Configuration
  PA15   ------> TIM2_CH1
  */
  GPIO_InitStruct.Pin = LL_GPIO_PIN_15;
 8001918:	4b0a      	ldr	r3, [pc, #40]	@ (8001944 <MX_TIM2_Init+0x130>)
 800191a:	603b      	str	r3, [r7, #0]
  GPIO_InitStruct.Mode = LL_GPIO_MODE_ALTERNATE;
 800191c:	2309      	movs	r3, #9
 800191e:	607b      	str	r3, [r7, #4]
  GPIO_InitStruct.Speed = LL_GPIO_SPEED_FREQ_LOW;
 8001920:	2302      	movs	r3, #2
 8001922:	60bb      	str	r3, [r7, #8]
  GPIO_InitStruct.OutputType = LL_GPIO_OUTPUT_PUSHPULL;
 8001924:	2300      	movs	r3, #0
 8001926:	60fb      	str	r3, [r7, #12]
  LL_GPIO_Init(GPIOA, &GPIO_InitStruct);
 8001928:	463b      	mov	r3, r7
 800192a:	4619      	mov	r1, r3
 800192c:	4806      	ldr	r0, [pc, #24]	@ (8001948 <MX_TIM2_Init+0x134>)
 800192e:	f002 fc7a 	bl	8004226 <LL_GPIO_Init>

  LL_GPIO_AF_RemapPartial1_TIM2();
 8001932:	f7ff fd57 	bl	80013e4 <LL_GPIO_AF_RemapPartial1_TIM2>

}
 8001936:	bf00      	nop
 8001938:	3748      	adds	r7, #72	@ 0x48
 800193a:	46bd      	mov	sp, r7
 800193c:	bd80      	pop	{r7, pc}
 800193e:	bf00      	nop
 8001940:	40020000 	.word	0x40020000
 8001944:	04800080 	.word	0x04800080
 8001948:	40010800 	.word	0x40010800

0800194c <MX_TIM6_Init>:
  * @brief TIM6 Initialization Function
  * @param None
  * @retval None
  */
static void MX_TIM6_Init(void)
{
 800194c:	b580      	push	{r7, lr}
 800194e:	b086      	sub	sp, #24
 8001950:	af00      	add	r7, sp, #0

  /* USER CODE BEGIN TIM6_Init 0 */

  /* USER CODE END TIM6_Init 0 */

  LL_TIM_InitTypeDef TIM_InitStruct = {0};
 8001952:	1d3b      	adds	r3, r7, #4
 8001954:	2200      	movs	r2, #0
 8001956:	601a      	str	r2, [r3, #0]
 8001958:	605a      	str	r2, [r3, #4]
 800195a:	609a      	str	r2, [r3, #8]
 800195c:	60da      	str	r2, [r3, #12]
 800195e:	611a      	str	r2, [r3, #16]

  /* Peripheral clock enable */
  LL_APB1_GRP1_EnableClock(LL_APB1_GRP1_PERIPH_TIM6);
 8001960:	2010      	movs	r0, #16
 8001962:	f7ff fb29 	bl	8000fb8 <LL_APB1_GRP1_EnableClock>

  /* USER CODE BEGIN TIM6_Init 1 */

  /* USER CODE END TIM6_Init 1 */
  TIM_InitStruct.Prescaler = 72;
 8001966:	2348      	movs	r3, #72	@ 0x48
 8001968:	80bb      	strh	r3, [r7, #4]
  TIM_InitStruct.CounterMode = LL_TIM_COUNTERMODE_UP;
 800196a:	2300      	movs	r3, #0
 800196c:	60bb      	str	r3, [r7, #8]
  TIM_InitStruct.Autoreload = 65535;
 800196e:	f64f 73ff 	movw	r3, #65535	@ 0xffff
 8001972:	60fb      	str	r3, [r7, #12]
  LL_TIM_Init(TIM6, &TIM_InitStruct);
 8001974:	1d3b      	adds	r3, r7, #4
 8001976:	4619      	mov	r1, r3
 8001978:	4808      	ldr	r0, [pc, #32]	@ (800199c <MX_TIM6_Init+0x50>)
 800197a:	f002 fe93 	bl	80046a4 <LL_TIM_Init>
  LL_TIM_DisableARRPreload(TIM6);
 800197e:	4807      	ldr	r0, [pc, #28]	@ (800199c <MX_TIM6_Init+0x50>)
 8001980:	f7ff fb8b 	bl	800109a <LL_TIM_DisableARRPreload>
  LL_TIM_SetTriggerOutput(TIM6, LL_TIM_TRGO_RESET);
 8001984:	2100      	movs	r1, #0
 8001986:	4805      	ldr	r0, [pc, #20]	@ (800199c <MX_TIM6_Init+0x50>)
 8001988:	f7ff fc32 	bl	80011f0 <LL_TIM_SetTriggerOutput>
  LL_TIM_DisableMasterSlaveMode(TIM6);
 800198c:	4803      	ldr	r0, [pc, #12]	@ (800199c <MX_TIM6_Init+0x50>)
 800198e:	f7ff fc41 	bl	8001214 <LL_TIM_DisableMasterSlaveMode>
  /* USER CODE BEGIN TIM6_Init 2 */

  /* USER CODE END TIM6_Init 2 */

}
 8001992:	bf00      	nop
 8001994:	3718      	adds	r7, #24
 8001996:	46bd      	mov	sp, r7
 8001998:	bd80      	pop	{r7, pc}
 800199a:	bf00      	nop
 800199c:	40001000 	.word	0x40001000

080019a0 <MX_USART1_UART_Init>:
  * @brief USART1 Initialization Function
  * @param None
  * @retval None
  */
static void MX_USART1_UART_Init(void)
{
 80019a0:	b580      	push	{r7, lr}
 80019a2:	b08c      	sub	sp, #48	@ 0x30
 80019a4:	af00      	add	r7, sp, #0

  /* USER CODE BEGIN USART1_Init 0 */

  /* USER CODE END USART1_Init 0 */

  LL_USART_InitTypeDef USART_InitStruct = {0};
 80019a6:	f107 0314 	add.w	r3, r7, #20
 80019aa:	2200      	movs	r2, #0
 80019ac:	601a      	str	r2, [r3, #0]
 80019ae:	605a      	str	r2, [r3, #4]
 80019b0:	609a      	str	r2, [r3, #8]
 80019b2:	60da      	str	r2, [r3, #12]
 80019b4:	611a      	str	r2, [r3, #16]
 80019b6:	615a      	str	r2, [r3, #20]
 80019b8:	619a      	str	r2, [r3, #24]

  LL_GPIO_InitTypeDef GPIO_InitStruct = {0};
 80019ba:	463b      	mov	r3, r7
 80019bc:	2200      	movs	r2, #0
 80019be:	601a      	str	r2, [r3, #0]
 80019c0:	605a      	str	r2, [r3, #4]
 80019c2:	609a      	str	r2, [r3, #8]
 80019c4:	60da      	str	r2, [r3, #12]
 80019c6:	611a      	str	r2, [r3, #16]

  /* Peripheral clock enable */
  LL_APB2_GRP1_EnableClock(LL_APB2_GRP1_PERIPH_USART1);
 80019c8:	f44f 4080 	mov.w	r0, #16384	@ 0x4000
 80019cc:	f7ff fb0c 	bl	8000fe8 <LL_APB2_GRP1_EnableClock>

  LL_APB2_GRP1_EnableClock(LL_APB2_GRP1_PERIPH_GPIOA);
 80019d0:	2004      	movs	r0, #4
 80019d2:	f7ff fb09 	bl	8000fe8 <LL_APB2_GRP1_EnableClock>
  /**USART1 GPIO Configuration
  PA9   ------> USART1_TX
  PA10   ------> USART1_RX
  */
  GPIO_InitStruct.Pin = LL_GPIO_PIN_9;
 80019d6:	4b22      	ldr	r3, [pc, #136]	@ (8001a60 <MX_USART1_UART_Init+0xc0>)
 80019d8:	603b      	str	r3, [r7, #0]
  GPIO_InitStruct.Mode = LL_GPIO_MODE_ALTERNATE;
 80019da:	2309      	movs	r3, #9
 80019dc:	607b      	str	r3, [r7, #4]
  GPIO_InitStruct.Speed = LL_GPIO_SPEED_FREQ_HIGH;
 80019de:	2303      	movs	r3, #3
 80019e0:	60bb      	str	r3, [r7, #8]
  GPIO_InitStruct.OutputType = LL_GPIO_OUTPUT_PUSHPULL;
 80019e2:	2300      	movs	r3, #0
 80019e4:	60fb      	str	r3, [r7, #12]
  LL_GPIO_Init(GPIOA, &GPIO_InitStruct);
 80019e6:	463b      	mov	r3, r7
 80019e8:	4619      	mov	r1, r3
 80019ea:	481e      	ldr	r0, [pc, #120]	@ (8001a64 <MX_USART1_UART_Init+0xc4>)
 80019ec:	f002 fc1b 	bl	8004226 <LL_GPIO_Init>

  GPIO_InitStruct.Pin = LL_GPIO_PIN_10;
 80019f0:	4b1d      	ldr	r3, [pc, #116]	@ (8001a68 <MX_USART1_UART_Init+0xc8>)
 80019f2:	603b      	str	r3, [r7, #0]
  GPIO_InitStruct.Mode = LL_GPIO_MODE_FLOATING;
 80019f4:	2304      	movs	r3, #4
 80019f6:	607b      	str	r3, [r7, #4]
  LL_GPIO_Init(GPIOA, &GPIO_InitStruct);
 80019f8:	463b      	mov	r3, r7
 80019fa:	4619      	mov	r1, r3
 80019fc:	4819      	ldr	r0, [pc, #100]	@ (8001a64 <MX_USART1_UART_Init+0xc4>)
 80019fe:	f002 fc12 	bl	8004226 <LL_GPIO_Init>

  /* USART1 interrupt Init */
  NVIC_SetPriority(USART1_IRQn, NVIC_EncodePriority(NVIC_GetPriorityGrouping(),0, 0));
 8001a02:	f7fe ffd3 	bl	80009ac <__NVIC_GetPriorityGrouping>
 8001a06:	4603      	mov	r3, r0
 8001a08:	2200      	movs	r2, #0
 8001a0a:	2100      	movs	r1, #0
 8001a0c:	4618      	mov	r0, r3
 8001a0e:	f7ff f821 	bl	8000a54 <NVIC_EncodePriority>
 8001a12:	4603      	mov	r3, r0
 8001a14:	4619      	mov	r1, r3
 8001a16:	2025      	movs	r0, #37	@ 0x25
 8001a18:	f7fe fff2 	bl	8000a00 <__NVIC_SetPriority>
  NVIC_EnableIRQ(USART1_IRQn);
 8001a1c:	2025      	movs	r0, #37	@ 0x25
 8001a1e:	f7fe ffd3 	bl	80009c8 <__NVIC_EnableIRQ>

  /* USER CODE BEGIN USART1_Init 1 */

  /* USER CODE END USART1_Init 1 */
  USART_InitStruct.BaudRate = 921600;
 8001a22:	f44f 2361 	mov.w	r3, #921600	@ 0xe1000
 8001a26:	617b      	str	r3, [r7, #20]
  USART_InitStruct.DataWidth = LL_USART_DATAWIDTH_8B;
 8001a28:	2300      	movs	r3, #0
 8001a2a:	61bb      	str	r3, [r7, #24]
  USART_InitStruct.StopBits = LL_USART_STOPBITS_1;
 8001a2c:	2300      	movs	r3, #0
 8001a2e:	61fb      	str	r3, [r7, #28]
  USART_InitStruct.Parity = LL_USART_PARITY_NONE;
 8001a30:	2300      	movs	r3, #0
 8001a32:	623b      	str	r3, [r7, #32]
  USART_InitStruct.TransferDirection = LL_USART_DIRECTION_TX_RX;
 8001a34:	230c      	movs	r3, #12
 8001a36:	627b      	str	r3, [r7, #36]	@ 0x24
  USART_InitStruct.HardwareFlowControl = LL_USART_HWCONTROL_NONE;
 8001a38:	2300      	movs	r3, #0
 8001a3a:	62bb      	str	r3, [r7, #40]	@ 0x28
  USART_InitStruct.OverSampling = LL_USART_OVERSAMPLING_16;
 8001a3c:	2300      	movs	r3, #0
 8001a3e:	62fb      	str	r3, [r7, #44]	@ 0x2c
  LL_USART_Init(USART1, &USART_InitStruct);
 8001a40:	f107 0314 	add.w	r3, r7, #20
 8001a44:	4619      	mov	r1, r3
 8001a46:	4809      	ldr	r0, [pc, #36]	@ (8001a6c <MX_USART1_UART_Init+0xcc>)
 8001a48:	f003 f8f8 	bl	8004c3c <LL_USART_Init>
  LL_USART_ConfigAsyncMode(USART1);
 8001a4c:	4807      	ldr	r0, [pc, #28]	@ (8001a6c <MX_USART1_UART_Init+0xcc>)
 8001a4e:	f7ff fbff 	bl	8001250 <LL_USART_ConfigAsyncMode>
  LL_USART_Enable(USART1);
 8001a52:	4806      	ldr	r0, [pc, #24]	@ (8001a6c <MX_USART1_UART_Init+0xcc>)
 8001a54:	f7ff fbed 	bl	8001232 <LL_USART_Enable>
  /* USER CODE BEGIN USART1_Init 2 */

  /* USER CODE END USART1_Init 2 */

}
 8001a58:	bf00      	nop
 8001a5a:	3730      	adds	r7, #48	@ 0x30
 8001a5c:	46bd      	mov	sp, r7
 8001a5e:	bd80      	pop	{r7, pc}
 8001a60:	04020002 	.word	0x04020002
 8001a64:	40010800 	.word	0x40010800
 8001a68:	04040004 	.word	0x04040004
 8001a6c:	40013800 	.word	0x40013800

08001a70 <MX_USART2_UART_Init>:
  * @brief USART2 Initialization Function
  * @param None
  * @retval None
  */
static void MX_USART2_UART_Init(void)
{
 8001a70:	b580      	push	{r7, lr}
 8001a72:	b08c      	sub	sp, #48	@ 0x30
 8001a74:	af00      	add	r7, sp, #0

  /* USER CODE BEGIN USART2_Init 0 */

  /* USER CODE END USART2_Init 0 */

  LL_USART_InitTypeDef USART_InitStruct = {0};
 8001a76:	f107 0314 	add.w	r3, r7, #20
 8001a7a:	2200      	movs	r2, #0
 8001a7c:	601a      	str	r2, [r3, #0]
 8001a7e:	605a      	str	r2, [r3, #4]
 8001a80:	609a      	str	r2, [r3, #8]
 8001a82:	60da      	str	r2, [r3, #12]
 8001a84:	611a      	str	r2, [r3, #16]
 8001a86:	615a      	str	r2, [r3, #20]
 8001a88:	619a      	str	r2, [r3, #24]

  LL_GPIO_InitTypeDef GPIO_InitStruct = {0};
 8001a8a:	463b      	mov	r3, r7
 8001a8c:	2200      	movs	r2, #0
 8001a8e:	601a      	str	r2, [r3, #0]
 8001a90:	605a      	str	r2, [r3, #4]
 8001a92:	609a      	str	r2, [r3, #8]
 8001a94:	60da      	str	r2, [r3, #12]
 8001a96:	611a      	str	r2, [r3, #16]

  /* Peripheral clock enable */
  LL_APB1_GRP1_EnableClock(LL_APB1_GRP1_PERIPH_USART2);
 8001a98:	f44f 3000 	mov.w	r0, #131072	@ 0x20000
 8001a9c:	f7ff fa8c 	bl	8000fb8 <LL_APB1_GRP1_EnableClock>

  LL_APB2_GRP1_EnableClock(LL_APB2_GRP1_PERIPH_GPIOD);
 8001aa0:	2020      	movs	r0, #32
 8001aa2:	f7ff faa1 	bl	8000fe8 <LL_APB2_GRP1_EnableClock>
  /**USART2 GPIO Configuration
  PD5   ------> USART2_TX
  PD6   ------> USART2_RX
  */
  GPIO_InitStruct.Pin = LL_GPIO_PIN_5;
 8001aa6:	f242 0320 	movw	r3, #8224	@ 0x2020
 8001aaa:	603b      	str	r3, [r7, #0]
  GPIO_InitStruct.Mode = LL_GPIO_MODE_ALTERNATE;
 8001aac:	2309      	movs	r3, #9
 8001aae:	607b      	str	r3, [r7, #4]
  GPIO_InitStruct.Speed = LL_GPIO_SPEED_FREQ_HIGH;
 8001ab0:	2303      	movs	r3, #3
 8001ab2:	60bb      	str	r3, [r7, #8]
  GPIO_InitStruct.OutputType = LL_GPIO_OUTPUT_PUSHPULL;
 8001ab4:	2300      	movs	r3, #0
 8001ab6:	60fb      	str	r3, [r7, #12]
  LL_GPIO_Init(GPIOD, &GPIO_InitStruct);
 8001ab8:	463b      	mov	r3, r7
 8001aba:	4619      	mov	r1, r3
 8001abc:	4816      	ldr	r0, [pc, #88]	@ (8001b18 <MX_USART2_UART_Init+0xa8>)
 8001abe:	f002 fbb2 	bl	8004226 <LL_GPIO_Init>

  GPIO_InitStruct.Pin = LL_GPIO_PIN_6;
 8001ac2:	f244 0340 	movw	r3, #16448	@ 0x4040
 8001ac6:	603b      	str	r3, [r7, #0]
  GPIO_InitStruct.Mode = LL_GPIO_MODE_FLOATING;
 8001ac8:	2304      	movs	r3, #4
 8001aca:	607b      	str	r3, [r7, #4]
  LL_GPIO_Init(GPIOD, &GPIO_InitStruct);
 8001acc:	463b      	mov	r3, r7
 8001ace:	4619      	mov	r1, r3
 8001ad0:	4811      	ldr	r0, [pc, #68]	@ (8001b18 <MX_USART2_UART_Init+0xa8>)
 8001ad2:	f002 fba8 	bl	8004226 <LL_GPIO_Init>

  LL_GPIO_AF_EnableRemap_USART2();
 8001ad6:	f7ff fc75 	bl	80013c4 <LL_GPIO_AF_EnableRemap_USART2>

  /* USER CODE BEGIN USART2_Init 1 */

  /* USER CODE END USART2_Init 1 */
  USART_InitStruct.BaudRate = 115200 ;
 8001ada:	f44f 33e1 	mov.w	r3, #115200	@ 0x1c200
 8001ade:	617b      	str	r3, [r7, #20]
  USART_InitStruct.DataWidth = LL_USART_DATAWIDTH_8B;
 8001ae0:	2300      	movs	r3, #0
 8001ae2:	61bb      	str	r3, [r7, #24]
  USART_InitStruct.StopBits = LL_USART_STOPBITS_1;
 8001ae4:	2300      	movs	r3, #0
 8001ae6:	61fb      	str	r3, [r7, #28]
  USART_InitStruct.Parity = LL_USART_PARITY_NONE;
 8001ae8:	2300      	movs	r3, #0
 8001aea:	623b      	str	r3, [r7, #32]
  USART_InitStruct.TransferDirection = LL_USART_DIRECTION_TX_RX;
 8001aec:	230c      	movs	r3, #12
 8001aee:	627b      	str	r3, [r7, #36]	@ 0x24
  USART_InitStruct.HardwareFlowControl = LL_USART_HWCONTROL_NONE;
 8001af0:	2300      	movs	r3, #0
 8001af2:	62bb      	str	r3, [r7, #40]	@ 0x28
  USART_InitStruct.OverSampling = LL_USART_OVERSAMPLING_16;
 8001af4:	2300      	movs	r3, #0
 8001af6:	62fb      	str	r3, [r7, #44]	@ 0x2c
  LL_USART_Init(USART2, &USART_InitStruct);
 8001af8:	f107 0314 	add.w	r3, r7, #20
 8001afc:	4619      	mov	r1, r3
 8001afe:	4807      	ldr	r0, [pc, #28]	@ (8001b1c <MX_USART2_UART_Init+0xac>)
 8001b00:	f003 f89c 	bl	8004c3c <LL_USART_Init>
  LL_USART_ConfigAsyncMode(USART2);
 8001b04:	4805      	ldr	r0, [pc, #20]	@ (8001b1c <MX_USART2_UART_Init+0xac>)
 8001b06:	f7ff fba3 	bl	8001250 <LL_USART_ConfigAsyncMode>
  LL_USART_Enable(USART2);
 8001b0a:	4804      	ldr	r0, [pc, #16]	@ (8001b1c <MX_USART2_UART_Init+0xac>)
 8001b0c:	f7ff fb91 	bl	8001232 <LL_USART_Enable>
  /* USER CODE BEGIN USART2_Init 2 */

  /* USER CODE END USART2_Init 2 */

}
 8001b10:	bf00      	nop
 8001b12:	3730      	adds	r7, #48	@ 0x30
 8001b14:	46bd      	mov	sp, r7
 8001b16:	bd80      	pop	{r7, pc}
 8001b18:	40011400 	.word	0x40011400
 8001b1c:	40004400 	.word	0x40004400

08001b20 <MX_USART3_UART_Init>:
  * @brief USART3 Initialization Function
  * @param None
  * @retval None
  */
static void MX_USART3_UART_Init(void)
{
 8001b20:	b580      	push	{r7, lr}
 8001b22:	b08c      	sub	sp, #48	@ 0x30
 8001b24:	af00      	add	r7, sp, #0

  /* USER CODE BEGIN USART3_Init 0 */

  /* USER CODE END USART3_Init 0 */

  LL_USART_InitTypeDef USART_InitStruct = {0};
 8001b26:	f107 0314 	add.w	r3, r7, #20
 8001b2a:	2200      	movs	r2, #0
 8001b2c:	601a      	str	r2, [r3, #0]
 8001b2e:	605a      	str	r2, [r3, #4]
 8001b30:	609a      	str	r2, [r3, #8]
 8001b32:	60da      	str	r2, [r3, #12]
 8001b34:	611a      	str	r2, [r3, #16]
 8001b36:	615a      	str	r2, [r3, #20]
 8001b38:	619a      	str	r2, [r3, #24]

  LL_GPIO_InitTypeDef GPIO_InitStruct = {0};
 8001b3a:	463b      	mov	r3, r7
 8001b3c:	2200      	movs	r2, #0
 8001b3e:	601a      	str	r2, [r3, #0]
 8001b40:	605a      	str	r2, [r3, #4]
 8001b42:	609a      	str	r2, [r3, #8]
 8001b44:	60da      	str	r2, [r3, #12]
 8001b46:	611a      	str	r2, [r3, #16]

  /* Peripheral clock enable */
  LL_APB1_GRP1_EnableClock(LL_APB1_GRP1_PERIPH_USART3);
 8001b48:	f44f 2080 	mov.w	r0, #262144	@ 0x40000
 8001b4c:	f7ff fa34 	bl	8000fb8 <LL_APB1_GRP1_EnableClock>

  LL_APB2_GRP1_EnableClock(LL_APB2_GRP1_PERIPH_GPIOB);
 8001b50:	2008      	movs	r0, #8
 8001b52:	f7ff fa49 	bl	8000fe8 <LL_APB2_GRP1_EnableClock>
  /**USART3 GPIO Configuration
  PB10   ------> USART3_TX
  PB11   ------> USART3_RX
  */
  GPIO_InitStruct.Pin = LL_GPIO_PIN_10;
 8001b56:	4b22      	ldr	r3, [pc, #136]	@ (8001be0 <MX_USART3_UART_Init+0xc0>)
 8001b58:	603b      	str	r3, [r7, #0]
  GPIO_InitStruct.Mode = LL_GPIO_MODE_ALTERNATE;
 8001b5a:	2309      	movs	r3, #9
 8001b5c:	607b      	str	r3, [r7, #4]
  GPIO_InitStruct.Speed = LL_GPIO_SPEED_FREQ_HIGH;
 8001b5e:	2303      	movs	r3, #3
 8001b60:	60bb      	str	r3, [r7, #8]
  GPIO_InitStruct.OutputType = LL_GPIO_OUTPUT_PUSHPULL;
 8001b62:	2300      	movs	r3, #0
 8001b64:	60fb      	str	r3, [r7, #12]
  LL_GPIO_Init(GPIOB, &GPIO_InitStruct);
 8001b66:	463b      	mov	r3, r7
 8001b68:	4619      	mov	r1, r3
 8001b6a:	481e      	ldr	r0, [pc, #120]	@ (8001be4 <MX_USART3_UART_Init+0xc4>)
 8001b6c:	f002 fb5b 	bl	8004226 <LL_GPIO_Init>

  GPIO_InitStruct.Pin = LL_GPIO_PIN_11;
 8001b70:	4b1d      	ldr	r3, [pc, #116]	@ (8001be8 <MX_USART3_UART_Init+0xc8>)
 8001b72:	603b      	str	r3, [r7, #0]
  GPIO_InitStruct.Mode = LL_GPIO_MODE_FLOATING;
 8001b74:	2304      	movs	r3, #4
 8001b76:	607b      	str	r3, [r7, #4]
  LL_GPIO_Init(GPIOB, &GPIO_InitStruct);
 8001b78:	463b      	mov	r3, r7
 8001b7a:	4619      	mov	r1, r3
 8001b7c:	4819      	ldr	r0, [pc, #100]	@ (8001be4 <MX_USART3_UART_Init+0xc4>)
 8001b7e:	f002 fb52 	bl	8004226 <LL_GPIO_Init>

  /* USART3 interrupt Init */
  NVIC_SetPriority(USART3_IRQn, NVIC_EncodePriority(NVIC_GetPriorityGrouping(),0, 0));
 8001b82:	f7fe ff13 	bl	80009ac <__NVIC_GetPriorityGrouping>
 8001b86:	4603      	mov	r3, r0
 8001b88:	2200      	movs	r2, #0
 8001b8a:	2100      	movs	r1, #0
 8001b8c:	4618      	mov	r0, r3
 8001b8e:	f7fe ff61 	bl	8000a54 <NVIC_EncodePriority>
 8001b92:	4603      	mov	r3, r0
 8001b94:	4619      	mov	r1, r3
 8001b96:	2027      	movs	r0, #39	@ 0x27
 8001b98:	f7fe ff32 	bl	8000a00 <__NVIC_SetPriority>
  NVIC_EnableIRQ(USART3_IRQn);
 8001b9c:	2027      	movs	r0, #39	@ 0x27
 8001b9e:	f7fe ff13 	bl	80009c8 <__NVIC_EnableIRQ>

  /* USER CODE BEGIN USART3_Init 1 */

  /* USER CODE END USART3_Init 1 */
  USART_InitStruct.BaudRate = 921600;
 8001ba2:	f44f 2361 	mov.w	r3, #921600	@ 0xe1000
 8001ba6:	617b      	str	r3, [r7, #20]
  USART_InitStruct.DataWidth = LL_USART_DATAWIDTH_8B;
 8001ba8:	2300      	movs	r3, #0
 8001baa:	61bb      	str	r3, [r7, #24]
  USART_InitStruct.StopBits = LL_USART_STOPBITS_1;
 8001bac:	2300      	movs	r3, #0
 8001bae:	61fb      	str	r3, [r7, #28]
  USART_InitStruct.Parity = LL_USART_PARITY_NONE;
 8001bb0:	2300      	movs	r3, #0
 8001bb2:	623b      	str	r3, [r7, #32]
  USART_InitStruct.TransferDirection = LL_USART_DIRECTION_TX_RX;
 8001bb4:	230c      	movs	r3, #12
 8001bb6:	627b      	str	r3, [r7, #36]	@ 0x24
  USART_InitStruct.HardwareFlowControl = LL_USART_HWCONTROL_NONE;
 8001bb8:	2300      	movs	r3, #0
 8001bba:	62bb      	str	r3, [r7, #40]	@ 0x28
  USART_InitStruct.OverSampling = LL_USART_OVERSAMPLING_16;
 8001bbc:	2300      	movs	r3, #0
 8001bbe:	62fb      	str	r3, [r7, #44]	@ 0x2c
  LL_USART_Init(USART3, &USART_InitStruct);
 8001bc0:	f107 0314 	add.w	r3, r7, #20
 8001bc4:	4619      	mov	r1, r3
 8001bc6:	4809      	ldr	r0, [pc, #36]	@ (8001bec <MX_USART3_UART_Init+0xcc>)
 8001bc8:	f003 f838 	bl	8004c3c <LL_USART_Init>
  LL_USART_ConfigAsyncMode(USART3);
 8001bcc:	4807      	ldr	r0, [pc, #28]	@ (8001bec <MX_USART3_UART_Init+0xcc>)
 8001bce:	f7ff fb3f 	bl	8001250 <LL_USART_ConfigAsyncMode>
  LL_USART_Enable(USART3);
 8001bd2:	4806      	ldr	r0, [pc, #24]	@ (8001bec <MX_USART3_UART_Init+0xcc>)
 8001bd4:	f7ff fb2d 	bl	8001232 <LL_USART_Enable>
  /* USER CODE BEGIN USART3_Init 2 */

  /* USER CODE END USART3_Init 2 */

}
 8001bd8:	bf00      	nop
 8001bda:	3730      	adds	r7, #48	@ 0x30
 8001bdc:	46bd      	mov	sp, r7
 8001bde:	bd80      	pop	{r7, pc}
 8001be0:	04040004 	.word	0x04040004
 8001be4:	40010c00 	.word	0x40010c00
 8001be8:	04080008 	.word	0x04080008
 8001bec:	40004800 	.word	0x40004800

08001bf0 <MX_DMA_Init>:

/**
  * Enable DMA controller clock
  */
static void MX_DMA_Init(void)
{
 8001bf0:	b580      	push	{r7, lr}
 8001bf2:	af00      	add	r7, sp, #0

  /* Init with LL driver */
  /* DMA controller clock enable */
  LL_AHB1_GRP1_EnableClock(LL_AHB1_GRP1_PERIPH_DMA1);
 8001bf4:	2001      	movs	r0, #1
 8001bf6:	f7ff f9c7 	bl	8000f88 <LL_AHB1_GRP1_EnableClock>

  /* DMA interrupt init */
  /* DMA1_Channel1_IRQn interrupt configuration */
  NVIC_SetPriority(DMA1_Channel1_IRQn, NVIC_EncodePriority(NVIC_GetPriorityGrouping(),0, 0));
 8001bfa:	f7fe fed7 	bl	80009ac <__NVIC_GetPriorityGrouping>
 8001bfe:	4603      	mov	r3, r0
 8001c00:	2200      	movs	r2, #0
 8001c02:	2100      	movs	r1, #0
 8001c04:	4618      	mov	r0, r3
 8001c06:	f7fe ff25 	bl	8000a54 <NVIC_EncodePriority>
 8001c0a:	4603      	mov	r3, r0
 8001c0c:	4619      	mov	r1, r3
 8001c0e:	200b      	movs	r0, #11
 8001c10:	f7fe fef6 	bl	8000a00 <__NVIC_SetPriority>
  NVIC_EnableIRQ(DMA1_Channel1_IRQn);
 8001c14:	200b      	movs	r0, #11
 8001c16:	f7fe fed7 	bl	80009c8 <__NVIC_EnableIRQ>
  /* DMA1_Channel5_IRQn interrupt configuration */
  NVIC_SetPriority(DMA1_Channel5_IRQn, NVIC_EncodePriority(NVIC_GetPriorityGrouping(),0, 0));
 8001c1a:	f7fe fec7 	bl	80009ac <__NVIC_GetPriorityGrouping>
 8001c1e:	4603      	mov	r3, r0
 8001c20:	2200      	movs	r2, #0
 8001c22:	2100      	movs	r1, #0
 8001c24:	4618      	mov	r0, r3
 8001c26:	f7fe ff15 	bl	8000a54 <NVIC_EncodePriority>
 8001c2a:	4603      	mov	r3, r0
 8001c2c:	4619      	mov	r1, r3
 8001c2e:	200f      	movs	r0, #15
 8001c30:	f7fe fee6 	bl	8000a00 <__NVIC_SetPriority>
  NVIC_EnableIRQ(DMA1_Channel5_IRQn);
 8001c34:	200f      	movs	r0, #15
 8001c36:	f7fe fec7 	bl	80009c8 <__NVIC_EnableIRQ>

}
 8001c3a:	bf00      	nop
 8001c3c:	bd80      	pop	{r7, pc}
	...

08001c40 <MX_GPIO_Init>:
  * @brief GPIO Initialization Function
  * @param None
  * @retval None
  */
static void MX_GPIO_Init(void)
{
 8001c40:	b580      	push	{r7, lr}
 8001c42:	b088      	sub	sp, #32
 8001c44:	af00      	add	r7, sp, #0
  LL_EXTI_InitTypeDef EXTI_InitStruct = {0};
 8001c46:	f107 0318 	add.w	r3, r7, #24
 8001c4a:	2200      	movs	r2, #0
 8001c4c:	601a      	str	r2, [r3, #0]
 8001c4e:	605a      	str	r2, [r3, #4]
  LL_GPIO_InitTypeDef GPIO_InitStruct = {0};
 8001c50:	1d3b      	adds	r3, r7, #4
 8001c52:	2200      	movs	r2, #0
 8001c54:	601a      	str	r2, [r3, #0]
 8001c56:	605a      	str	r2, [r3, #4]
 8001c58:	609a      	str	r2, [r3, #8]
 8001c5a:	60da      	str	r2, [r3, #12]
 8001c5c:	611a      	str	r2, [r3, #16]
/* USER CODE BEGIN MX_GPIO_Init_1 */
/* USER CODE END MX_GPIO_Init_1 */

  /* GPIO Ports Clock Enable */
  LL_APB2_GRP1_EnableClock(LL_APB2_GRP1_PERIPH_GPIOE);
 8001c5e:	2040      	movs	r0, #64	@ 0x40
 8001c60:	f7ff f9c2 	bl	8000fe8 <LL_APB2_GRP1_EnableClock>
  LL_APB2_GRP1_EnableClock(LL_APB2_GRP1_PERIPH_GPIOC);
 8001c64:	2010      	movs	r0, #16
 8001c66:	f7ff f9bf 	bl	8000fe8 <LL_APB2_GRP1_EnableClock>
  LL_APB2_GRP1_EnableClock(LL_APB2_GRP1_PERIPH_GPIOA);
 8001c6a:	2004      	movs	r0, #4
 8001c6c:	f7ff f9bc 	bl	8000fe8 <LL_APB2_GRP1_EnableClock>
  LL_APB2_GRP1_EnableClock(LL_APB2_GRP1_PERIPH_GPIOB);
 8001c70:	2008      	movs	r0, #8
 8001c72:	f7ff f9b9 	bl	8000fe8 <LL_APB2_GRP1_EnableClock>
  LL_APB2_GRP1_EnableClock(LL_APB2_GRP1_PERIPH_GPIOD);
 8001c76:	2020      	movs	r0, #32
 8001c78:	f7ff f9b6 	bl	8000fe8 <LL_APB2_GRP1_EnableClock>

  /**/
  LL_GPIO_ResetOutputPin(GPIOE, LL_GPIO_PIN_2|LL_GPIO_PIN_3|LL_GPIO_PIN_4|LL_GPIO_PIN_5
 8001c7c:	494c      	ldr	r1, [pc, #304]	@ (8001db0 <MX_GPIO_Init+0x170>)
 8001c7e:	484d      	ldr	r0, [pc, #308]	@ (8001db4 <MX_GPIO_Init+0x174>)
 8001c80:	f7ff fb90 	bl	80013a4 <LL_GPIO_ResetOutputPin>
                          |LL_GPIO_PIN_6|LL_GPIO_PIN_7|LL_GPIO_PIN_8|LL_GPIO_PIN_9
                          |LL_GPIO_PIN_11|LL_GPIO_PIN_0);

  /**/
  LL_GPIO_ResetOutputPin(GPIOC, LL_GPIO_PIN_13|LL_GPIO_PIN_0|LL_GPIO_PIN_1|LL_GPIO_PIN_2
 8001c84:	494c      	ldr	r1, [pc, #304]	@ (8001db8 <MX_GPIO_Init+0x178>)
 8001c86:	484d      	ldr	r0, [pc, #308]	@ (8001dbc <MX_GPIO_Init+0x17c>)
 8001c88:	f7ff fb8c 	bl	80013a4 <LL_GPIO_ResetOutputPin>
                          |LL_GPIO_PIN_3|LL_GPIO_PIN_4|LL_GPIO_PIN_5|LL_GPIO_PIN_6
                          |LL_GPIO_PIN_7|LL_GPIO_PIN_8|LL_GPIO_PIN_9|LL_GPIO_PIN_11);

  /**/
  LL_GPIO_ResetOutputPin(GPIOB, LL_GPIO_PIN_0|LL_GPIO_PIN_1|LL_GPIO_PIN_2|LL_GPIO_PIN_12
 8001c8c:	494c      	ldr	r1, [pc, #304]	@ (8001dc0 <MX_GPIO_Init+0x180>)
 8001c8e:	484d      	ldr	r0, [pc, #308]	@ (8001dc4 <MX_GPIO_Init+0x184>)
 8001c90:	f7ff fb88 	bl	80013a4 <LL_GPIO_ResetOutputPin>
                          |LL_GPIO_PIN_14|LL_GPIO_PIN_15|LL_GPIO_PIN_3|LL_GPIO_PIN_4
                          |LL_GPIO_PIN_5|LL_GPIO_PIN_6|LL_GPIO_PIN_7|LL_GPIO_PIN_8
                          |LL_GPIO_PIN_9);

  /**/
  LL_GPIO_ResetOutputPin(GPIOD, LL_GPIO_PIN_8|LL_GPIO_PIN_9|LL_GPIO_PIN_10|LL_GPIO_PIN_11
 8001c94:	494c      	ldr	r1, [pc, #304]	@ (8001dc8 <MX_GPIO_Init+0x188>)
 8001c96:	484d      	ldr	r0, [pc, #308]	@ (8001dcc <MX_GPIO_Init+0x18c>)
 8001c98:	f7ff fb84 	bl	80013a4 <LL_GPIO_ResetOutputPin>
                          |LL_GPIO_PIN_12|LL_GPIO_PIN_13|LL_GPIO_PIN_14|LL_GPIO_PIN_15
                          |LL_GPIO_PIN_0|LL_GPIO_PIN_1|LL_GPIO_PIN_3|LL_GPIO_PIN_4
                          |LL_GPIO_PIN_7);

  /**/
  GPIO_InitStruct.Pin = LL_GPIO_PIN_2|LL_GPIO_PIN_3|LL_GPIO_PIN_4|LL_GPIO_PIN_5
 8001c9c:	4b44      	ldr	r3, [pc, #272]	@ (8001db0 <MX_GPIO_Init+0x170>)
 8001c9e:	607b      	str	r3, [r7, #4]
                          |LL_GPIO_PIN_6|LL_GPIO_PIN_7|LL_GPIO_PIN_8|LL_GPIO_PIN_9
                          |LL_GPIO_PIN_11|LL_GPIO_PIN_0;
  GPIO_InitStruct.Mode = LL_GPIO_MODE_OUTPUT;
 8001ca0:	2301      	movs	r3, #1
 8001ca2:	60bb      	str	r3, [r7, #8]
  GPIO_InitStruct.Speed = LL_GPIO_SPEED_FREQ_LOW;
 8001ca4:	2302      	movs	r3, #2
 8001ca6:	60fb      	str	r3, [r7, #12]
  GPIO_InitStruct.OutputType = LL_GPIO_OUTPUT_PUSHPULL;
 8001ca8:	2300      	movs	r3, #0
 8001caa:	613b      	str	r3, [r7, #16]
  LL_GPIO_Init(GPIOE, &GPIO_InitStruct);
 8001cac:	1d3b      	adds	r3, r7, #4
 8001cae:	4619      	mov	r1, r3
 8001cb0:	4840      	ldr	r0, [pc, #256]	@ (8001db4 <MX_GPIO_Init+0x174>)
 8001cb2:	f002 fab8 	bl	8004226 <LL_GPIO_Init>

  /**/
  GPIO_InitStruct.Pin = LL_GPIO_PIN_13|LL_GPIO_PIN_0|LL_GPIO_PIN_1|LL_GPIO_PIN_2
 8001cb6:	4b40      	ldr	r3, [pc, #256]	@ (8001db8 <MX_GPIO_Init+0x178>)
 8001cb8:	607b      	str	r3, [r7, #4]
                          |LL_GPIO_PIN_3|LL_GPIO_PIN_4|LL_GPIO_PIN_5|LL_GPIO_PIN_6
                          |LL_GPIO_PIN_7|LL_GPIO_PIN_8|LL_GPIO_PIN_9|LL_GPIO_PIN_11;
  GPIO_InitStruct.Mode = LL_GPIO_MODE_OUTPUT;
 8001cba:	2301      	movs	r3, #1
 8001cbc:	60bb      	str	r3, [r7, #8]
  GPIO_InitStruct.Speed = LL_GPIO_SPEED_FREQ_LOW;
 8001cbe:	2302      	movs	r3, #2
 8001cc0:	60fb      	str	r3, [r7, #12]
  GPIO_InitStruct.OutputType = LL_GPIO_OUTPUT_PUSHPULL;
 8001cc2:	2300      	movs	r3, #0
 8001cc4:	613b      	str	r3, [r7, #16]
  LL_GPIO_Init(GPIOC, &GPIO_InitStruct);
 8001cc6:	1d3b      	adds	r3, r7, #4
 8001cc8:	4619      	mov	r1, r3
 8001cca:	483c      	ldr	r0, [pc, #240]	@ (8001dbc <MX_GPIO_Init+0x17c>)
 8001ccc:	f002 faab 	bl	8004226 <LL_GPIO_Init>

  /**/
  GPIO_InitStruct.Pin = LL_GPIO_PIN_0|LL_GPIO_PIN_1|LL_GPIO_PIN_2|LL_GPIO_PIN_12
 8001cd0:	4b3b      	ldr	r3, [pc, #236]	@ (8001dc0 <MX_GPIO_Init+0x180>)
 8001cd2:	607b      	str	r3, [r7, #4]
                          |LL_GPIO_PIN_14|LL_GPIO_PIN_15|LL_GPIO_PIN_3|LL_GPIO_PIN_4
                          |LL_GPIO_PIN_5|LL_GPIO_PIN_6|LL_GPIO_PIN_7|LL_GPIO_PIN_8
                          |LL_GPIO_PIN_9;
  GPIO_InitStruct.Mode = LL_GPIO_MODE_OUTPUT;
 8001cd4:	2301      	movs	r3, #1
 8001cd6:	60bb      	str	r3, [r7, #8]
  GPIO_InitStruct.Speed = LL_GPIO_SPEED_FREQ_LOW;
 8001cd8:	2302      	movs	r3, #2
 8001cda:	60fb      	str	r3, [r7, #12]
  GPIO_InitStruct.OutputType = LL_GPIO_OUTPUT_PUSHPULL;
 8001cdc:	2300      	movs	r3, #0
 8001cde:	613b      	str	r3, [r7, #16]
  LL_GPIO_Init(GPIOB, &GPIO_InitStruct);
 8001ce0:	1d3b      	adds	r3, r7, #4
 8001ce2:	4619      	mov	r1, r3
 8001ce4:	4837      	ldr	r0, [pc, #220]	@ (8001dc4 <MX_GPIO_Init+0x184>)
 8001ce6:	f002 fa9e 	bl	8004226 <LL_GPIO_Init>

  /**/
  GPIO_InitStruct.Pin = LL_GPIO_PIN_14|LL_GPIO_PIN_15;
 8001cea:	4b39      	ldr	r3, [pc, #228]	@ (8001dd0 <MX_GPIO_Init+0x190>)
 8001cec:	607b      	str	r3, [r7, #4]
  GPIO_InitStruct.Mode = LL_GPIO_MODE_FLOATING;
 8001cee:	2304      	movs	r3, #4
 8001cf0:	60bb      	str	r3, [r7, #8]
  LL_GPIO_Init(GPIOE, &GPIO_InitStruct);
 8001cf2:	1d3b      	adds	r3, r7, #4
 8001cf4:	4619      	mov	r1, r3
 8001cf6:	482f      	ldr	r0, [pc, #188]	@ (8001db4 <MX_GPIO_Init+0x174>)
 8001cf8:	f002 fa95 	bl	8004226 <LL_GPIO_Init>

  /**/
  GPIO_InitStruct.Pin = LL_GPIO_PIN_8|LL_GPIO_PIN_9|LL_GPIO_PIN_10|LL_GPIO_PIN_11
 8001cfc:	4b32      	ldr	r3, [pc, #200]	@ (8001dc8 <MX_GPIO_Init+0x188>)
 8001cfe:	607b      	str	r3, [r7, #4]
                          |LL_GPIO_PIN_12|LL_GPIO_PIN_13|LL_GPIO_PIN_14|LL_GPIO_PIN_15
                          |LL_GPIO_PIN_0|LL_GPIO_PIN_1|LL_GPIO_PIN_3|LL_GPIO_PIN_4
                          |LL_GPIO_PIN_7;
  GPIO_InitStruct.Mode = LL_GPIO_MODE_OUTPUT;
 8001d00:	2301      	movs	r3, #1
 8001d02:	60bb      	str	r3, [r7, #8]
  GPIO_InitStruct.Speed = LL_GPIO_SPEED_FREQ_LOW;
 8001d04:	2302      	movs	r3, #2
 8001d06:	60fb      	str	r3, [r7, #12]
  GPIO_InitStruct.OutputType = LL_GPIO_OUTPUT_PUSHPULL;
 8001d08:	2300      	movs	r3, #0
 8001d0a:	613b      	str	r3, [r7, #16]
  LL_GPIO_Init(GPIOD, &GPIO_InitStruct);
 8001d0c:	1d3b      	adds	r3, r7, #4
 8001d0e:	4619      	mov	r1, r3
 8001d10:	482e      	ldr	r0, [pc, #184]	@ (8001dcc <MX_GPIO_Init+0x18c>)
 8001d12:	f002 fa88 	bl	8004226 <LL_GPIO_Init>

  /**/
  GPIO_InitStruct.Pin = LL_GPIO_PIN_1;
 8001d16:	f240 2302 	movw	r3, #514	@ 0x202
 8001d1a:	607b      	str	r3, [r7, #4]
  GPIO_InitStruct.Mode = LL_GPIO_MODE_ANALOG;
 8001d1c:	2300      	movs	r3, #0
 8001d1e:	60bb      	str	r3, [r7, #8]
  LL_GPIO_Init(GPIOE, &GPIO_InitStruct);
 8001d20:	1d3b      	adds	r3, r7, #4
 8001d22:	4619      	mov	r1, r3
 8001d24:	4823      	ldr	r0, [pc, #140]	@ (8001db4 <MX_GPIO_Init+0x174>)
 8001d26:	f002 fa7e 	bl	8004226 <LL_GPIO_Init>

  /**/
  LL_GPIO_AF_SetEXTISource(LL_GPIO_AF_EXTI_PORTE, LL_GPIO_AF_EXTI_LINE12);
 8001d2a:	492a      	ldr	r1, [pc, #168]	@ (8001dd4 <MX_GPIO_Init+0x194>)
 8001d2c:	2004      	movs	r0, #4
 8001d2e:	f7ff fb7d 	bl	800142c <LL_GPIO_AF_SetEXTISource>

  /**/
  LL_GPIO_AF_SetEXTISource(LL_GPIO_AF_EXTI_PORTE, LL_GPIO_AF_EXTI_LINE13);
 8001d32:	4929      	ldr	r1, [pc, #164]	@ (8001dd8 <MX_GPIO_Init+0x198>)
 8001d34:	2004      	movs	r0, #4
 8001d36:	f7ff fb79 	bl	800142c <LL_GPIO_AF_SetEXTISource>

  /**/
  EXTI_InitStruct.Line_0_31 = LL_EXTI_LINE_12;
 8001d3a:	f44f 5380 	mov.w	r3, #4096	@ 0x1000
 8001d3e:	61bb      	str	r3, [r7, #24]
  EXTI_InitStruct.LineCommand = ENABLE;
 8001d40:	2301      	movs	r3, #1
 8001d42:	773b      	strb	r3, [r7, #28]
  EXTI_InitStruct.Mode = LL_EXTI_MODE_IT;
 8001d44:	2300      	movs	r3, #0
 8001d46:	777b      	strb	r3, [r7, #29]
  EXTI_InitStruct.Trigger = LL_EXTI_TRIGGER_FALLING;
 8001d48:	2302      	movs	r3, #2
 8001d4a:	77bb      	strb	r3, [r7, #30]
  LL_EXTI_Init(&EXTI_InitStruct);
 8001d4c:	f107 0318 	add.w	r3, r7, #24
 8001d50:	4618      	mov	r0, r3
 8001d52:	f002 f931 	bl	8003fb8 <LL_EXTI_Init>

  /**/
  EXTI_InitStruct.Line_0_31 = LL_EXTI_LINE_13;
 8001d56:	f44f 5300 	mov.w	r3, #8192	@ 0x2000
 8001d5a:	61bb      	str	r3, [r7, #24]
  EXTI_InitStruct.LineCommand = ENABLE;
 8001d5c:	2301      	movs	r3, #1
 8001d5e:	773b      	strb	r3, [r7, #28]
  EXTI_InitStruct.Mode = LL_EXTI_MODE_IT;
 8001d60:	2300      	movs	r3, #0
 8001d62:	777b      	strb	r3, [r7, #29]
  EXTI_InitStruct.Trigger = LL_EXTI_TRIGGER_FALLING;
 8001d64:	2302      	movs	r3, #2
 8001d66:	77bb      	strb	r3, [r7, #30]
  LL_EXTI_Init(&EXTI_InitStruct);
 8001d68:	f107 0318 	add.w	r3, r7, #24
 8001d6c:	4618      	mov	r0, r3
 8001d6e:	f002 f923 	bl	8003fb8 <LL_EXTI_Init>

  /**/
  LL_GPIO_SetPinMode(GPIOE, LL_GPIO_PIN_12, LL_GPIO_MODE_FLOATING);
 8001d72:	2204      	movs	r2, #4
 8001d74:	4919      	ldr	r1, [pc, #100]	@ (8001ddc <MX_GPIO_Init+0x19c>)
 8001d76:	480f      	ldr	r0, [pc, #60]	@ (8001db4 <MX_GPIO_Init+0x174>)
 8001d78:	f7ff fad3 	bl	8001322 <LL_GPIO_SetPinMode>

  /**/
  LL_GPIO_SetPinMode(GPIOE, LL_GPIO_PIN_13, LL_GPIO_MODE_FLOATING);
 8001d7c:	2204      	movs	r2, #4
 8001d7e:	4918      	ldr	r1, [pc, #96]	@ (8001de0 <MX_GPIO_Init+0x1a0>)
 8001d80:	480c      	ldr	r0, [pc, #48]	@ (8001db4 <MX_GPIO_Init+0x174>)
 8001d82:	f7ff face 	bl	8001322 <LL_GPIO_SetPinMode>

  /* EXTI interrupt init*/
  NVIC_SetPriority(EXTI15_10_IRQn, NVIC_EncodePriority(NVIC_GetPriorityGrouping(),0, 0));
 8001d86:	f7fe fe11 	bl	80009ac <__NVIC_GetPriorityGrouping>
 8001d8a:	4603      	mov	r3, r0
 8001d8c:	2200      	movs	r2, #0
 8001d8e:	2100      	movs	r1, #0
 8001d90:	4618      	mov	r0, r3
 8001d92:	f7fe fe5f 	bl	8000a54 <NVIC_EncodePriority>
 8001d96:	4603      	mov	r3, r0
 8001d98:	4619      	mov	r1, r3
 8001d9a:	2028      	movs	r0, #40	@ 0x28
 8001d9c:	f7fe fe30 	bl	8000a00 <__NVIC_SetPriority>
  NVIC_EnableIRQ(EXTI15_10_IRQn);
 8001da0:	2028      	movs	r0, #40	@ 0x28
 8001da2:	f7fe fe11 	bl	80009c8 <__NVIC_EnableIRQ>

/* USER CODE BEGIN MX_GPIO_Init_2 */
/* USER CODE END MX_GPIO_Init_2 */
}
 8001da6:	bf00      	nop
 8001da8:	3720      	adds	r7, #32
 8001daa:	46bd      	mov	sp, r7
 8001dac:	bd80      	pop	{r7, pc}
 8001dae:	bf00      	nop
 8001db0:	040bfdff 	.word	0x040bfdff
 8001db4:	40011800 	.word	0x40011800
 8001db8:	042bffff 	.word	0x042bffff
 8001dbc:	40011000 	.word	0x40011000
 8001dc0:	04d3ffff 	.word	0x04d3ffff
 8001dc4:	40010c00 	.word	0x40010c00
 8001dc8:	04ff9bff 	.word	0x04ff9bff
 8001dcc:	40011400 	.word	0x40011400
 8001dd0:	04c000c0 	.word	0x04c000c0
 8001dd4:	000f0003 	.word	0x000f0003
 8001dd8:	00f00003 	.word	0x00f00003
 8001ddc:	04100010 	.word	0x04100010
 8001de0:	04200020 	.word	0x04200020

08001de4 <LL_ADC_SetChannelSamplingTime>:
{
 8001de4:	b480      	push	{r7}
 8001de6:	b08d      	sub	sp, #52	@ 0x34
 8001de8:	af00      	add	r7, sp, #0
 8001dea:	60f8      	str	r0, [r7, #12]
 8001dec:	60b9      	str	r1, [r7, #8]
 8001dee:	607a      	str	r2, [r7, #4]
  __IO uint32_t *preg = __ADC_PTR_REG_OFFSET(ADCx->SMPR1, __ADC_MASK_SHIFT(Channel, ADC_CHANNEL_SMPRX_REGOFFSET_MASK));
 8001df0:	68fb      	ldr	r3, [r7, #12]
 8001df2:	330c      	adds	r3, #12
 8001df4:	4619      	mov	r1, r3
 8001df6:	68bb      	ldr	r3, [r7, #8]
 8001df8:	f003 7300 	and.w	r3, r3, #33554432	@ 0x2000000
 8001dfc:	f04f 7200 	mov.w	r2, #33554432	@ 0x2000000
 8001e00:	61ba      	str	r2, [r7, #24]
   __ASM volatile ("rbit %0, %1" : "=r" (result) : "r" (value) );
 8001e02:	69ba      	ldr	r2, [r7, #24]
 8001e04:	fa92 f2a2 	rbit	r2, r2
 8001e08:	617a      	str	r2, [r7, #20]
  return result;
 8001e0a:	697a      	ldr	r2, [r7, #20]
 8001e0c:	fab2 f282 	clz	r2, r2
 8001e10:	b2d2      	uxtb	r2, r2
 8001e12:	40d3      	lsrs	r3, r2
 8001e14:	009b      	lsls	r3, r3, #2
 8001e16:	440b      	add	r3, r1
 8001e18:	62fb      	str	r3, [r7, #44]	@ 0x2c
  MODIFY_REG(*preg,
 8001e1a:	6afb      	ldr	r3, [r7, #44]	@ 0x2c
 8001e1c:	681a      	ldr	r2, [r3, #0]
 8001e1e:	68bb      	ldr	r3, [r7, #8]
 8001e20:	f003 73f8 	and.w	r3, r3, #32505856	@ 0x1f00000
 8001e24:	f04f 71f8 	mov.w	r1, #32505856	@ 0x1f00000
 8001e28:	6239      	str	r1, [r7, #32]
   __ASM volatile ("rbit %0, %1" : "=r" (result) : "r" (value) );
 8001e2a:	6a39      	ldr	r1, [r7, #32]
 8001e2c:	fa91 f1a1 	rbit	r1, r1
 8001e30:	61f9      	str	r1, [r7, #28]
  return result;
 8001e32:	69f9      	ldr	r1, [r7, #28]
 8001e34:	fab1 f181 	clz	r1, r1
 8001e38:	b2c9      	uxtb	r1, r1
 8001e3a:	40cb      	lsrs	r3, r1
 8001e3c:	2107      	movs	r1, #7
 8001e3e:	fa01 f303 	lsl.w	r3, r1, r3
 8001e42:	43db      	mvns	r3, r3
 8001e44:	401a      	ands	r2, r3
 8001e46:	68bb      	ldr	r3, [r7, #8]
 8001e48:	f003 73f8 	and.w	r3, r3, #32505856	@ 0x1f00000
 8001e4c:	f04f 71f8 	mov.w	r1, #32505856	@ 0x1f00000
 8001e50:	62b9      	str	r1, [r7, #40]	@ 0x28
   __ASM volatile ("rbit %0, %1" : "=r" (result) : "r" (value) );
 8001e52:	6ab9      	ldr	r1, [r7, #40]	@ 0x28
 8001e54:	fa91 f1a1 	rbit	r1, r1
 8001e58:	6279      	str	r1, [r7, #36]	@ 0x24
  return result;
 8001e5a:	6a79      	ldr	r1, [r7, #36]	@ 0x24
 8001e5c:	fab1 f181 	clz	r1, r1
 8001e60:	b2c9      	uxtb	r1, r1
 8001e62:	40cb      	lsrs	r3, r1
 8001e64:	6879      	ldr	r1, [r7, #4]
 8001e66:	fa01 f303 	lsl.w	r3, r1, r3
 8001e6a:	431a      	orrs	r2, r3
 8001e6c:	6afb      	ldr	r3, [r7, #44]	@ 0x2c
 8001e6e:	601a      	str	r2, [r3, #0]
}
 8001e70:	bf00      	nop
 8001e72:	3734      	adds	r7, #52	@ 0x34
 8001e74:	46bd      	mov	sp, r7
 8001e76:	bc80      	pop	{r7}
 8001e78:	4770      	bx	lr

08001e7a <LL_GPIO_SetOutputPin>:
{
 8001e7a:	b480      	push	{r7}
 8001e7c:	b083      	sub	sp, #12
 8001e7e:	af00      	add	r7, sp, #0
 8001e80:	6078      	str	r0, [r7, #4]
 8001e82:	6039      	str	r1, [r7, #0]
  WRITE_REG(GPIOx->BSRR, (PinMask >> GPIO_PIN_MASK_POS) & 0x0000FFFFU);
 8001e84:	683b      	ldr	r3, [r7, #0]
 8001e86:	0a1b      	lsrs	r3, r3, #8
 8001e88:	b29a      	uxth	r2, r3
 8001e8a:	687b      	ldr	r3, [r7, #4]
 8001e8c:	611a      	str	r2, [r3, #16]
}
 8001e8e:	bf00      	nop
 8001e90:	370c      	adds	r7, #12
 8001e92:	46bd      	mov	sp, r7
 8001e94:	bc80      	pop	{r7}
 8001e96:	4770      	bx	lr

08001e98 <LL_GPIO_ResetOutputPin>:
{
 8001e98:	b480      	push	{r7}
 8001e9a:	b083      	sub	sp, #12
 8001e9c:	af00      	add	r7, sp, #0
 8001e9e:	6078      	str	r0, [r7, #4]
 8001ea0:	6039      	str	r1, [r7, #0]
  WRITE_REG(GPIOx->BRR, (PinMask >> GPIO_PIN_MASK_POS) & 0x0000FFFFU);
 8001ea2:	683b      	ldr	r3, [r7, #0]
 8001ea4:	0a1b      	lsrs	r3, r3, #8
 8001ea6:	b29a      	uxth	r2, r3
 8001ea8:	687b      	ldr	r3, [r7, #4]
 8001eaa:	615a      	str	r2, [r3, #20]
}
 8001eac:	bf00      	nop
 8001eae:	370c      	adds	r7, #12
 8001eb0:	46bd      	mov	sp, r7
 8001eb2:	bc80      	pop	{r7}
 8001eb4:	4770      	bx	lr
	...

08001eb8 <getPortName>:
    {GPIOE, LL_GPIO_PIN_7, &xPins32, &yPins32},  // CS_32 (PE7)
    {GPIOE, LL_GPIO_PIN_8, &xPins33, &yPins33},  // CS_33 (PE8)
    {GPIOE, LL_GPIO_PIN_9, &xPins34, &yPins34}   // CS_34 (PE9)
};

const char* getPortName(GPIO_TypeDef* port) {
 8001eb8:	b480      	push	{r7}
 8001eba:	b083      	sub	sp, #12
 8001ebc:	af00      	add	r7, sp, #0
 8001ebe:	6078      	str	r0, [r7, #4]
    if (port == GPIOA) return "GPIOA";
 8001ec0:	687b      	ldr	r3, [r7, #4]
 8001ec2:	4a11      	ldr	r2, [pc, #68]	@ (8001f08 <getPortName+0x50>)
 8001ec4:	4293      	cmp	r3, r2
 8001ec6:	d101      	bne.n	8001ecc <getPortName+0x14>
 8001ec8:	4b10      	ldr	r3, [pc, #64]	@ (8001f0c <getPortName+0x54>)
 8001eca:	e018      	b.n	8001efe <getPortName+0x46>
    if (port == GPIOB) return "GPIOB";
 8001ecc:	687b      	ldr	r3, [r7, #4]
 8001ece:	4a10      	ldr	r2, [pc, #64]	@ (8001f10 <getPortName+0x58>)
 8001ed0:	4293      	cmp	r3, r2
 8001ed2:	d101      	bne.n	8001ed8 <getPortName+0x20>
 8001ed4:	4b0f      	ldr	r3, [pc, #60]	@ (8001f14 <getPortName+0x5c>)
 8001ed6:	e012      	b.n	8001efe <getPortName+0x46>
    if (port == GPIOC) return "GPIOC";
 8001ed8:	687b      	ldr	r3, [r7, #4]
 8001eda:	4a0f      	ldr	r2, [pc, #60]	@ (8001f18 <getPortName+0x60>)
 8001edc:	4293      	cmp	r3, r2
 8001ede:	d101      	bne.n	8001ee4 <getPortName+0x2c>
 8001ee0:	4b0e      	ldr	r3, [pc, #56]	@ (8001f1c <getPortName+0x64>)
 8001ee2:	e00c      	b.n	8001efe <getPortName+0x46>
    if (port == GPIOD) return "GPIOD";
 8001ee4:	687b      	ldr	r3, [r7, #4]
 8001ee6:	4a0e      	ldr	r2, [pc, #56]	@ (8001f20 <getPortName+0x68>)
 8001ee8:	4293      	cmp	r3, r2
 8001eea:	d101      	bne.n	8001ef0 <getPortName+0x38>
 8001eec:	4b0d      	ldr	r3, [pc, #52]	@ (8001f24 <getPortName+0x6c>)
 8001eee:	e006      	b.n	8001efe <getPortName+0x46>
    if (port == GPIOE) return "GPIOE";
 8001ef0:	687b      	ldr	r3, [r7, #4]
 8001ef2:	4a0d      	ldr	r2, [pc, #52]	@ (8001f28 <getPortName+0x70>)
 8001ef4:	4293      	cmp	r3, r2
 8001ef6:	d101      	bne.n	8001efc <getPortName+0x44>
 8001ef8:	4b0c      	ldr	r3, [pc, #48]	@ (8001f2c <getPortName+0x74>)
 8001efa:	e000      	b.n	8001efe <getPortName+0x46>
    return "UNKNOWN";
 8001efc:	4b0c      	ldr	r3, [pc, #48]	@ (8001f30 <getPortName+0x78>)
}
 8001efe:	4618      	mov	r0, r3
 8001f00:	370c      	adds	r7, #12
 8001f02:	46bd      	mov	sp, r7
 8001f04:	bc80      	pop	{r7}
 8001f06:	4770      	bx	lr
 8001f08:	40010800 	.word	0x40010800
 8001f0c:	08007028 	.word	0x08007028
 8001f10:	40010c00 	.word	0x40010c00
 8001f14:	08007030 	.word	0x08007030
 8001f18:	40011000 	.word	0x40011000
 8001f1c:	08007038 	.word	0x08007038
 8001f20:	40011400 	.word	0x40011400
 8001f24:	08007040 	.word	0x08007040
 8001f28:	40011800 	.word	0x40011800
 8001f2c:	08007048 	.word	0x08007048
 8001f30:	08007050 	.word	0x08007050

08001f34 <getPinName>:

const char* getPinName(uint32_t pin) {
 8001f34:	b480      	push	{r7}
 8001f36:	b083      	sub	sp, #12
 8001f38:	af00      	add	r7, sp, #0
 8001f3a:	6078      	str	r0, [r7, #4]
    switch (pin) {
 8001f3c:	687b      	ldr	r3, [r7, #4]
 8001f3e:	4a5a      	ldr	r2, [pc, #360]	@ (80020a8 <getPinName+0x174>)
 8001f40:	4293      	cmp	r3, r2
 8001f42:	f000 80a8 	beq.w	8002096 <getPinName+0x162>
 8001f46:	687b      	ldr	r3, [r7, #4]
 8001f48:	4a57      	ldr	r2, [pc, #348]	@ (80020a8 <getPinName+0x174>)
 8001f4a:	4293      	cmp	r3, r2
 8001f4c:	f200 80a5 	bhi.w	800209a <getPinName+0x166>
 8001f50:	687b      	ldr	r3, [r7, #4]
 8001f52:	4a56      	ldr	r2, [pc, #344]	@ (80020ac <getPinName+0x178>)
 8001f54:	4293      	cmp	r3, r2
 8001f56:	f000 809c 	beq.w	8002092 <getPinName+0x15e>
 8001f5a:	687b      	ldr	r3, [r7, #4]
 8001f5c:	4a53      	ldr	r2, [pc, #332]	@ (80020ac <getPinName+0x178>)
 8001f5e:	4293      	cmp	r3, r2
 8001f60:	f200 809b 	bhi.w	800209a <getPinName+0x166>
 8001f64:	687b      	ldr	r3, [r7, #4]
 8001f66:	4a52      	ldr	r2, [pc, #328]	@ (80020b0 <getPinName+0x17c>)
 8001f68:	4293      	cmp	r3, r2
 8001f6a:	f000 8090 	beq.w	800208e <getPinName+0x15a>
 8001f6e:	687b      	ldr	r3, [r7, #4]
 8001f70:	4a4f      	ldr	r2, [pc, #316]	@ (80020b0 <getPinName+0x17c>)
 8001f72:	4293      	cmp	r3, r2
 8001f74:	f200 8091 	bhi.w	800209a <getPinName+0x166>
 8001f78:	687b      	ldr	r3, [r7, #4]
 8001f7a:	4a4e      	ldr	r2, [pc, #312]	@ (80020b4 <getPinName+0x180>)
 8001f7c:	4293      	cmp	r3, r2
 8001f7e:	f000 8084 	beq.w	800208a <getPinName+0x156>
 8001f82:	687b      	ldr	r3, [r7, #4]
 8001f84:	4a4b      	ldr	r2, [pc, #300]	@ (80020b4 <getPinName+0x180>)
 8001f86:	4293      	cmp	r3, r2
 8001f88:	f200 8087 	bhi.w	800209a <getPinName+0x166>
 8001f8c:	687b      	ldr	r3, [r7, #4]
 8001f8e:	4a4a      	ldr	r2, [pc, #296]	@ (80020b8 <getPinName+0x184>)
 8001f90:	4293      	cmp	r3, r2
 8001f92:	d078      	beq.n	8002086 <getPinName+0x152>
 8001f94:	687b      	ldr	r3, [r7, #4]
 8001f96:	4a48      	ldr	r2, [pc, #288]	@ (80020b8 <getPinName+0x184>)
 8001f98:	4293      	cmp	r3, r2
 8001f9a:	d87e      	bhi.n	800209a <getPinName+0x166>
 8001f9c:	687b      	ldr	r3, [r7, #4]
 8001f9e:	4a47      	ldr	r2, [pc, #284]	@ (80020bc <getPinName+0x188>)
 8001fa0:	4293      	cmp	r3, r2
 8001fa2:	d06e      	beq.n	8002082 <getPinName+0x14e>
 8001fa4:	687b      	ldr	r3, [r7, #4]
 8001fa6:	4a45      	ldr	r2, [pc, #276]	@ (80020bc <getPinName+0x188>)
 8001fa8:	4293      	cmp	r3, r2
 8001faa:	d876      	bhi.n	800209a <getPinName+0x166>
 8001fac:	687b      	ldr	r3, [r7, #4]
 8001fae:	4a44      	ldr	r2, [pc, #272]	@ (80020c0 <getPinName+0x18c>)
 8001fb0:	4293      	cmp	r3, r2
 8001fb2:	d064      	beq.n	800207e <getPinName+0x14a>
 8001fb4:	687b      	ldr	r3, [r7, #4]
 8001fb6:	4a42      	ldr	r2, [pc, #264]	@ (80020c0 <getPinName+0x18c>)
 8001fb8:	4293      	cmp	r3, r2
 8001fba:	d86e      	bhi.n	800209a <getPinName+0x166>
 8001fbc:	687b      	ldr	r3, [r7, #4]
 8001fbe:	4a41      	ldr	r2, [pc, #260]	@ (80020c4 <getPinName+0x190>)
 8001fc0:	4293      	cmp	r3, r2
 8001fc2:	d05a      	beq.n	800207a <getPinName+0x146>
 8001fc4:	687b      	ldr	r3, [r7, #4]
 8001fc6:	4a3f      	ldr	r2, [pc, #252]	@ (80020c4 <getPinName+0x190>)
 8001fc8:	4293      	cmp	r3, r2
 8001fca:	d866      	bhi.n	800209a <getPinName+0x166>
 8001fcc:	687b      	ldr	r3, [r7, #4]
 8001fce:	f248 0280 	movw	r2, #32896	@ 0x8080
 8001fd2:	4293      	cmp	r3, r2
 8001fd4:	d04f      	beq.n	8002076 <getPinName+0x142>
 8001fd6:	687b      	ldr	r3, [r7, #4]
 8001fd8:	f248 0280 	movw	r2, #32896	@ 0x8080
 8001fdc:	4293      	cmp	r3, r2
 8001fde:	d85c      	bhi.n	800209a <getPinName+0x166>
 8001fe0:	687b      	ldr	r3, [r7, #4]
 8001fe2:	f244 0240 	movw	r2, #16448	@ 0x4040
 8001fe6:	4293      	cmp	r3, r2
 8001fe8:	d043      	beq.n	8002072 <getPinName+0x13e>
 8001fea:	687b      	ldr	r3, [r7, #4]
 8001fec:	f244 0240 	movw	r2, #16448	@ 0x4040
 8001ff0:	4293      	cmp	r3, r2
 8001ff2:	d852      	bhi.n	800209a <getPinName+0x166>
 8001ff4:	687b      	ldr	r3, [r7, #4]
 8001ff6:	f242 0220 	movw	r2, #8224	@ 0x2020
 8001ffa:	4293      	cmp	r3, r2
 8001ffc:	d037      	beq.n	800206e <getPinName+0x13a>
 8001ffe:	687b      	ldr	r3, [r7, #4]
 8002000:	f242 0220 	movw	r2, #8224	@ 0x2020
 8002004:	4293      	cmp	r3, r2
 8002006:	d848      	bhi.n	800209a <getPinName+0x166>
 8002008:	687b      	ldr	r3, [r7, #4]
 800200a:	f241 0210 	movw	r2, #4112	@ 0x1010
 800200e:	4293      	cmp	r3, r2
 8002010:	d02b      	beq.n	800206a <getPinName+0x136>
 8002012:	687b      	ldr	r3, [r7, #4]
 8002014:	f241 0210 	movw	r2, #4112	@ 0x1010
 8002018:	4293      	cmp	r3, r2
 800201a:	d83e      	bhi.n	800209a <getPinName+0x166>
 800201c:	687b      	ldr	r3, [r7, #4]
 800201e:	f640 0208 	movw	r2, #2056	@ 0x808
 8002022:	4293      	cmp	r3, r2
 8002024:	d01f      	beq.n	8002066 <getPinName+0x132>
 8002026:	687b      	ldr	r3, [r7, #4]
 8002028:	f640 0208 	movw	r2, #2056	@ 0x808
 800202c:	4293      	cmp	r3, r2
 800202e:	d834      	bhi.n	800209a <getPinName+0x166>
 8002030:	687b      	ldr	r3, [r7, #4]
 8002032:	f240 4204 	movw	r2, #1028	@ 0x404
 8002036:	4293      	cmp	r3, r2
 8002038:	d013      	beq.n	8002062 <getPinName+0x12e>
 800203a:	687b      	ldr	r3, [r7, #4]
 800203c:	f240 4204 	movw	r2, #1028	@ 0x404
 8002040:	4293      	cmp	r3, r2
 8002042:	d82a      	bhi.n	800209a <getPinName+0x166>
 8002044:	687b      	ldr	r3, [r7, #4]
 8002046:	f240 1201 	movw	r2, #257	@ 0x101
 800204a:	4293      	cmp	r3, r2
 800204c:	d005      	beq.n	800205a <getPinName+0x126>
 800204e:	687b      	ldr	r3, [r7, #4]
 8002050:	f240 2202 	movw	r2, #514	@ 0x202
 8002054:	4293      	cmp	r3, r2
 8002056:	d002      	beq.n	800205e <getPinName+0x12a>
 8002058:	e01f      	b.n	800209a <getPinName+0x166>
        case LL_GPIO_PIN_0:  return "Pin 0";
 800205a:	4b1b      	ldr	r3, [pc, #108]	@ (80020c8 <getPinName+0x194>)
 800205c:	e01e      	b.n	800209c <getPinName+0x168>
        case LL_GPIO_PIN_1:  return "Pin 1";
 800205e:	4b1b      	ldr	r3, [pc, #108]	@ (80020cc <getPinName+0x198>)
 8002060:	e01c      	b.n	800209c <getPinName+0x168>
        case LL_GPIO_PIN_2:  return "Pin 2";
 8002062:	4b1b      	ldr	r3, [pc, #108]	@ (80020d0 <getPinName+0x19c>)
 8002064:	e01a      	b.n	800209c <getPinName+0x168>
        case LL_GPIO_PIN_3:  return "Pin 3";
 8002066:	4b1b      	ldr	r3, [pc, #108]	@ (80020d4 <getPinName+0x1a0>)
 8002068:	e018      	b.n	800209c <getPinName+0x168>
        case LL_GPIO_PIN_4:  return "Pin 4";
 800206a:	4b1b      	ldr	r3, [pc, #108]	@ (80020d8 <getPinName+0x1a4>)
 800206c:	e016      	b.n	800209c <getPinName+0x168>
        case LL_GPIO_PIN_5:  return "Pin 5";
 800206e:	4b1b      	ldr	r3, [pc, #108]	@ (80020dc <getPinName+0x1a8>)
 8002070:	e014      	b.n	800209c <getPinName+0x168>
        case LL_GPIO_PIN_6:  return "Pin 6";
 8002072:	4b1b      	ldr	r3, [pc, #108]	@ (80020e0 <getPinName+0x1ac>)
 8002074:	e012      	b.n	800209c <getPinName+0x168>
        case LL_GPIO_PIN_7:  return "Pin 7";
 8002076:	4b1b      	ldr	r3, [pc, #108]	@ (80020e4 <getPinName+0x1b0>)
 8002078:	e010      	b.n	800209c <getPinName+0x168>
        case LL_GPIO_PIN_8:  return "Pin 8";
 800207a:	4b1b      	ldr	r3, [pc, #108]	@ (80020e8 <getPinName+0x1b4>)
 800207c:	e00e      	b.n	800209c <getPinName+0x168>
        case LL_GPIO_PIN_9:  return "Pin 9";
 800207e:	4b1b      	ldr	r3, [pc, #108]	@ (80020ec <getPinName+0x1b8>)
 8002080:	e00c      	b.n	800209c <getPinName+0x168>
        case LL_GPIO_PIN_10: return "Pin 10";
 8002082:	4b1b      	ldr	r3, [pc, #108]	@ (80020f0 <getPinName+0x1bc>)
 8002084:	e00a      	b.n	800209c <getPinName+0x168>
        case LL_GPIO_PIN_11: return "Pin 11";
 8002086:	4b1b      	ldr	r3, [pc, #108]	@ (80020f4 <getPinName+0x1c0>)
 8002088:	e008      	b.n	800209c <getPinName+0x168>
        case LL_GPIO_PIN_12: return "Pin 12";
 800208a:	4b1b      	ldr	r3, [pc, #108]	@ (80020f8 <getPinName+0x1c4>)
 800208c:	e006      	b.n	800209c <getPinName+0x168>
        case LL_GPIO_PIN_13: return "Pin 13";
 800208e:	4b1b      	ldr	r3, [pc, #108]	@ (80020fc <getPinName+0x1c8>)
 8002090:	e004      	b.n	800209c <getPinName+0x168>
        case LL_GPIO_PIN_14: return "Pin 14";
 8002092:	4b1b      	ldr	r3, [pc, #108]	@ (8002100 <getPinName+0x1cc>)
 8002094:	e002      	b.n	800209c <getPinName+0x168>
        case LL_GPIO_PIN_15: return "Pin 15";
 8002096:	4b1b      	ldr	r3, [pc, #108]	@ (8002104 <getPinName+0x1d0>)
 8002098:	e000      	b.n	800209c <getPinName+0x168>
        default: return "Unknown Pin";
 800209a:	4b1b      	ldr	r3, [pc, #108]	@ (8002108 <getPinName+0x1d4>)
    }
}
 800209c:	4618      	mov	r0, r3
 800209e:	370c      	adds	r7, #12
 80020a0:	46bd      	mov	sp, r7
 80020a2:	bc80      	pop	{r7}
 80020a4:	4770      	bx	lr
 80020a6:	bf00      	nop
 80020a8:	04800080 	.word	0x04800080
 80020ac:	04400040 	.word	0x04400040
 80020b0:	04200020 	.word	0x04200020
 80020b4:	04100010 	.word	0x04100010
 80020b8:	04080008 	.word	0x04080008
 80020bc:	04040004 	.word	0x04040004
 80020c0:	04020002 	.word	0x04020002
 80020c4:	04010001 	.word	0x04010001
 80020c8:	08007058 	.word	0x08007058
 80020cc:	08007060 	.word	0x08007060
 80020d0:	08007068 	.word	0x08007068
 80020d4:	08007070 	.word	0x08007070
 80020d8:	08007078 	.word	0x08007078
 80020dc:	08007080 	.word	0x08007080
 80020e0:	08007088 	.word	0x08007088
 80020e4:	08007090 	.word	0x08007090
 80020e8:	08007098 	.word	0x08007098
 80020ec:	080070a0 	.word	0x080070a0
 80020f0:	080070a8 	.word	0x080070a8
 80020f4:	080070b0 	.word	0x080070b0
 80020f8:	080070b8 	.word	0x080070b8
 80020fc:	080070c0 	.word	0x080070c0
 8002100:	080070c8 	.word	0x080070c8
 8002104:	080070d0 	.word	0x080070d0
 8002108:	080070d8 	.word	0x080070d8

0800210c <setConnection>:

MainTrack mainTracks[32] = {0};
SignalAnalyzerTrack signalAnalyzerTracks[8] = {0};
uint8_t ledsToMainTracks[120] = {0};

void setConnection(int x, int y, MUX mux, uint8_t mode) {
 800210c:	b082      	sub	sp, #8
 800210e:	b580      	push	{r7, lr}
 8002110:	b082      	sub	sp, #8
 8002112:	af00      	add	r7, sp, #0
 8002114:	6078      	str	r0, [r7, #4]
 8002116:	6039      	str	r1, [r7, #0]
 8002118:	f107 0110 	add.w	r1, r7, #16
 800211c:	e881 000c 	stmia.w	r1, {r2, r3}
    if (x < 0 || x > 15 || y < 0 || y > 7) {
 8002120:	687b      	ldr	r3, [r7, #4]
 8002122:	2b00      	cmp	r3, #0
 8002124:	f2c0 80bd 	blt.w	80022a2 <setConnection+0x196>
 8002128:	687b      	ldr	r3, [r7, #4]
 800212a:	2b0f      	cmp	r3, #15
 800212c:	f300 80b9 	bgt.w	80022a2 <setConnection+0x196>
 8002130:	683b      	ldr	r3, [r7, #0]
 8002132:	2b00      	cmp	r3, #0
 8002134:	f2c0 80b5 	blt.w	80022a2 <setConnection+0x196>
 8002138:	683b      	ldr	r3, [r7, #0]
 800213a:	2b07      	cmp	r3, #7
 800213c:	f300 80b1 	bgt.w	80022a2 <setConnection+0x196>
    }

//    printMUXDetails(&mux);

    // Activate multiplexer using the struct for CS
    LL_GPIO_ResetOutputPin(mux.port, mux.pin);
 8002140:	693b      	ldr	r3, [r7, #16]
 8002142:	697a      	ldr	r2, [r7, #20]
 8002144:	4611      	mov	r1, r2
 8002146:	4618      	mov	r0, r3
 8002148:	f7ff fea6 	bl	8001e98 <LL_GPIO_ResetOutputPin>
    LL_mDelay(20);
 800214c:	2014      	movs	r0, #20
 800214e:	f002 fe0f 	bl	8004d70 <LL_mDelay>
    LL_GPIO_SetOutputPin(mux.port, mux.pin);
 8002152:	693b      	ldr	r3, [r7, #16]
 8002154:	697a      	ldr	r2, [r7, #20]
 8002156:	4611      	mov	r1, r2
 8002158:	4618      	mov	r0, r3
 800215a:	f7ff fe8e 	bl	8001e7a <LL_GPIO_SetOutputPin>
    LL_mDelay(20);
 800215e:	2014      	movs	r0, #20
 8002160:	f002 fe06 	bl	8004d70 <LL_mDelay>

    // Set X address
    (x & 0x01) ? LL_GPIO_SetOutputPin(AX_GPIO, AX0_PIN) : LL_GPIO_ResetOutputPin(AX_GPIO, AX0_PIN);
 8002164:	687b      	ldr	r3, [r7, #4]
 8002166:	f003 0301 	and.w	r3, r3, #1
 800216a:	2b00      	cmp	r3, #0
 800216c:	d005      	beq.n	800217a <setConnection+0x6e>
 800216e:	f244 0140 	movw	r1, #16448	@ 0x4040
 8002172:	484f      	ldr	r0, [pc, #316]	@ (80022b0 <setConnection+0x1a4>)
 8002174:	f7ff fe81 	bl	8001e7a <LL_GPIO_SetOutputPin>
 8002178:	e004      	b.n	8002184 <setConnection+0x78>
 800217a:	f244 0140 	movw	r1, #16448	@ 0x4040
 800217e:	484c      	ldr	r0, [pc, #304]	@ (80022b0 <setConnection+0x1a4>)
 8002180:	f7ff fe8a 	bl	8001e98 <LL_GPIO_ResetOutputPin>
    (x & 0x02) ? LL_GPIO_SetOutputPin(AX_GPIO, AX1_PIN) : LL_GPIO_ResetOutputPin(AX_GPIO, AX1_PIN);
 8002184:	687b      	ldr	r3, [r7, #4]
 8002186:	f003 0302 	and.w	r3, r3, #2
 800218a:	2b00      	cmp	r3, #0
 800218c:	d005      	beq.n	800219a <setConnection+0x8e>
 800218e:	f241 0110 	movw	r1, #4112	@ 0x1010
 8002192:	4847      	ldr	r0, [pc, #284]	@ (80022b0 <setConnection+0x1a4>)
 8002194:	f7ff fe71 	bl	8001e7a <LL_GPIO_SetOutputPin>
 8002198:	e004      	b.n	80021a4 <setConnection+0x98>
 800219a:	f241 0110 	movw	r1, #4112	@ 0x1010
 800219e:	4844      	ldr	r0, [pc, #272]	@ (80022b0 <setConnection+0x1a4>)
 80021a0:	f7ff fe7a 	bl	8001e98 <LL_GPIO_ResetOutputPin>
    (x & 0x04) ? LL_GPIO_SetOutputPin(AX_GPIO, AX2_PIN) : LL_GPIO_ResetOutputPin(AX_GPIO, AX2_PIN);
 80021a4:	687b      	ldr	r3, [r7, #4]
 80021a6:	f003 0304 	and.w	r3, r3, #4
 80021aa:	2b00      	cmp	r3, #0
 80021ac:	d005      	beq.n	80021ba <setConnection+0xae>
 80021ae:	f640 0108 	movw	r1, #2056	@ 0x808
 80021b2:	483f      	ldr	r0, [pc, #252]	@ (80022b0 <setConnection+0x1a4>)
 80021b4:	f7ff fe61 	bl	8001e7a <LL_GPIO_SetOutputPin>
 80021b8:	e004      	b.n	80021c4 <setConnection+0xb8>
 80021ba:	f640 0108 	movw	r1, #2056	@ 0x808
 80021be:	483c      	ldr	r0, [pc, #240]	@ (80022b0 <setConnection+0x1a4>)
 80021c0:	f7ff fe6a 	bl	8001e98 <LL_GPIO_ResetOutputPin>
    (x & 0x08) ? LL_GPIO_SetOutputPin(AX_GPIO, AX3_PIN) : LL_GPIO_ResetOutputPin(AX_GPIO, AX3_PIN);
 80021c4:	687b      	ldr	r3, [r7, #4]
 80021c6:	f003 0308 	and.w	r3, r3, #8
 80021ca:	2b00      	cmp	r3, #0
 80021cc:	d005      	beq.n	80021da <setConnection+0xce>
 80021ce:	f242 0120 	movw	r1, #8224	@ 0x2020
 80021d2:	4837      	ldr	r0, [pc, #220]	@ (80022b0 <setConnection+0x1a4>)
 80021d4:	f7ff fe51 	bl	8001e7a <LL_GPIO_SetOutputPin>
 80021d8:	e004      	b.n	80021e4 <setConnection+0xd8>
 80021da:	f242 0120 	movw	r1, #8224	@ 0x2020
 80021de:	4834      	ldr	r0, [pc, #208]	@ (80022b0 <setConnection+0x1a4>)
 80021e0:	f7ff fe5a 	bl	8001e98 <LL_GPIO_ResetOutputPin>

    // Set Y address
    (y & 0x01) ? LL_GPIO_SetOutputPin(AY_GPIO, AY0_PIN) : LL_GPIO_ResetOutputPin(AY_GPIO, AY0_PIN);
 80021e4:	683b      	ldr	r3, [r7, #0]
 80021e6:	f003 0301 	and.w	r3, r3, #1
 80021ea:	2b00      	cmp	r3, #0
 80021ec:	d005      	beq.n	80021fa <setConnection+0xee>
 80021ee:	f240 1101 	movw	r1, #257	@ 0x101
 80021f2:	482f      	ldr	r0, [pc, #188]	@ (80022b0 <setConnection+0x1a4>)
 80021f4:	f7ff fe41 	bl	8001e7a <LL_GPIO_SetOutputPin>
 80021f8:	e004      	b.n	8002204 <setConnection+0xf8>
 80021fa:	f240 1101 	movw	r1, #257	@ 0x101
 80021fe:	482c      	ldr	r0, [pc, #176]	@ (80022b0 <setConnection+0x1a4>)
 8002200:	f7ff fe4a 	bl	8001e98 <LL_GPIO_ResetOutputPin>
    (y & 0x02) ? LL_GPIO_SetOutputPin(AY_GPIO, AY1_PIN) : LL_GPIO_ResetOutputPin(AY_GPIO, AY1_PIN);
 8002204:	683b      	ldr	r3, [r7, #0]
 8002206:	f003 0302 	and.w	r3, r3, #2
 800220a:	2b00      	cmp	r3, #0
 800220c:	d005      	beq.n	800221a <setConnection+0x10e>
 800220e:	f240 2102 	movw	r1, #514	@ 0x202
 8002212:	4827      	ldr	r0, [pc, #156]	@ (80022b0 <setConnection+0x1a4>)
 8002214:	f7ff fe31 	bl	8001e7a <LL_GPIO_SetOutputPin>
 8002218:	e004      	b.n	8002224 <setConnection+0x118>
 800221a:	f240 2102 	movw	r1, #514	@ 0x202
 800221e:	4824      	ldr	r0, [pc, #144]	@ (80022b0 <setConnection+0x1a4>)
 8002220:	f7ff fe3a 	bl	8001e98 <LL_GPIO_ResetOutputPin>
    (y & 0x04) ? LL_GPIO_SetOutputPin(AY_GPIO, AY2_PIN) : LL_GPIO_ResetOutputPin(AY_GPIO, AY2_PIN);
 8002224:	683b      	ldr	r3, [r7, #0]
 8002226:	f003 0304 	and.w	r3, r3, #4
 800222a:	2b00      	cmp	r3, #0
 800222c:	d005      	beq.n	800223a <setConnection+0x12e>
 800222e:	f240 4104 	movw	r1, #1028	@ 0x404
 8002232:	481f      	ldr	r0, [pc, #124]	@ (80022b0 <setConnection+0x1a4>)
 8002234:	f7ff fe21 	bl	8001e7a <LL_GPIO_SetOutputPin>
 8002238:	e004      	b.n	8002244 <setConnection+0x138>
 800223a:	f240 4104 	movw	r1, #1028	@ 0x404
 800223e:	481c      	ldr	r0, [pc, #112]	@ (80022b0 <setConnection+0x1a4>)
 8002240:	f7ff fe2a 	bl	8001e98 <LL_GPIO_ResetOutputPin>


    // Set data pin
    mode ? LL_GPIO_SetOutputPin(DAT_GPIO, DAT_PIN) : LL_GPIO_ResetOutputPin(DAT_GPIO, DAT_PIN);
 8002244:	f897 30a0 	ldrb.w	r3, [r7, #160]	@ 0xa0
 8002248:	2b00      	cmp	r3, #0
 800224a:	d005      	beq.n	8002258 <setConnection+0x14c>
 800224c:	f248 0180 	movw	r1, #32896	@ 0x8080
 8002250:	4817      	ldr	r0, [pc, #92]	@ (80022b0 <setConnection+0x1a4>)
 8002252:	f7ff fe12 	bl	8001e7a <LL_GPIO_SetOutputPin>
 8002256:	e004      	b.n	8002262 <setConnection+0x156>
 8002258:	f248 0180 	movw	r1, #32896	@ 0x8080
 800225c:	4814      	ldr	r0, [pc, #80]	@ (80022b0 <setConnection+0x1a4>)
 800225e:	f7ff fe1b 	bl	8001e98 <LL_GPIO_ResetOutputPin>

    // Strobe signal
    LL_mDelay(20);
 8002262:	2014      	movs	r0, #20
 8002264:	f002 fd84 	bl	8004d70 <LL_mDelay>
	LL_GPIO_SetOutputPin(STB_GPIO, STB_PIN);
 8002268:	4912      	ldr	r1, [pc, #72]	@ (80022b4 <setConnection+0x1a8>)
 800226a:	4811      	ldr	r0, [pc, #68]	@ (80022b0 <setConnection+0x1a4>)
 800226c:	f7ff fe05 	bl	8001e7a <LL_GPIO_SetOutputPin>
	LL_mDelay(20);
 8002270:	2014      	movs	r0, #20
 8002272:	f002 fd7d 	bl	8004d70 <LL_mDelay>
	LL_GPIO_ResetOutputPin(STB_GPIO, STB_PIN);
 8002276:	490f      	ldr	r1, [pc, #60]	@ (80022b4 <setConnection+0x1a8>)
 8002278:	480d      	ldr	r0, [pc, #52]	@ (80022b0 <setConnection+0x1a4>)
 800227a:	f7ff fe0d 	bl	8001e98 <LL_GPIO_ResetOutputPin>

	LL_mDelay(20);
 800227e:	2014      	movs	r0, #20
 8002280:	f002 fd76 	bl	8004d70 <LL_mDelay>

	LL_GPIO_ResetOutputPin(DAT_GPIO, DAT_PIN);
 8002284:	f248 0180 	movw	r1, #32896	@ 0x8080
 8002288:	4809      	ldr	r0, [pc, #36]	@ (80022b0 <setConnection+0x1a4>)
 800228a:	f7ff fe05 	bl	8001e98 <LL_GPIO_ResetOutputPin>
    LL_GPIO_ResetOutputPin(mux.port, mux.pin);
 800228e:	693b      	ldr	r3, [r7, #16]
 8002290:	697a      	ldr	r2, [r7, #20]
 8002292:	4611      	mov	r1, r2
 8002294:	4618      	mov	r0, r3
 8002296:	f7ff fdff 	bl	8001e98 <LL_GPIO_ResetOutputPin>

	LL_mDelay(20);
 800229a:	2014      	movs	r0, #20
 800229c:	f002 fd68 	bl	8004d70 <LL_mDelay>
 80022a0:	e000      	b.n	80022a4 <setConnection+0x198>
        return;
 80022a2:	bf00      	nop
}
 80022a4:	3708      	adds	r7, #8
 80022a6:	46bd      	mov	sp, r7
 80022a8:	e8bd 4080 	ldmia.w	sp!, {r7, lr}
 80022ac:	b002      	add	sp, #8
 80022ae:	4770      	bx	lr
 80022b0:	40010c00 	.word	0x40010c00
 80022b4:	04010001 	.word	0x04010001

080022b8 <routeBreadboard>:

void routeBreadboard(int breadboardPin1, int breadboardPin2, int net_id, MUX *muxes, size_t muxCount, uint8_t mode, RGB_t rgb) {
 80022b8:	b5f0      	push	{r4, r5, r6, r7, lr}
 80022ba:	b0c3      	sub	sp, #268	@ 0x10c
 80022bc:	af24      	add	r7, sp, #144	@ 0x90
 80022be:	6278      	str	r0, [r7, #36]	@ 0x24
 80022c0:	6239      	str	r1, [r7, #32]
 80022c2:	61fa      	str	r2, [r7, #28]
 80022c4:	61bb      	str	r3, [r7, #24]

    if (breadboardPin1 > 120 || breadboardPin1 < 1 || breadboardPin2 > 120 || breadboardPin2 < 1){
 80022c6:	6a7b      	ldr	r3, [r7, #36]	@ 0x24
 80022c8:	2b78      	cmp	r3, #120	@ 0x78
 80022ca:	f300 82d1 	bgt.w	8002870 <routeBreadboard+0x5b8>
 80022ce:	6a7b      	ldr	r3, [r7, #36]	@ 0x24
 80022d0:	2b00      	cmp	r3, #0
 80022d2:	f340 82cd 	ble.w	8002870 <routeBreadboard+0x5b8>
 80022d6:	6a3b      	ldr	r3, [r7, #32]
 80022d8:	2b78      	cmp	r3, #120	@ 0x78
 80022da:	f300 82c9 	bgt.w	8002870 <routeBreadboard+0x5b8>
 80022de:	6a3b      	ldr	r3, [r7, #32]
 80022e0:	2b00      	cmp	r3, #0
 80022e2:	f340 82c5 	ble.w	8002870 <routeBreadboard+0x5b8>
    	return; // Maybe message to UART idk?
    }

    if (mode != 0 && mode != 1){
 80022e6:	f897 3094 	ldrb.w	r3, [r7, #148]	@ 0x94
 80022ea:	2b00      	cmp	r3, #0
 80022ec:	d004      	beq.n	80022f8 <routeBreadboard+0x40>
 80022ee:	f897 3094 	ldrb.w	r3, [r7, #148]	@ 0x94
 80022f2:	2b01      	cmp	r3, #1
 80022f4:	f040 82be 	bne.w	8002874 <routeBreadboard+0x5bc>
    if (rgb.color.r > 255 || rgb.color.r < 0 || rgb.color.g > 255 || rgb.color.g < 0 || rgb.color.b > 255 || rgb.color.b < 0){
		return; // Maybe message to UART idk?
    }

	char pin1Name[6], pin2Name[6];
    snprintf(pin1Name, sizeof(pin1Name), "B_%d", breadboardPin1);
 80022f8:	f107 0030 	add.w	r0, r7, #48	@ 0x30
 80022fc:	6a7b      	ldr	r3, [r7, #36]	@ 0x24
 80022fe:	4a9c      	ldr	r2, [pc, #624]	@ (8002570 <routeBreadboard+0x2b8>)
 8002300:	2106      	movs	r1, #6
 8002302:	f002 ff5d 	bl	80051c0 <sniprintf>
    snprintf(pin2Name, sizeof(pin2Name), "B_%d", breadboardPin2);
 8002306:	f107 0028 	add.w	r0, r7, #40	@ 0x28
 800230a:	6a3b      	ldr	r3, [r7, #32]
 800230c:	4a98      	ldr	r2, [pc, #608]	@ (8002570 <routeBreadboard+0x2b8>)
 800230e:	2106      	movs	r1, #6
 8002310:	f002 ff56 	bl	80051c0 <sniprintf>


//    printf("LedsToMainTrakcs[%d] = %d\n", breadboardPin1 - 1, ledsToMainTracks[breadboardPin1 - 1]);
//    printf("LedsToMainTrakcs[%d] = %d\n", breadboardPin2 - 1, ledsToMainTracks[breadboardPin2 - 1]);

    for (int i = 0; i < 120; i++){
 8002314:	2300      	movs	r3, #0
 8002316:	677b      	str	r3, [r7, #116]	@ 0x74
 8002318:	e002      	b.n	8002320 <routeBreadboard+0x68>
 800231a:	6f7b      	ldr	r3, [r7, #116]	@ 0x74
 800231c:	3301      	adds	r3, #1
 800231e:	677b      	str	r3, [r7, #116]	@ 0x74
 8002320:	6f7b      	ldr	r3, [r7, #116]	@ 0x74
 8002322:	2b77      	cmp	r3, #119	@ 0x77
 8002324:	ddf9      	ble.n	800231a <routeBreadboard+0x62>
    	if (ledsToMainTracks[i] < 0){
    		ledsToMainTracks[i] = 0;
    	}
    }

    printf("Routing %s to %s with net ID: %d\n", pin1Name, pin2Name, net_id);
 8002326:	f107 0228 	add.w	r2, r7, #40	@ 0x28
 800232a:	f107 0130 	add.w	r1, r7, #48	@ 0x30
 800232e:	69fb      	ldr	r3, [r7, #28]
 8002330:	4890      	ldr	r0, [pc, #576]	@ (8002574 <routeBreadboard+0x2bc>)
 8002332:	f002 fecd 	bl	80050d0 <iprintf>
    fflush(stdout);
 8002336:	4b90      	ldr	r3, [pc, #576]	@ (8002578 <routeBreadboard+0x2c0>)
 8002338:	681b      	ldr	r3, [r3, #0]
 800233a:	689b      	ldr	r3, [r3, #8]
 800233c:	4618      	mov	r0, r3
 800233e:	f002 fdf1 	bl	8004f24 <fflush>

    int xIndex1 = -1, yIndex1 = -1;
 8002342:	f04f 33ff 	mov.w	r3, #4294967295
 8002346:	673b      	str	r3, [r7, #112]	@ 0x70
 8002348:	f04f 33ff 	mov.w	r3, #4294967295
 800234c:	66fb      	str	r3, [r7, #108]	@ 0x6c
    int xIndex2 = -1, yIndex2 = -1;
 800234e:	f04f 33ff 	mov.w	r3, #4294967295
 8002352:	66bb      	str	r3, [r7, #104]	@ 0x68
 8002354:	f04f 33ff 	mov.w	r3, #4294967295
 8002358:	667b      	str	r3, [r7, #100]	@ 0x64
    MUX *mux1 = NULL;
 800235a:	2300      	movs	r3, #0
 800235c:	663b      	str	r3, [r7, #96]	@ 0x60
    MUX *mux2 = NULL;
 800235e:	2300      	movs	r3, #0
 8002360:	65fb      	str	r3, [r7, #92]	@ 0x5c
    MainTrack *selectedTrack = NULL;
 8002362:	2300      	movs	r3, #0
 8002364:	65bb      	str	r3, [r7, #88]	@ 0x58
    int muxIndex = -1;
 8002366:	f04f 33ff 	mov.w	r3, #4294967295
 800236a:	643b      	str	r3, [r7, #64]	@ 0x40

    // Find an available or existing main track for the given net ID
    for (int x = 0; x < 32; ++x) {
 800236c:	2300      	movs	r3, #0
 800236e:	657b      	str	r3, [r7, #84]	@ 0x54
 8002370:	e02c      	b.n	80023cc <routeBreadboard+0x114>
        if (mainTracks[x].net_id == net_id) {
 8002372:	4a82      	ldr	r2, [pc, #520]	@ (800257c <routeBreadboard+0x2c4>)
 8002374:	6d7b      	ldr	r3, [r7, #84]	@ 0x54
 8002376:	011b      	lsls	r3, r3, #4
 8002378:	4413      	add	r3, r2
 800237a:	3304      	adds	r3, #4
 800237c:	681b      	ldr	r3, [r3, #0]
 800237e:	69fa      	ldr	r2, [r7, #28]
 8002380:	429a      	cmp	r2, r3
 8002382:	d105      	bne.n	8002390 <routeBreadboard+0xd8>
            selectedTrack = &mainTracks[x];  // Reuse existing track if net ID matches
 8002384:	6d7b      	ldr	r3, [r7, #84]	@ 0x54
 8002386:	011b      	lsls	r3, r3, #4
 8002388:	4a7c      	ldr	r2, [pc, #496]	@ (800257c <routeBreadboard+0x2c4>)
 800238a:	4413      	add	r3, r2
 800238c:	65bb      	str	r3, [r7, #88]	@ 0x58
            break;
 800238e:	e020      	b.n	80023d2 <routeBreadboard+0x11a>
        } else if (!mainTracks[x].is_used) {
 8002390:	4a7a      	ldr	r2, [pc, #488]	@ (800257c <routeBreadboard+0x2c4>)
 8002392:	6d7b      	ldr	r3, [r7, #84]	@ 0x54
 8002394:	011b      	lsls	r3, r3, #4
 8002396:	4413      	add	r3, r2
 8002398:	3308      	adds	r3, #8
 800239a:	681b      	ldr	r3, [r3, #0]
 800239c:	2b00      	cmp	r3, #0
 800239e:	d112      	bne.n	80023c6 <routeBreadboard+0x10e>
            selectedTrack = &mainTracks[x];  // Assign new track if available
 80023a0:	6d7b      	ldr	r3, [r7, #84]	@ 0x54
 80023a2:	011b      	lsls	r3, r3, #4
 80023a4:	4a75      	ldr	r2, [pc, #468]	@ (800257c <routeBreadboard+0x2c4>)
 80023a6:	4413      	add	r3, r2
 80023a8:	65bb      	str	r3, [r7, #88]	@ 0x58
            selectedTrack->is_used = 1;
 80023aa:	6dbb      	ldr	r3, [r7, #88]	@ 0x58
 80023ac:	2201      	movs	r2, #1
 80023ae:	609a      	str	r2, [r3, #8]
            selectedTrack->net_id = net_id;
 80023b0:	6dbb      	ldr	r3, [r7, #88]	@ 0x58
 80023b2:	69fa      	ldr	r2, [r7, #28]
 80023b4:	605a      	str	r2, [r3, #4]
            selectedTrack->track_id = x; // Assign track ID here
 80023b6:	6dbb      	ldr	r3, [r7, #88]	@ 0x58
 80023b8:	6d7a      	ldr	r2, [r7, #84]	@ 0x54
 80023ba:	601a      	str	r2, [r3, #0]
            printf("Selected Track id: %d\n", x);
 80023bc:	6d79      	ldr	r1, [r7, #84]	@ 0x54
 80023be:	4870      	ldr	r0, [pc, #448]	@ (8002580 <routeBreadboard+0x2c8>)
 80023c0:	f002 fe86 	bl	80050d0 <iprintf>
            break;
 80023c4:	e005      	b.n	80023d2 <routeBreadboard+0x11a>
    for (int x = 0; x < 32; ++x) {
 80023c6:	6d7b      	ldr	r3, [r7, #84]	@ 0x54
 80023c8:	3301      	adds	r3, #1
 80023ca:	657b      	str	r3, [r7, #84]	@ 0x54
 80023cc:	6d7b      	ldr	r3, [r7, #84]	@ 0x54
 80023ce:	2b1f      	cmp	r3, #31
 80023d0:	ddcf      	ble.n	8002372 <routeBreadboard+0xba>
        }
    }

    if (!selectedTrack) {
 80023d2:	6dbb      	ldr	r3, [r7, #88]	@ 0x58
 80023d4:	2b00      	cmp	r3, #0
 80023d6:	d104      	bne.n	80023e2 <routeBreadboard+0x12a>
        printf("Error: No available main track for net ID %d\n", net_id);
 80023d8:	69f9      	ldr	r1, [r7, #28]
 80023da:	486a      	ldr	r0, [pc, #424]	@ (8002584 <routeBreadboard+0x2cc>)
 80023dc:	f002 fe78 	bl	80050d0 <iprintf>
        return;
 80023e0:	e249      	b.n	8002876 <routeBreadboard+0x5be>
    }

    muxIndex = (selectedTrack->track_id < 16) ? 0 : 1;
 80023e2:	6dbb      	ldr	r3, [r7, #88]	@ 0x58
 80023e4:	681b      	ldr	r3, [r3, #0]
 80023e6:	2b0f      	cmp	r3, #15
 80023e8:	bfcc      	ite	gt
 80023ea:	2301      	movgt	r3, #1
 80023ec:	2300      	movle	r3, #0
 80023ee:	b2db      	uxtb	r3, r3
 80023f0:	643b      	str	r3, [r7, #64]	@ 0x40

	for (size_t i = muxIndex; i < muxCount; i += 2) {
 80023f2:	6c3b      	ldr	r3, [r7, #64]	@ 0x40
 80023f4:	653b      	str	r3, [r7, #80]	@ 0x50
 80023f6:	e06b      	b.n	80024d0 <routeBreadboard+0x218>
		for (int y = 0; y < 8; ++y) {
 80023f8:	2300      	movs	r3, #0
 80023fa:	64fb      	str	r3, [r7, #76]	@ 0x4c
 80023fc:	e05c      	b.n	80024b8 <routeBreadboard+0x200>
			if (strcmp((*muxes[i].yPins)[y], pin1Name) == 0 && mux1 == NULL) {
 80023fe:	6d3a      	ldr	r2, [r7, #80]	@ 0x50
 8002400:	4613      	mov	r3, r2
 8002402:	00db      	lsls	r3, r3, #3
 8002404:	4413      	add	r3, r2
 8002406:	011b      	lsls	r3, r3, #4
 8002408:	461a      	mov	r2, r3
 800240a:	69bb      	ldr	r3, [r7, #24]
 800240c:	4413      	add	r3, r2
 800240e:	68db      	ldr	r3, [r3, #12]
 8002410:	6cfa      	ldr	r2, [r7, #76]	@ 0x4c
 8002412:	f853 3022 	ldr.w	r3, [r3, r2, lsl #2]
 8002416:	f107 0230 	add.w	r2, r7, #48	@ 0x30
 800241a:	4611      	mov	r1, r2
 800241c:	4618      	mov	r0, r3
 800241e:	f7fd ff01 	bl	8000224 <strcmp>
 8002422:	4603      	mov	r3, r0
 8002424:	2b00      	cmp	r3, #0
 8002426:	d117      	bne.n	8002458 <routeBreadboard+0x1a0>
 8002428:	6e3b      	ldr	r3, [r7, #96]	@ 0x60
 800242a:	2b00      	cmp	r3, #0
 800242c:	d114      	bne.n	8002458 <routeBreadboard+0x1a0>
				xIndex1 = selectedTrack->track_id % 16;
 800242e:	6dbb      	ldr	r3, [r7, #88]	@ 0x58
 8002430:	681b      	ldr	r3, [r3, #0]
 8002432:	425a      	negs	r2, r3
 8002434:	f003 030f 	and.w	r3, r3, #15
 8002438:	f002 020f 	and.w	r2, r2, #15
 800243c:	bf58      	it	pl
 800243e:	4253      	negpl	r3, r2
 8002440:	673b      	str	r3, [r7, #112]	@ 0x70
				yIndex1 = y;
 8002442:	6cfb      	ldr	r3, [r7, #76]	@ 0x4c
 8002444:	66fb      	str	r3, [r7, #108]	@ 0x6c
				mux1 = &muxes[i];
 8002446:	6d3a      	ldr	r2, [r7, #80]	@ 0x50
 8002448:	4613      	mov	r3, r2
 800244a:	00db      	lsls	r3, r3, #3
 800244c:	4413      	add	r3, r2
 800244e:	011b      	lsls	r3, r3, #4
 8002450:	461a      	mov	r2, r3
 8002452:	69bb      	ldr	r3, [r7, #24]
 8002454:	4413      	add	r3, r2
 8002456:	663b      	str	r3, [r7, #96]	@ 0x60
			}
			if (strcmp((*muxes[i].yPins)[y], pin2Name) == 0 && mux2 == NULL) {
 8002458:	6d3a      	ldr	r2, [r7, #80]	@ 0x50
 800245a:	4613      	mov	r3, r2
 800245c:	00db      	lsls	r3, r3, #3
 800245e:	4413      	add	r3, r2
 8002460:	011b      	lsls	r3, r3, #4
 8002462:	461a      	mov	r2, r3
 8002464:	69bb      	ldr	r3, [r7, #24]
 8002466:	4413      	add	r3, r2
 8002468:	68db      	ldr	r3, [r3, #12]
 800246a:	6cfa      	ldr	r2, [r7, #76]	@ 0x4c
 800246c:	f853 3022 	ldr.w	r3, [r3, r2, lsl #2]
 8002470:	f107 0228 	add.w	r2, r7, #40	@ 0x28
 8002474:	4611      	mov	r1, r2
 8002476:	4618      	mov	r0, r3
 8002478:	f7fd fed4 	bl	8000224 <strcmp>
 800247c:	4603      	mov	r3, r0
 800247e:	2b00      	cmp	r3, #0
 8002480:	d117      	bne.n	80024b2 <routeBreadboard+0x1fa>
 8002482:	6dfb      	ldr	r3, [r7, #92]	@ 0x5c
 8002484:	2b00      	cmp	r3, #0
 8002486:	d114      	bne.n	80024b2 <routeBreadboard+0x1fa>
				xIndex2 = selectedTrack->track_id % 16;
 8002488:	6dbb      	ldr	r3, [r7, #88]	@ 0x58
 800248a:	681b      	ldr	r3, [r3, #0]
 800248c:	425a      	negs	r2, r3
 800248e:	f003 030f 	and.w	r3, r3, #15
 8002492:	f002 020f 	and.w	r2, r2, #15
 8002496:	bf58      	it	pl
 8002498:	4253      	negpl	r3, r2
 800249a:	66bb      	str	r3, [r7, #104]	@ 0x68
				yIndex2 = y;
 800249c:	6cfb      	ldr	r3, [r7, #76]	@ 0x4c
 800249e:	667b      	str	r3, [r7, #100]	@ 0x64
				mux2 = &muxes[i];
 80024a0:	6d3a      	ldr	r2, [r7, #80]	@ 0x50
 80024a2:	4613      	mov	r3, r2
 80024a4:	00db      	lsls	r3, r3, #3
 80024a6:	4413      	add	r3, r2
 80024a8:	011b      	lsls	r3, r3, #4
 80024aa:	461a      	mov	r2, r3
 80024ac:	69bb      	ldr	r3, [r7, #24]
 80024ae:	4413      	add	r3, r2
 80024b0:	65fb      	str	r3, [r7, #92]	@ 0x5c
		for (int y = 0; y < 8; ++y) {
 80024b2:	6cfb      	ldr	r3, [r7, #76]	@ 0x4c
 80024b4:	3301      	adds	r3, #1
 80024b6:	64fb      	str	r3, [r7, #76]	@ 0x4c
 80024b8:	6cfb      	ldr	r3, [r7, #76]	@ 0x4c
 80024ba:	2b07      	cmp	r3, #7
 80024bc:	dd9f      	ble.n	80023fe <routeBreadboard+0x146>
			}
		}
		if (mux1 && mux2) break;
 80024be:	6e3b      	ldr	r3, [r7, #96]	@ 0x60
 80024c0:	2b00      	cmp	r3, #0
 80024c2:	d002      	beq.n	80024ca <routeBreadboard+0x212>
 80024c4:	6dfb      	ldr	r3, [r7, #92]	@ 0x5c
 80024c6:	2b00      	cmp	r3, #0
 80024c8:	d108      	bne.n	80024dc <routeBreadboard+0x224>
	for (size_t i = muxIndex; i < muxCount; i += 2) {
 80024ca:	6d3b      	ldr	r3, [r7, #80]	@ 0x50
 80024cc:	3302      	adds	r3, #2
 80024ce:	653b      	str	r3, [r7, #80]	@ 0x50
 80024d0:	6d3a      	ldr	r2, [r7, #80]	@ 0x50
 80024d2:	f8d7 3090 	ldr.w	r3, [r7, #144]	@ 0x90
 80024d6:	429a      	cmp	r2, r3
 80024d8:	d38e      	bcc.n	80023f8 <routeBreadboard+0x140>
 80024da:	e000      	b.n	80024de <routeBreadboard+0x226>
		if (mux1 && mux2) break;
 80024dc:	bf00      	nop
	}


    // Update connection counter based on mode
	if (mode == 1) {
 80024de:	f897 3094 	ldrb.w	r3, [r7, #148]	@ 0x94
 80024e2:	2b01      	cmp	r3, #1
 80024e4:	d156      	bne.n	8002594 <routeBreadboard+0x2dc>
		if (mux1->usage[xIndex1][yIndex1] > 0 && mux2->usage[xIndex2][yIndex2] > 0) {
 80024e6:	6e3a      	ldr	r2, [r7, #96]	@ 0x60
 80024e8:	6f3b      	ldr	r3, [r7, #112]	@ 0x70
 80024ea:	00db      	lsls	r3, r3, #3
 80024ec:	441a      	add	r2, r3
 80024ee:	6efb      	ldr	r3, [r7, #108]	@ 0x6c
 80024f0:	4413      	add	r3, r2
 80024f2:	3310      	adds	r3, #16
 80024f4:	781b      	ldrb	r3, [r3, #0]
 80024f6:	2b00      	cmp	r3, #0
 80024f8:	d00d      	beq.n	8002516 <routeBreadboard+0x25e>
 80024fa:	6dfa      	ldr	r2, [r7, #92]	@ 0x5c
 80024fc:	6ebb      	ldr	r3, [r7, #104]	@ 0x68
 80024fe:	00db      	lsls	r3, r3, #3
 8002500:	441a      	add	r2, r3
 8002502:	6e7b      	ldr	r3, [r7, #100]	@ 0x64
 8002504:	4413      	add	r3, r2
 8002506:	3310      	adds	r3, #16
 8002508:	781b      	ldrb	r3, [r3, #0]
 800250a:	2b00      	cmp	r3, #0
 800250c:	d003      	beq.n	8002516 <routeBreadboard+0x25e>
			printf("Already connected, RETURN. NOT incrementing usage, maintrack, led counters\n\n");
 800250e:	481e      	ldr	r0, [pc, #120]	@ (8002588 <routeBreadboard+0x2d0>)
 8002510:	f002 fe4e 	bl	80051b0 <puts>
			return;
 8002514:	e1af      	b.n	8002876 <routeBreadboard+0x5be>
		}

		selectedTrack->current_connections++; // Increment current connections
 8002516:	6dbb      	ldr	r3, [r7, #88]	@ 0x58
 8002518:	68db      	ldr	r3, [r3, #12]
 800251a:	1c5a      	adds	r2, r3, #1
 800251c:	6dbb      	ldr	r3, [r7, #88]	@ 0x58
 800251e:	60da      	str	r2, [r3, #12]
		printf("Main Track %d incremented. Current connections: %d\n", selectedTrack->track_id, selectedTrack->current_connections);
 8002520:	6dbb      	ldr	r3, [r7, #88]	@ 0x58
 8002522:	6819      	ldr	r1, [r3, #0]
 8002524:	6dbb      	ldr	r3, [r7, #88]	@ 0x58
 8002526:	68db      	ldr	r3, [r3, #12]
 8002528:	461a      	mov	r2, r3
 800252a:	4818      	ldr	r0, [pc, #96]	@ (800258c <routeBreadboard+0x2d4>)
 800252c:	f002 fdd0 	bl	80050d0 <iprintf>


	    // Keep track of leds:
	    ledsToMainTracks[breadboardPin1 - 1]++;
 8002530:	6a7b      	ldr	r3, [r7, #36]	@ 0x24
 8002532:	3b01      	subs	r3, #1
 8002534:	4a16      	ldr	r2, [pc, #88]	@ (8002590 <routeBreadboard+0x2d8>)
 8002536:	5cd2      	ldrb	r2, [r2, r3]
 8002538:	3201      	adds	r2, #1
 800253a:	b2d1      	uxtb	r1, r2
 800253c:	4a14      	ldr	r2, [pc, #80]	@ (8002590 <routeBreadboard+0x2d8>)
 800253e:	54d1      	strb	r1, [r2, r3]
	    ledsToMainTracks[breadboardPin2 - 1]++;
 8002540:	6a3b      	ldr	r3, [r7, #32]
 8002542:	3b01      	subs	r3, #1
 8002544:	4a12      	ldr	r2, [pc, #72]	@ (8002590 <routeBreadboard+0x2d8>)
 8002546:	5cd2      	ldrb	r2, [r2, r3]
 8002548:	3201      	adds	r2, #1
 800254a:	b2d1      	uxtb	r1, r2
 800254c:	4a10      	ldr	r2, [pc, #64]	@ (8002590 <routeBreadboard+0x2d8>)
 800254e:	54d1      	strb	r1, [r2, r3]

		addToPin(breadboardPin1, rgb);
 8002550:	6a7b      	ldr	r3, [r7, #36]	@ 0x24
 8002552:	b2db      	uxtb	r3, r3
 8002554:	f8d7 1098 	ldr.w	r1, [r7, #152]	@ 0x98
 8002558:	4618      	mov	r0, r3
 800255a:	f7fe f851 	bl	8000600 <addToPin>
		addToPin(breadboardPin2, rgb);
 800255e:	6a3b      	ldr	r3, [r7, #32]
 8002560:	b2db      	uxtb	r3, r3
 8002562:	f8d7 1098 	ldr.w	r1, [r7, #152]	@ 0x98
 8002566:	4618      	mov	r0, r3
 8002568:	f7fe f84a 	bl	8000600 <addToPin>
 800256c:	e05e      	b.n	800262c <routeBreadboard+0x374>
 800256e:	bf00      	nop
 8002570:	0800715c 	.word	0x0800715c
 8002574:	08007164 	.word	0x08007164
 8002578:	20001ff0 	.word	0x20001ff0
 800257c:	20005308 	.word	0x20005308
 8002580:	08007188 	.word	0x08007188
 8002584:	080071a0 	.word	0x080071a0
 8002588:	080071d0 	.word	0x080071d0
 800258c:	0800721c 	.word	0x0800721c
 8002590:	20005568 	.word	0x20005568
	} else if (mode == 0) {
 8002594:	f897 3094 	ldrb.w	r3, [r7, #148]	@ 0x94
 8002598:	2b00      	cmp	r3, #0
 800259a:	d147      	bne.n	800262c <routeBreadboard+0x374>
		selectedTrack->current_connections--; // Decrement current connections
 800259c:	6dbb      	ldr	r3, [r7, #88]	@ 0x58
 800259e:	68db      	ldr	r3, [r3, #12]
 80025a0:	1e5a      	subs	r2, r3, #1
 80025a2:	6dbb      	ldr	r3, [r7, #88]	@ 0x58
 80025a4:	60da      	str	r2, [r3, #12]
		if (selectedTrack->current_connections <= 0) { // If counter is 0, free track
 80025a6:	6dbb      	ldr	r3, [r7, #88]	@ 0x58
 80025a8:	68db      	ldr	r3, [r3, #12]
 80025aa:	2b00      	cmp	r3, #0
 80025ac:	dc10      	bgt.n	80025d0 <routeBreadboard+0x318>
			printf("Main Track %d is now free\n", selectedTrack->track_id);
 80025ae:	6dbb      	ldr	r3, [r7, #88]	@ 0x58
 80025b0:	681b      	ldr	r3, [r3, #0]
 80025b2:	4619      	mov	r1, r3
 80025b4:	4857      	ldr	r0, [pc, #348]	@ (8002714 <routeBreadboard+0x45c>)
 80025b6:	f002 fd8b 	bl	80050d0 <iprintf>
			selectedTrack->is_used = 0;
 80025ba:	6dbb      	ldr	r3, [r7, #88]	@ 0x58
 80025bc:	2200      	movs	r2, #0
 80025be:	609a      	str	r2, [r3, #8]
			selectedTrack->net_id = -1;
 80025c0:	6dbb      	ldr	r3, [r7, #88]	@ 0x58
 80025c2:	f04f 32ff 	mov.w	r2, #4294967295
 80025c6:	605a      	str	r2, [r3, #4]
			selectedTrack->current_connections = 0;
 80025c8:	6dbb      	ldr	r3, [r7, #88]	@ 0x58
 80025ca:	2200      	movs	r2, #0
 80025cc:	60da      	str	r2, [r3, #12]
 80025ce:	e007      	b.n	80025e0 <routeBreadboard+0x328>
		}else{
			printf("Main Track %d decremented, but still occupied. Current connections: %d\n", selectedTrack->track_id, selectedTrack->current_connections);
 80025d0:	6dbb      	ldr	r3, [r7, #88]	@ 0x58
 80025d2:	6819      	ldr	r1, [r3, #0]
 80025d4:	6dbb      	ldr	r3, [r7, #88]	@ 0x58
 80025d6:	68db      	ldr	r3, [r3, #12]
 80025d8:	461a      	mov	r2, r3
 80025da:	484f      	ldr	r0, [pc, #316]	@ (8002718 <routeBreadboard+0x460>)
 80025dc:	f002 fd78 	bl	80050d0 <iprintf>

		}

	    // Keep track of leds:
		ledsToMainTracks[breadboardPin1 - 1]--;
 80025e0:	6a7b      	ldr	r3, [r7, #36]	@ 0x24
 80025e2:	3b01      	subs	r3, #1
 80025e4:	4a4d      	ldr	r2, [pc, #308]	@ (800271c <routeBreadboard+0x464>)
 80025e6:	5cd2      	ldrb	r2, [r2, r3]
 80025e8:	3a01      	subs	r2, #1
 80025ea:	b2d1      	uxtb	r1, r2
 80025ec:	4a4b      	ldr	r2, [pc, #300]	@ (800271c <routeBreadboard+0x464>)
 80025ee:	54d1      	strb	r1, [r2, r3]
		ledsToMainTracks[breadboardPin2 - 1]--;
 80025f0:	6a3b      	ldr	r3, [r7, #32]
 80025f2:	3b01      	subs	r3, #1
 80025f4:	4a49      	ldr	r2, [pc, #292]	@ (800271c <routeBreadboard+0x464>)
 80025f6:	5cd2      	ldrb	r2, [r2, r3]
 80025f8:	3a01      	subs	r2, #1
 80025fa:	b2d1      	uxtb	r1, r2
 80025fc:	4a47      	ldr	r2, [pc, #284]	@ (800271c <routeBreadboard+0x464>)
 80025fe:	54d1      	strb	r1, [r2, r3]

		ledsToMainTracks[breadboardPin1 - 1] == 0 ? removeFromPin(breadboardPin1) : (void)0;
 8002600:	6a7b      	ldr	r3, [r7, #36]	@ 0x24
 8002602:	3b01      	subs	r3, #1
 8002604:	4a45      	ldr	r2, [pc, #276]	@ (800271c <routeBreadboard+0x464>)
 8002606:	5cd3      	ldrb	r3, [r2, r3]
 8002608:	2b00      	cmp	r3, #0
 800260a:	d104      	bne.n	8002616 <routeBreadboard+0x35e>
 800260c:	6a7b      	ldr	r3, [r7, #36]	@ 0x24
 800260e:	b2db      	uxtb	r3, r3
 8002610:	4618      	mov	r0, r3
 8002612:	f7fe f83d 	bl	8000690 <removeFromPin>
		ledsToMainTracks[breadboardPin2 - 1] == 0 ? removeFromPin(breadboardPin2) : (void)0;
 8002616:	6a3b      	ldr	r3, [r7, #32]
 8002618:	3b01      	subs	r3, #1
 800261a:	4a40      	ldr	r2, [pc, #256]	@ (800271c <routeBreadboard+0x464>)
 800261c:	5cd3      	ldrb	r3, [r2, r3]
 800261e:	2b00      	cmp	r3, #0
 8002620:	d104      	bne.n	800262c <routeBreadboard+0x374>
 8002622:	6a3b      	ldr	r3, [r7, #32]
 8002624:	b2db      	uxtb	r3, r3
 8002626:	4618      	mov	r0, r3
 8002628:	f7fe f832 	bl	8000690 <removeFromPin>
	}


	if (mux1 && mux2) {
 800262c:	6e3b      	ldr	r3, [r7, #96]	@ 0x60
 800262e:	2b00      	cmp	r3, #0
 8002630:	f000 8114 	beq.w	800285c <routeBreadboard+0x5a4>
 8002634:	6dfb      	ldr	r3, [r7, #92]	@ 0x5c
 8002636:	2b00      	cmp	r3, #0
 8002638:	f000 8110 	beq.w	800285c <routeBreadboard+0x5a4>
		const char *action1 = "SKIP";
 800263c:	4b38      	ldr	r3, [pc, #224]	@ (8002720 <routeBreadboard+0x468>)
 800263e:	64bb      	str	r3, [r7, #72]	@ 0x48
		const char *action2 = "SKIP";
 8002640:	4b37      	ldr	r3, [pc, #220]	@ (8002720 <routeBreadboard+0x468>)
 8002642:	647b      	str	r3, [r7, #68]	@ 0x44

		uint8_t *usage1 = &mux1->usage[xIndex1][yIndex1];
 8002644:	6f3b      	ldr	r3, [r7, #112]	@ 0x70
 8002646:	00da      	lsls	r2, r3, #3
 8002648:	6efb      	ldr	r3, [r7, #108]	@ 0x6c
 800264a:	4413      	add	r3, r2
 800264c:	3310      	adds	r3, #16
 800264e:	6e3a      	ldr	r2, [r7, #96]	@ 0x60
 8002650:	4413      	add	r3, r2
 8002652:	63fb      	str	r3, [r7, #60]	@ 0x3c
		uint8_t *usage2 = &mux2->usage[xIndex2][yIndex2];
 8002654:	6ebb      	ldr	r3, [r7, #104]	@ 0x68
 8002656:	00da      	lsls	r2, r3, #3
 8002658:	6e7b      	ldr	r3, [r7, #100]	@ 0x64
 800265a:	4413      	add	r3, r2
 800265c:	3310      	adds	r3, #16
 800265e:	6dfa      	ldr	r2, [r7, #92]	@ 0x5c
 8002660:	4413      	add	r3, r2
 8002662:	63bb      	str	r3, [r7, #56]	@ 0x38

		// Only connect if usage was 0 before
		if (mode == 1) {
 8002664:	f897 3094 	ldrb.w	r3, [r7, #148]	@ 0x94
 8002668:	2b01      	cmp	r3, #1
 800266a:	d144      	bne.n	80026f6 <routeBreadboard+0x43e>

			action1 = (*usage1 == 0) ? "Connecting" : "Already Connected";
 800266c:	6bfb      	ldr	r3, [r7, #60]	@ 0x3c
 800266e:	781b      	ldrb	r3, [r3, #0]
 8002670:	2b00      	cmp	r3, #0
 8002672:	d101      	bne.n	8002678 <routeBreadboard+0x3c0>
 8002674:	4b2b      	ldr	r3, [pc, #172]	@ (8002724 <routeBreadboard+0x46c>)
 8002676:	e000      	b.n	800267a <routeBreadboard+0x3c2>
 8002678:	4b2b      	ldr	r3, [pc, #172]	@ (8002728 <routeBreadboard+0x470>)
 800267a:	64bb      	str	r3, [r7, #72]	@ 0x48
			action2 = (*usage2 == 0) ? "Connecting" : "Already Connected";
 800267c:	6bbb      	ldr	r3, [r7, #56]	@ 0x38
 800267e:	781b      	ldrb	r3, [r3, #0]
 8002680:	2b00      	cmp	r3, #0
 8002682:	d101      	bne.n	8002688 <routeBreadboard+0x3d0>
 8002684:	4b27      	ldr	r3, [pc, #156]	@ (8002724 <routeBreadboard+0x46c>)
 8002686:	e000      	b.n	800268a <routeBreadboard+0x3d2>
 8002688:	4b27      	ldr	r3, [pc, #156]	@ (8002728 <routeBreadboard+0x470>)
 800268a:	647b      	str	r3, [r7, #68]	@ 0x44

			if (*usage1 == 0) setConnection(xIndex1, yIndex1, *mux1, 1);
 800268c:	6bfb      	ldr	r3, [r7, #60]	@ 0x3c
 800268e:	781b      	ldrb	r3, [r3, #0]
 8002690:	2b00      	cmp	r3, #0
 8002692:	d10f      	bne.n	80026b4 <routeBreadboard+0x3fc>
 8002694:	6e3c      	ldr	r4, [r7, #96]	@ 0x60
 8002696:	2301      	movs	r3, #1
 8002698:	9322      	str	r3, [sp, #136]	@ 0x88
 800269a:	4668      	mov	r0, sp
 800269c:	f104 0308 	add.w	r3, r4, #8
 80026a0:	2288      	movs	r2, #136	@ 0x88
 80026a2:	4619      	mov	r1, r3
 80026a4:	f002 ff51 	bl	800554a <memcpy>
 80026a8:	e894 000c 	ldmia.w	r4, {r2, r3}
 80026ac:	6ef9      	ldr	r1, [r7, #108]	@ 0x6c
 80026ae:	6f38      	ldr	r0, [r7, #112]	@ 0x70
 80026b0:	f7ff fd2c 	bl	800210c <setConnection>
			if (*usage2 == 0) setConnection(xIndex2, yIndex2, *mux2, 1);
 80026b4:	6bbb      	ldr	r3, [r7, #56]	@ 0x38
 80026b6:	781b      	ldrb	r3, [r3, #0]
 80026b8:	2b00      	cmp	r3, #0
 80026ba:	d10f      	bne.n	80026dc <routeBreadboard+0x424>
 80026bc:	6dfc      	ldr	r4, [r7, #92]	@ 0x5c
 80026be:	2301      	movs	r3, #1
 80026c0:	9322      	str	r3, [sp, #136]	@ 0x88
 80026c2:	4668      	mov	r0, sp
 80026c4:	f104 0308 	add.w	r3, r4, #8
 80026c8:	2288      	movs	r2, #136	@ 0x88
 80026ca:	4619      	mov	r1, r3
 80026cc:	f002 ff3d 	bl	800554a <memcpy>
 80026d0:	e894 000c 	ldmia.w	r4, {r2, r3}
 80026d4:	6e79      	ldr	r1, [r7, #100]	@ 0x64
 80026d6:	6eb8      	ldr	r0, [r7, #104]	@ 0x68
 80026d8:	f7ff fd18 	bl	800210c <setConnection>

			(*usage1)++;
 80026dc:	6bfb      	ldr	r3, [r7, #60]	@ 0x3c
 80026de:	781b      	ldrb	r3, [r3, #0]
 80026e0:	3301      	adds	r3, #1
 80026e2:	b2da      	uxtb	r2, r3
 80026e4:	6bfb      	ldr	r3, [r7, #60]	@ 0x3c
 80026e6:	701a      	strb	r2, [r3, #0]
			(*usage2)++;
 80026e8:	6bbb      	ldr	r3, [r7, #56]	@ 0x38
 80026ea:	781b      	ldrb	r3, [r3, #0]
 80026ec:	3301      	adds	r3, #1
 80026ee:	b2da      	uxtb	r2, r3
 80026f0:	6bbb      	ldr	r3, [r7, #56]	@ 0x38
 80026f2:	701a      	strb	r2, [r3, #0]
 80026f4:	e05c      	b.n	80027b0 <routeBreadboard+0x4f8>
		} else {

			action1 = (*usage1 == 1) ? "Disconnecting" : "Still In Use";
 80026f6:	6bfb      	ldr	r3, [r7, #60]	@ 0x3c
 80026f8:	781b      	ldrb	r3, [r3, #0]
 80026fa:	2b01      	cmp	r3, #1
 80026fc:	d101      	bne.n	8002702 <routeBreadboard+0x44a>
 80026fe:	4b0b      	ldr	r3, [pc, #44]	@ (800272c <routeBreadboard+0x474>)
 8002700:	e000      	b.n	8002704 <routeBreadboard+0x44c>
 8002702:	4b0b      	ldr	r3, [pc, #44]	@ (8002730 <routeBreadboard+0x478>)
 8002704:	64bb      	str	r3, [r7, #72]	@ 0x48
			action2 = (*usage2 == 1) ? "Disconnecting" : "Still In Use";
 8002706:	6bbb      	ldr	r3, [r7, #56]	@ 0x38
 8002708:	781b      	ldrb	r3, [r3, #0]
 800270a:	2b01      	cmp	r3, #1
 800270c:	d112      	bne.n	8002734 <routeBreadboard+0x47c>
 800270e:	4b07      	ldr	r3, [pc, #28]	@ (800272c <routeBreadboard+0x474>)
 8002710:	e011      	b.n	8002736 <routeBreadboard+0x47e>
 8002712:	bf00      	nop
 8002714:	08007250 	.word	0x08007250
 8002718:	0800726c 	.word	0x0800726c
 800271c:	20005568 	.word	0x20005568
 8002720:	080072b4 	.word	0x080072b4
 8002724:	080072bc 	.word	0x080072bc
 8002728:	080072c8 	.word	0x080072c8
 800272c:	080072dc 	.word	0x080072dc
 8002730:	080072ec 	.word	0x080072ec
 8002734:	4b51      	ldr	r3, [pc, #324]	@ (800287c <routeBreadboard+0x5c4>)
 8002736:	647b      	str	r3, [r7, #68]	@ 0x44

			if (*usage1 == 1) setConnection(xIndex1, yIndex1, *mux1, 0);
 8002738:	6bfb      	ldr	r3, [r7, #60]	@ 0x3c
 800273a:	781b      	ldrb	r3, [r3, #0]
 800273c:	2b01      	cmp	r3, #1
 800273e:	d10f      	bne.n	8002760 <routeBreadboard+0x4a8>
 8002740:	6e3c      	ldr	r4, [r7, #96]	@ 0x60
 8002742:	2300      	movs	r3, #0
 8002744:	9322      	str	r3, [sp, #136]	@ 0x88
 8002746:	4668      	mov	r0, sp
 8002748:	f104 0308 	add.w	r3, r4, #8
 800274c:	2288      	movs	r2, #136	@ 0x88
 800274e:	4619      	mov	r1, r3
 8002750:	f002 fefb 	bl	800554a <memcpy>
 8002754:	e894 000c 	ldmia.w	r4, {r2, r3}
 8002758:	6ef9      	ldr	r1, [r7, #108]	@ 0x6c
 800275a:	6f38      	ldr	r0, [r7, #112]	@ 0x70
 800275c:	f7ff fcd6 	bl	800210c <setConnection>
			if (*usage2 == 1) setConnection(xIndex2, yIndex2, *mux2, 0);
 8002760:	6bbb      	ldr	r3, [r7, #56]	@ 0x38
 8002762:	781b      	ldrb	r3, [r3, #0]
 8002764:	2b01      	cmp	r3, #1
 8002766:	d10f      	bne.n	8002788 <routeBreadboard+0x4d0>
 8002768:	6dfc      	ldr	r4, [r7, #92]	@ 0x5c
 800276a:	2300      	movs	r3, #0
 800276c:	9322      	str	r3, [sp, #136]	@ 0x88
 800276e:	4668      	mov	r0, sp
 8002770:	f104 0308 	add.w	r3, r4, #8
 8002774:	2288      	movs	r2, #136	@ 0x88
 8002776:	4619      	mov	r1, r3
 8002778:	f002 fee7 	bl	800554a <memcpy>
 800277c:	e894 000c 	ldmia.w	r4, {r2, r3}
 8002780:	6e79      	ldr	r1, [r7, #100]	@ 0x64
 8002782:	6eb8      	ldr	r0, [r7, #104]	@ 0x68
 8002784:	f7ff fcc2 	bl	800210c <setConnection>

			if (*usage1 > 0) (*usage1)--;
 8002788:	6bfb      	ldr	r3, [r7, #60]	@ 0x3c
 800278a:	781b      	ldrb	r3, [r3, #0]
 800278c:	2b00      	cmp	r3, #0
 800278e:	d005      	beq.n	800279c <routeBreadboard+0x4e4>
 8002790:	6bfb      	ldr	r3, [r7, #60]	@ 0x3c
 8002792:	781b      	ldrb	r3, [r3, #0]
 8002794:	3b01      	subs	r3, #1
 8002796:	b2da      	uxtb	r2, r3
 8002798:	6bfb      	ldr	r3, [r7, #60]	@ 0x3c
 800279a:	701a      	strb	r2, [r3, #0]
			if (*usage2 > 0) (*usage2)--;
 800279c:	6bbb      	ldr	r3, [r7, #56]	@ 0x38
 800279e:	781b      	ldrb	r3, [r3, #0]
 80027a0:	2b00      	cmp	r3, #0
 80027a2:	d005      	beq.n	80027b0 <routeBreadboard+0x4f8>
 80027a4:	6bbb      	ldr	r3, [r7, #56]	@ 0x38
 80027a6:	781b      	ldrb	r3, [r3, #0]
 80027a8:	3b01      	subs	r3, #1
 80027aa:	b2da      	uxtb	r2, r3
 80027ac:	6bbb      	ldr	r3, [r7, #56]	@ 0x38
 80027ae:	701a      	strb	r2, [r3, #0]
		}

		printf(
			"%s (X:%d, Y:%d, Usage:%d) at MUX[%ld] CS: %s, Pin: %s, Main Track: %d\n"
			"%s (X:%d, Y:%d, Usage:%d) at MUX[%ld] CS: %s, Pin: %s, Main Track: %d\n\n",
			action1, xIndex1, yIndex1, *usage1, mux1 - muxes + 1, getPortName(mux1->port), getPinName(mux1->pin), selectedTrack->track_id,
 80027b0:	6bfb      	ldr	r3, [r7, #60]	@ 0x3c
 80027b2:	781b      	ldrb	r3, [r3, #0]
		printf(
 80027b4:	617b      	str	r3, [r7, #20]
			action1, xIndex1, yIndex1, *usage1, mux1 - muxes + 1, getPortName(mux1->port), getPinName(mux1->pin), selectedTrack->track_id,
 80027b6:	6e3a      	ldr	r2, [r7, #96]	@ 0x60
 80027b8:	69bb      	ldr	r3, [r7, #24]
 80027ba:	1ad3      	subs	r3, r2, r3
 80027bc:	111b      	asrs	r3, r3, #4
 80027be:	4a30      	ldr	r2, [pc, #192]	@ (8002880 <routeBreadboard+0x5c8>)
 80027c0:	fb02 f303 	mul.w	r3, r2, r3
		printf(
 80027c4:	1c5c      	adds	r4, r3, #1
 80027c6:	6e3b      	ldr	r3, [r7, #96]	@ 0x60
 80027c8:	681b      	ldr	r3, [r3, #0]
 80027ca:	4618      	mov	r0, r3
 80027cc:	f7ff fb74 	bl	8001eb8 <getPortName>
 80027d0:	6138      	str	r0, [r7, #16]
 80027d2:	6e3b      	ldr	r3, [r7, #96]	@ 0x60
 80027d4:	685b      	ldr	r3, [r3, #4]
 80027d6:	4618      	mov	r0, r3
 80027d8:	f7ff fbac 	bl	8001f34 <getPinName>
 80027dc:	60f8      	str	r0, [r7, #12]
 80027de:	6dbb      	ldr	r3, [r7, #88]	@ 0x58
 80027e0:	681d      	ldr	r5, [r3, #0]
			action2, xIndex2, yIndex2, *usage2, mux2 - muxes + 1, getPortName(mux2->port), getPinName(mux2->pin), selectedTrack->track_id
 80027e2:	6bbb      	ldr	r3, [r7, #56]	@ 0x38
 80027e4:	781b      	ldrb	r3, [r3, #0]
		printf(
 80027e6:	60bb      	str	r3, [r7, #8]
			action2, xIndex2, yIndex2, *usage2, mux2 - muxes + 1, getPortName(mux2->port), getPinName(mux2->pin), selectedTrack->track_id
 80027e8:	6dfa      	ldr	r2, [r7, #92]	@ 0x5c
 80027ea:	69bb      	ldr	r3, [r7, #24]
 80027ec:	1ad3      	subs	r3, r2, r3
 80027ee:	111b      	asrs	r3, r3, #4
 80027f0:	4a23      	ldr	r2, [pc, #140]	@ (8002880 <routeBreadboard+0x5c8>)
 80027f2:	fb02 f303 	mul.w	r3, r2, r3
		printf(
 80027f6:	1c5e      	adds	r6, r3, #1
 80027f8:	6dfb      	ldr	r3, [r7, #92]	@ 0x5c
 80027fa:	681b      	ldr	r3, [r3, #0]
 80027fc:	4618      	mov	r0, r3
 80027fe:	f7ff fb5b 	bl	8001eb8 <getPortName>
 8002802:	6078      	str	r0, [r7, #4]
 8002804:	6dfb      	ldr	r3, [r7, #92]	@ 0x5c
 8002806:	685b      	ldr	r3, [r3, #4]
 8002808:	4618      	mov	r0, r3
 800280a:	f7ff fb93 	bl	8001f34 <getPinName>
 800280e:	4602      	mov	r2, r0
 8002810:	6dbb      	ldr	r3, [r7, #88]	@ 0x58
 8002812:	681b      	ldr	r3, [r3, #0]
 8002814:	930c      	str	r3, [sp, #48]	@ 0x30
 8002816:	920b      	str	r2, [sp, #44]	@ 0x2c
 8002818:	687a      	ldr	r2, [r7, #4]
 800281a:	920a      	str	r2, [sp, #40]	@ 0x28
 800281c:	9609      	str	r6, [sp, #36]	@ 0x24
 800281e:	68ba      	ldr	r2, [r7, #8]
 8002820:	9208      	str	r2, [sp, #32]
 8002822:	6e7b      	ldr	r3, [r7, #100]	@ 0x64
 8002824:	9307      	str	r3, [sp, #28]
 8002826:	6ebb      	ldr	r3, [r7, #104]	@ 0x68
 8002828:	9306      	str	r3, [sp, #24]
 800282a:	6c7b      	ldr	r3, [r7, #68]	@ 0x44
 800282c:	9305      	str	r3, [sp, #20]
 800282e:	9504      	str	r5, [sp, #16]
 8002830:	68fa      	ldr	r2, [r7, #12]
 8002832:	9203      	str	r2, [sp, #12]
 8002834:	693a      	ldr	r2, [r7, #16]
 8002836:	9202      	str	r2, [sp, #8]
 8002838:	9401      	str	r4, [sp, #4]
 800283a:	697b      	ldr	r3, [r7, #20]
 800283c:	9300      	str	r3, [sp, #0]
 800283e:	6efb      	ldr	r3, [r7, #108]	@ 0x6c
 8002840:	6f3a      	ldr	r2, [r7, #112]	@ 0x70
 8002842:	6cb9      	ldr	r1, [r7, #72]	@ 0x48
 8002844:	480f      	ldr	r0, [pc, #60]	@ (8002884 <routeBreadboard+0x5cc>)
 8002846:	f002 fc43 	bl	80050d0 <iprintf>
		);

		fflush(stdout);
 800284a:	4b0f      	ldr	r3, [pc, #60]	@ (8002888 <routeBreadboard+0x5d0>)
 800284c:	681b      	ldr	r3, [r3, #0]
 800284e:	689b      	ldr	r3, [r3, #8]
 8002850:	4618      	mov	r0, r3
 8002852:	f002 fb67 	bl	8004f24 <fflush>

		sendPixelData();
 8002856:	f7fd ff97 	bl	8000788 <sendPixelData>
	if (mux1 && mux2) {
 800285a:	e00c      	b.n	8002876 <routeBreadboard+0x5be>
	} else {
		printf("Error: Unable to route pins - No available MUX found!\n");
 800285c:	480b      	ldr	r0, [pc, #44]	@ (800288c <routeBreadboard+0x5d4>)
 800285e:	f002 fca7 	bl	80051b0 <puts>
		fflush(stdout);
 8002862:	4b09      	ldr	r3, [pc, #36]	@ (8002888 <routeBreadboard+0x5d0>)
 8002864:	681b      	ldr	r3, [r3, #0]
 8002866:	689b      	ldr	r3, [r3, #8]
 8002868:	4618      	mov	r0, r3
 800286a:	f002 fb5b 	bl	8004f24 <fflush>
 800286e:	e002      	b.n	8002876 <routeBreadboard+0x5be>
    	return; // Maybe message to UART idk?
 8002870:	bf00      	nop
 8002872:	e000      	b.n	8002876 <routeBreadboard+0x5be>
		return; // Maybe message to UART idk?
 8002874:	bf00      	nop
	}
}
 8002876:	377c      	adds	r7, #124	@ 0x7c
 8002878:	46bd      	mov	sp, r7
 800287a:	bdf0      	pop	{r4, r5, r6, r7, pc}
 800287c:	080072ec 	.word	0x080072ec
 8002880:	38e38e39 	.word	0x38e38e39
 8002884:	080072fc 	.word	0x080072fc
 8002888:	20001ff0 	.word	0x20001ff0
 800288c:	0800738c 	.word	0x0800738c

08002890 <routeSignalAnalyzer>:

void routeSignalAnalyzer(int net_id, MUX *muxes, uint8_t mode) {
 8002890:	b590      	push	{r4, r7, lr}
 8002892:	b0b7      	sub	sp, #220	@ 0xdc
 8002894:	af24      	add	r7, sp, #144	@ 0x90
 8002896:	60f8      	str	r0, [r7, #12]
 8002898:	60b9      	str	r1, [r7, #8]
 800289a:	4613      	mov	r3, r2
 800289c:	71fb      	strb	r3, [r7, #7]
    MainTrack *selectedTrack = NULL;
 800289e:	2300      	movs	r3, #0
 80028a0:	647b      	str	r3, [r7, #68]	@ 0x44
    int trackIndex = -1;
 80028a2:	f04f 33ff 	mov.w	r3, #4294967295
 80028a6:	627b      	str	r3, [r7, #36]	@ 0x24
    char trackName[10];  // Buffer for formatted string
    int xIndex = -1, yIndex = -1;
 80028a8:	f04f 33ff 	mov.w	r3, #4294967295
 80028ac:	643b      	str	r3, [r7, #64]	@ 0x40
 80028ae:	f04f 33ff 	mov.w	r3, #4294967295
 80028b2:	63fb      	str	r3, [r7, #60]	@ 0x3c
    MUX *mux = NULL;
 80028b4:	2300      	movs	r3, #0
 80028b6:	63bb      	str	r3, [r7, #56]	@ 0x38

    // Step 1: Find a main track that is used and has the matching net_id
    for (int i = 0; i < 32; i++) {
 80028b8:	2300      	movs	r3, #0
 80028ba:	637b      	str	r3, [r7, #52]	@ 0x34
 80028bc:	e02b      	b.n	8002916 <routeSignalAnalyzer+0x86>
        if (mainTracks[i].is_used && mainTracks[i].net_id == net_id) {
 80028be:	4a9e      	ldr	r2, [pc, #632]	@ (8002b38 <routeSignalAnalyzer+0x2a8>)
 80028c0:	6b7b      	ldr	r3, [r7, #52]	@ 0x34
 80028c2:	011b      	lsls	r3, r3, #4
 80028c4:	4413      	add	r3, r2
 80028c6:	3308      	adds	r3, #8
 80028c8:	681b      	ldr	r3, [r3, #0]
 80028ca:	2b00      	cmp	r3, #0
 80028cc:	d020      	beq.n	8002910 <routeSignalAnalyzer+0x80>
 80028ce:	4a9a      	ldr	r2, [pc, #616]	@ (8002b38 <routeSignalAnalyzer+0x2a8>)
 80028d0:	6b7b      	ldr	r3, [r7, #52]	@ 0x34
 80028d2:	011b      	lsls	r3, r3, #4
 80028d4:	4413      	add	r3, r2
 80028d6:	3304      	adds	r3, #4
 80028d8:	681b      	ldr	r3, [r3, #0]
 80028da:	68fa      	ldr	r2, [r7, #12]
 80028dc:	429a      	cmp	r2, r3
 80028de:	d117      	bne.n	8002910 <routeSignalAnalyzer+0x80>
            selectedTrack = &mainTracks[i];
 80028e0:	6b7b      	ldr	r3, [r7, #52]	@ 0x34
 80028e2:	011b      	lsls	r3, r3, #4
 80028e4:	4a94      	ldr	r2, [pc, #592]	@ (8002b38 <routeSignalAnalyzer+0x2a8>)
 80028e6:	4413      	add	r3, r2
 80028e8:	647b      	str	r3, [r7, #68]	@ 0x44
            trackIndex = i;
 80028ea:	6b7b      	ldr	r3, [r7, #52]	@ 0x34
 80028ec:	627b      	str	r3, [r7, #36]	@ 0x24
            snprintf(trackName, sizeof(trackName), "MT_%d", trackIndex + 1); // Convert to "MT_X"
 80028ee:	6a7b      	ldr	r3, [r7, #36]	@ 0x24
 80028f0:	3301      	adds	r3, #1
 80028f2:	f107 0010 	add.w	r0, r7, #16
 80028f6:	4a91      	ldr	r2, [pc, #580]	@ (8002b3c <routeSignalAnalyzer+0x2ac>)
 80028f8:	210a      	movs	r1, #10
 80028fa:	f002 fc61 	bl	80051c0 <sniprintf>
			printf("Found Main Track %d (Name: %s) for Net ID %d\n", selectedTrack->track_id, trackName, net_id);
 80028fe:	6c7b      	ldr	r3, [r7, #68]	@ 0x44
 8002900:	6819      	ldr	r1, [r3, #0]
 8002902:	f107 0210 	add.w	r2, r7, #16
 8002906:	68fb      	ldr	r3, [r7, #12]
 8002908:	488d      	ldr	r0, [pc, #564]	@ (8002b40 <routeSignalAnalyzer+0x2b0>)
 800290a:	f002 fbe1 	bl	80050d0 <iprintf>
			break;
 800290e:	e005      	b.n	800291c <routeSignalAnalyzer+0x8c>
    for (int i = 0; i < 32; i++) {
 8002910:	6b7b      	ldr	r3, [r7, #52]	@ 0x34
 8002912:	3301      	adds	r3, #1
 8002914:	637b      	str	r3, [r7, #52]	@ 0x34
 8002916:	6b7b      	ldr	r3, [r7, #52]	@ 0x34
 8002918:	2b1f      	cmp	r3, #31
 800291a:	ddd0      	ble.n	80028be <routeSignalAnalyzer+0x2e>
        }
    }

    if (!selectedTrack) {
 800291c:	6c7b      	ldr	r3, [r7, #68]	@ 0x44
 800291e:	2b00      	cmp	r3, #0
 8002920:	d104      	bne.n	800292c <routeSignalAnalyzer+0x9c>
        printf("Error: No active Main Track found for Net ID %d\n", net_id);
 8002922:	68f9      	ldr	r1, [r7, #12]
 8002924:	4887      	ldr	r0, [pc, #540]	@ (8002b44 <routeSignalAnalyzer+0x2b4>)
 8002926:	f002 fbd3 	bl	80050d0 <iprintf>
        return;
 800292a:	e102      	b.n	8002b32 <routeSignalAnalyzer+0x2a2>
    }

    // Step 2: Check MUX 33 and 34
    MUX *mux33 = &muxes[32]; // MUX 33 (Array index 32)
 800292c:	68bb      	ldr	r3, [r7, #8]
 800292e:	f503 5390 	add.w	r3, r3, #4608	@ 0x1200
 8002932:	623b      	str	r3, [r7, #32]
    MUX *mux34 = &muxes[33]; // MUX 34 (Array index 33)
 8002934:	68bb      	ldr	r3, [r7, #8]
 8002936:	f503 5394 	add.w	r3, r3, #4736	@ 0x1280
 800293a:	3310      	adds	r3, #16
 800293c:	61fb      	str	r3, [r7, #28]

    // Step 3: Look for the track ID in X Pins of MUX 33 and 34

    for (int i = 0; i < 16; i++) {
 800293e:	2300      	movs	r3, #0
 8002940:	633b      	str	r3, [r7, #48]	@ 0x30
 8002942:	e028      	b.n	8002996 <routeSignalAnalyzer+0x106>
        if (strcmp((*mux33->xPins)[i], trackName) == 0) {
 8002944:	6a3b      	ldr	r3, [r7, #32]
 8002946:	689b      	ldr	r3, [r3, #8]
 8002948:	6b3a      	ldr	r2, [r7, #48]	@ 0x30
 800294a:	f853 3022 	ldr.w	r3, [r3, r2, lsl #2]
 800294e:	f107 0210 	add.w	r2, r7, #16
 8002952:	4611      	mov	r1, r2
 8002954:	4618      	mov	r0, r3
 8002956:	f7fd fc65 	bl	8000224 <strcmp>
 800295a:	4603      	mov	r3, r0
 800295c:	2b00      	cmp	r3, #0
 800295e:	d104      	bne.n	800296a <routeSignalAnalyzer+0xda>
            xIndex = i;
 8002960:	6b3b      	ldr	r3, [r7, #48]	@ 0x30
 8002962:	643b      	str	r3, [r7, #64]	@ 0x40
            mux = mux33;
 8002964:	6a3b      	ldr	r3, [r7, #32]
 8002966:	63bb      	str	r3, [r7, #56]	@ 0x38
            break;
 8002968:	e018      	b.n	800299c <routeSignalAnalyzer+0x10c>
        }
        if (strcmp((*mux34->xPins)[i], trackName) == 0) {
 800296a:	69fb      	ldr	r3, [r7, #28]
 800296c:	689b      	ldr	r3, [r3, #8]
 800296e:	6b3a      	ldr	r2, [r7, #48]	@ 0x30
 8002970:	f853 3022 	ldr.w	r3, [r3, r2, lsl #2]
 8002974:	f107 0210 	add.w	r2, r7, #16
 8002978:	4611      	mov	r1, r2
 800297a:	4618      	mov	r0, r3
 800297c:	f7fd fc52 	bl	8000224 <strcmp>
 8002980:	4603      	mov	r3, r0
 8002982:	2b00      	cmp	r3, #0
 8002984:	d104      	bne.n	8002990 <routeSignalAnalyzer+0x100>
            xIndex = i;
 8002986:	6b3b      	ldr	r3, [r7, #48]	@ 0x30
 8002988:	643b      	str	r3, [r7, #64]	@ 0x40
            mux = mux34;
 800298a:	69fb      	ldr	r3, [r7, #28]
 800298c:	63bb      	str	r3, [r7, #56]	@ 0x38
            break;
 800298e:	e005      	b.n	800299c <routeSignalAnalyzer+0x10c>
    for (int i = 0; i < 16; i++) {
 8002990:	6b3b      	ldr	r3, [r7, #48]	@ 0x30
 8002992:	3301      	adds	r3, #1
 8002994:	633b      	str	r3, [r7, #48]	@ 0x30
 8002996:	6b3b      	ldr	r3, [r7, #48]	@ 0x30
 8002998:	2b0f      	cmp	r3, #15
 800299a:	ddd3      	ble.n	8002944 <routeSignalAnalyzer+0xb4>
        }
    }

    if (mode == 1) {  // Connecting
 800299c:	79fb      	ldrb	r3, [r7, #7]
 800299e:	2b01      	cmp	r3, #1
 80029a0:	d139      	bne.n	8002a16 <routeSignalAnalyzer+0x186>
		for (int i = 0; i < 8; i++) {
 80029a2:	2300      	movs	r3, #0
 80029a4:	62fb      	str	r3, [r7, #44]	@ 0x2c
 80029a6:	e032      	b.n	8002a0e <routeSignalAnalyzer+0x17e>
			if (!signalAnalyzerTracks[i].is_used) {
 80029a8:	4967      	ldr	r1, [pc, #412]	@ (8002b48 <routeSignalAnalyzer+0x2b8>)
 80029aa:	6afa      	ldr	r2, [r7, #44]	@ 0x2c
 80029ac:	4613      	mov	r3, r2
 80029ae:	005b      	lsls	r3, r3, #1
 80029b0:	4413      	add	r3, r2
 80029b2:	009b      	lsls	r3, r3, #2
 80029b4:	440b      	add	r3, r1
 80029b6:	3308      	adds	r3, #8
 80029b8:	681b      	ldr	r3, [r3, #0]
 80029ba:	2b00      	cmp	r3, #0
 80029bc:	d124      	bne.n	8002a08 <routeSignalAnalyzer+0x178>
				yIndex = i;
 80029be:	6afb      	ldr	r3, [r7, #44]	@ 0x2c
 80029c0:	63fb      	str	r3, [r7, #60]	@ 0x3c
				signalAnalyzerTracks[i].is_used = 1;
 80029c2:	4961      	ldr	r1, [pc, #388]	@ (8002b48 <routeSignalAnalyzer+0x2b8>)
 80029c4:	6afa      	ldr	r2, [r7, #44]	@ 0x2c
 80029c6:	4613      	mov	r3, r2
 80029c8:	005b      	lsls	r3, r3, #1
 80029ca:	4413      	add	r3, r2
 80029cc:	009b      	lsls	r3, r3, #2
 80029ce:	440b      	add	r3, r1
 80029d0:	3308      	adds	r3, #8
 80029d2:	2201      	movs	r2, #1
 80029d4:	601a      	str	r2, [r3, #0]
				signalAnalyzerTracks[i].net_id = net_id;
 80029d6:	495c      	ldr	r1, [pc, #368]	@ (8002b48 <routeSignalAnalyzer+0x2b8>)
 80029d8:	6afa      	ldr	r2, [r7, #44]	@ 0x2c
 80029da:	4613      	mov	r3, r2
 80029dc:	005b      	lsls	r3, r3, #1
 80029de:	4413      	add	r3, r2
 80029e0:	009b      	lsls	r3, r3, #2
 80029e2:	440b      	add	r3, r1
 80029e4:	3304      	adds	r3, #4
 80029e6:	68fa      	ldr	r2, [r7, #12]
 80029e8:	601a      	str	r2, [r3, #0]
				signalAnalyzerTracks[i].track_id = xIndex;
 80029ea:	4957      	ldr	r1, [pc, #348]	@ (8002b48 <routeSignalAnalyzer+0x2b8>)
 80029ec:	6afa      	ldr	r2, [r7, #44]	@ 0x2c
 80029ee:	4613      	mov	r3, r2
 80029f0:	005b      	lsls	r3, r3, #1
 80029f2:	4413      	add	r3, r2
 80029f4:	009b      	lsls	r3, r3, #2
 80029f6:	440b      	add	r3, r1
 80029f8:	6c3a      	ldr	r2, [r7, #64]	@ 0x40
 80029fa:	601a      	str	r2, [r3, #0]
				printf("Assigned Y Pin %d to Net ID %d\n", yIndex, net_id);
 80029fc:	68fa      	ldr	r2, [r7, #12]
 80029fe:	6bf9      	ldr	r1, [r7, #60]	@ 0x3c
 8002a00:	4852      	ldr	r0, [pc, #328]	@ (8002b4c <routeSignalAnalyzer+0x2bc>)
 8002a02:	f002 fb65 	bl	80050d0 <iprintf>
				break;
 8002a06:	e04d      	b.n	8002aa4 <routeSignalAnalyzer+0x214>
		for (int i = 0; i < 8; i++) {
 8002a08:	6afb      	ldr	r3, [r7, #44]	@ 0x2c
 8002a0a:	3301      	adds	r3, #1
 8002a0c:	62fb      	str	r3, [r7, #44]	@ 0x2c
 8002a0e:	6afb      	ldr	r3, [r7, #44]	@ 0x2c
 8002a10:	2b07      	cmp	r3, #7
 8002a12:	ddc9      	ble.n	80029a8 <routeSignalAnalyzer+0x118>
 8002a14:	e046      	b.n	8002aa4 <routeSignalAnalyzer+0x214>
			}
		}
	} else {  // Disconnecting
		for (int i = 0; i < 8; i++) {
 8002a16:	2300      	movs	r3, #0
 8002a18:	62bb      	str	r3, [r7, #40]	@ 0x28
 8002a1a:	e040      	b.n	8002a9e <routeSignalAnalyzer+0x20e>
			if (signalAnalyzerTracks[i].is_used && signalAnalyzerTracks[i].net_id == net_id) {
 8002a1c:	494a      	ldr	r1, [pc, #296]	@ (8002b48 <routeSignalAnalyzer+0x2b8>)
 8002a1e:	6aba      	ldr	r2, [r7, #40]	@ 0x28
 8002a20:	4613      	mov	r3, r2
 8002a22:	005b      	lsls	r3, r3, #1
 8002a24:	4413      	add	r3, r2
 8002a26:	009b      	lsls	r3, r3, #2
 8002a28:	440b      	add	r3, r1
 8002a2a:	3308      	adds	r3, #8
 8002a2c:	681b      	ldr	r3, [r3, #0]
 8002a2e:	2b00      	cmp	r3, #0
 8002a30:	d032      	beq.n	8002a98 <routeSignalAnalyzer+0x208>
 8002a32:	4945      	ldr	r1, [pc, #276]	@ (8002b48 <routeSignalAnalyzer+0x2b8>)
 8002a34:	6aba      	ldr	r2, [r7, #40]	@ 0x28
 8002a36:	4613      	mov	r3, r2
 8002a38:	005b      	lsls	r3, r3, #1
 8002a3a:	4413      	add	r3, r2
 8002a3c:	009b      	lsls	r3, r3, #2
 8002a3e:	440b      	add	r3, r1
 8002a40:	3304      	adds	r3, #4
 8002a42:	681b      	ldr	r3, [r3, #0]
 8002a44:	68fa      	ldr	r2, [r7, #12]
 8002a46:	429a      	cmp	r2, r3
 8002a48:	d126      	bne.n	8002a98 <routeSignalAnalyzer+0x208>
				yIndex = i;
 8002a4a:	6abb      	ldr	r3, [r7, #40]	@ 0x28
 8002a4c:	63fb      	str	r3, [r7, #60]	@ 0x3c
				signalAnalyzerTracks[i].is_used = 0;
 8002a4e:	493e      	ldr	r1, [pc, #248]	@ (8002b48 <routeSignalAnalyzer+0x2b8>)
 8002a50:	6aba      	ldr	r2, [r7, #40]	@ 0x28
 8002a52:	4613      	mov	r3, r2
 8002a54:	005b      	lsls	r3, r3, #1
 8002a56:	4413      	add	r3, r2
 8002a58:	009b      	lsls	r3, r3, #2
 8002a5a:	440b      	add	r3, r1
 8002a5c:	3308      	adds	r3, #8
 8002a5e:	2200      	movs	r2, #0
 8002a60:	601a      	str	r2, [r3, #0]
				signalAnalyzerTracks[i].net_id = -1;
 8002a62:	4939      	ldr	r1, [pc, #228]	@ (8002b48 <routeSignalAnalyzer+0x2b8>)
 8002a64:	6aba      	ldr	r2, [r7, #40]	@ 0x28
 8002a66:	4613      	mov	r3, r2
 8002a68:	005b      	lsls	r3, r3, #1
 8002a6a:	4413      	add	r3, r2
 8002a6c:	009b      	lsls	r3, r3, #2
 8002a6e:	440b      	add	r3, r1
 8002a70:	3304      	adds	r3, #4
 8002a72:	f04f 32ff 	mov.w	r2, #4294967295
 8002a76:	601a      	str	r2, [r3, #0]
				signalAnalyzerTracks[i].track_id = -1;
 8002a78:	4933      	ldr	r1, [pc, #204]	@ (8002b48 <routeSignalAnalyzer+0x2b8>)
 8002a7a:	6aba      	ldr	r2, [r7, #40]	@ 0x28
 8002a7c:	4613      	mov	r3, r2
 8002a7e:	005b      	lsls	r3, r3, #1
 8002a80:	4413      	add	r3, r2
 8002a82:	009b      	lsls	r3, r3, #2
 8002a84:	440b      	add	r3, r1
 8002a86:	f04f 32ff 	mov.w	r2, #4294967295
 8002a8a:	601a      	str	r2, [r3, #0]
				printf("Freed Y Pin %d for Net ID %d\n", yIndex, net_id);
 8002a8c:	68fa      	ldr	r2, [r7, #12]
 8002a8e:	6bf9      	ldr	r1, [r7, #60]	@ 0x3c
 8002a90:	482f      	ldr	r0, [pc, #188]	@ (8002b50 <routeSignalAnalyzer+0x2c0>)
 8002a92:	f002 fb1d 	bl	80050d0 <iprintf>
				break;
 8002a96:	e005      	b.n	8002aa4 <routeSignalAnalyzer+0x214>
		for (int i = 0; i < 8; i++) {
 8002a98:	6abb      	ldr	r3, [r7, #40]	@ 0x28
 8002a9a:	3301      	adds	r3, #1
 8002a9c:	62bb      	str	r3, [r7, #40]	@ 0x28
 8002a9e:	6abb      	ldr	r3, [r7, #40]	@ 0x28
 8002aa0:	2b07      	cmp	r3, #7
 8002aa2:	ddbb      	ble.n	8002a1c <routeSignalAnalyzer+0x18c>
			}
		}
	}

	if (yIndex == -1) {
 8002aa4:	6bfb      	ldr	r3, [r7, #60]	@ 0x3c
 8002aa6:	f1b3 3fff 	cmp.w	r3, #4294967295
 8002aaa:	d103      	bne.n	8002ab4 <routeSignalAnalyzer+0x224>
		printf("Error: No available Y Pin found for Signal Analyzer\n");
 8002aac:	4829      	ldr	r0, [pc, #164]	@ (8002b54 <routeSignalAnalyzer+0x2c4>)
 8002aae:	f002 fb7f 	bl	80051b0 <puts>
		return;
 8002ab2:	e03e      	b.n	8002b32 <routeSignalAnalyzer+0x2a2>
	}

	printf("Connecting Signal Analyzer to MUX %d at (X: %d, Y: %d) for Net ID %d\n",
 8002ab4:	6bba      	ldr	r2, [r7, #56]	@ 0x38
 8002ab6:	6a3b      	ldr	r3, [r7, #32]
 8002ab8:	429a      	cmp	r2, r3
 8002aba:	d101      	bne.n	8002ac0 <routeSignalAnalyzer+0x230>
 8002abc:	2121      	movs	r1, #33	@ 0x21
 8002abe:	e000      	b.n	8002ac2 <routeSignalAnalyzer+0x232>
 8002ac0:	2122      	movs	r1, #34	@ 0x22
 8002ac2:	68fb      	ldr	r3, [r7, #12]
 8002ac4:	9300      	str	r3, [sp, #0]
 8002ac6:	6bfb      	ldr	r3, [r7, #60]	@ 0x3c
 8002ac8:	6c3a      	ldr	r2, [r7, #64]	@ 0x40
 8002aca:	4823      	ldr	r0, [pc, #140]	@ (8002b58 <routeSignalAnalyzer+0x2c8>)
 8002acc:	f002 fb00 	bl	80050d0 <iprintf>
		   (mux == mux33 ? 33 : 34), xIndex, yIndex, net_id);

	printf("\n");
 8002ad0:	200a      	movs	r0, #10
 8002ad2:	f002 fb0f 	bl	80050f4 <putchar>

	// Step 5: Set the connection
	setConnection(xIndex, yIndex, *mux, mode);
 8002ad6:	6bbc      	ldr	r4, [r7, #56]	@ 0x38
 8002ad8:	79fb      	ldrb	r3, [r7, #7]
 8002ada:	9322      	str	r3, [sp, #136]	@ 0x88
 8002adc:	4668      	mov	r0, sp
 8002ade:	f104 0308 	add.w	r3, r4, #8
 8002ae2:	2288      	movs	r2, #136	@ 0x88
 8002ae4:	4619      	mov	r1, r3
 8002ae6:	f002 fd30 	bl	800554a <memcpy>
 8002aea:	e894 000c 	ldmia.w	r4, {r2, r3}
 8002aee:	6bf9      	ldr	r1, [r7, #60]	@ 0x3c
 8002af0:	6c38      	ldr	r0, [r7, #64]	@ 0x40
 8002af2:	f7ff fb0b 	bl	800210c <setConnection>

	if (mode == 1 && signalMode == SIGNAL_MODE_ADC) {
 8002af6:	79fb      	ldrb	r3, [r7, #7]
 8002af8:	2b01      	cmp	r3, #1
 8002afa:	d10e      	bne.n	8002b1a <routeSignalAnalyzer+0x28a>
 8002afc:	4b17      	ldr	r3, [pc, #92]	@ (8002b5c <routeSignalAnalyzer+0x2cc>)
 8002afe:	781b      	ldrb	r3, [r3, #0]
 8002b00:	b2db      	uxtb	r3, r3
 8002b02:	2b00      	cmp	r3, #0
 8002b04:	d109      	bne.n	8002b1a <routeSignalAnalyzer+0x28a>
	    adcChannelConfig.channel_enabled[yIndex] = 1;
 8002b06:	4a16      	ldr	r2, [pc, #88]	@ (8002b60 <routeSignalAnalyzer+0x2d0>)
 8002b08:	6bfb      	ldr	r3, [r7, #60]	@ 0x3c
 8002b0a:	4413      	add	r3, r2
 8002b0c:	2201      	movs	r2, #1
 8002b0e:	701a      	strb	r2, [r3, #0]
	    printf("(ADC%d) ENABLED\n", yIndex);
 8002b10:	6bf9      	ldr	r1, [r7, #60]	@ 0x3c
 8002b12:	4814      	ldr	r0, [pc, #80]	@ (8002b64 <routeSignalAnalyzer+0x2d4>)
 8002b14:	f002 fadc 	bl	80050d0 <iprintf>
 8002b18:	e00b      	b.n	8002b32 <routeSignalAnalyzer+0x2a2>
	} else if (mode == 0) {
 8002b1a:	79fb      	ldrb	r3, [r7, #7]
 8002b1c:	2b00      	cmp	r3, #0
 8002b1e:	d108      	bne.n	8002b32 <routeSignalAnalyzer+0x2a2>
	    adcChannelConfig.channel_enabled[yIndex] = 0;
 8002b20:	4a0f      	ldr	r2, [pc, #60]	@ (8002b60 <routeSignalAnalyzer+0x2d0>)
 8002b22:	6bfb      	ldr	r3, [r7, #60]	@ 0x3c
 8002b24:	4413      	add	r3, r2
 8002b26:	2200      	movs	r2, #0
 8002b28:	701a      	strb	r2, [r3, #0]
	    printf("(ADC%d) DISABLED\n", yIndex);
 8002b2a:	6bf9      	ldr	r1, [r7, #60]	@ 0x3c
 8002b2c:	480e      	ldr	r0, [pc, #56]	@ (8002b68 <routeSignalAnalyzer+0x2d8>)
 8002b2e:	f002 facf 	bl	80050d0 <iprintf>
	}
}
 8002b32:	374c      	adds	r7, #76	@ 0x4c
 8002b34:	46bd      	mov	sp, r7
 8002b36:	bd90      	pop	{r4, r7, pc}
 8002b38:	20005308 	.word	0x20005308
 8002b3c:	080073c4 	.word	0x080073c4
 8002b40:	080073cc 	.word	0x080073cc
 8002b44:	080073fc 	.word	0x080073fc
 8002b48:	20005508 	.word	0x20005508
 8002b4c:	08007430 	.word	0x08007430
 8002b50:	08007450 	.word	0x08007450
 8002b54:	08007470 	.word	0x08007470
 8002b58:	080074a4 	.word	0x080074a4
 8002b5c:	20005660 	.word	0x20005660
 8002b60:	20005658 	.word	0x20005658
 8002b64:	080074ec 	.word	0x080074ec
 8002b68:	08007500 	.word	0x08007500

08002b6c <clear>:

void clear() {
 8002b6c:	b580      	push	{r7, lr}
 8002b6e:	b088      	sub	sp, #32
 8002b70:	af00      	add	r7, sp, #0
    // Step 1: Clear all main tracks
    for (int i = 0; i < 32; i++) {
 8002b72:	2300      	movs	r3, #0
 8002b74:	61fb      	str	r3, [r7, #28]
 8002b76:	e01f      	b.n	8002bb8 <clear+0x4c>
        mainTracks[i].is_used = 0;
 8002b78:	4a52      	ldr	r2, [pc, #328]	@ (8002cc4 <clear+0x158>)
 8002b7a:	69fb      	ldr	r3, [r7, #28]
 8002b7c:	011b      	lsls	r3, r3, #4
 8002b7e:	4413      	add	r3, r2
 8002b80:	3308      	adds	r3, #8
 8002b82:	2200      	movs	r2, #0
 8002b84:	601a      	str	r2, [r3, #0]
        mainTracks[i].net_id = -1;
 8002b86:	4a4f      	ldr	r2, [pc, #316]	@ (8002cc4 <clear+0x158>)
 8002b88:	69fb      	ldr	r3, [r7, #28]
 8002b8a:	011b      	lsls	r3, r3, #4
 8002b8c:	4413      	add	r3, r2
 8002b8e:	3304      	adds	r3, #4
 8002b90:	f04f 32ff 	mov.w	r2, #4294967295
 8002b94:	601a      	str	r2, [r3, #0]
        mainTracks[i].current_connections = 0;
 8002b96:	4a4b      	ldr	r2, [pc, #300]	@ (8002cc4 <clear+0x158>)
 8002b98:	69fb      	ldr	r3, [r7, #28]
 8002b9a:	011b      	lsls	r3, r3, #4
 8002b9c:	4413      	add	r3, r2
 8002b9e:	330c      	adds	r3, #12
 8002ba0:	2200      	movs	r2, #0
 8002ba2:	601a      	str	r2, [r3, #0]
        mainTracks[i].track_id = -1;
 8002ba4:	4a47      	ldr	r2, [pc, #284]	@ (8002cc4 <clear+0x158>)
 8002ba6:	69fb      	ldr	r3, [r7, #28]
 8002ba8:	011b      	lsls	r3, r3, #4
 8002baa:	4413      	add	r3, r2
 8002bac:	f04f 32ff 	mov.w	r2, #4294967295
 8002bb0:	601a      	str	r2, [r3, #0]
    for (int i = 0; i < 32; i++) {
 8002bb2:	69fb      	ldr	r3, [r7, #28]
 8002bb4:	3301      	adds	r3, #1
 8002bb6:	61fb      	str	r3, [r7, #28]
 8002bb8:	69fb      	ldr	r3, [r7, #28]
 8002bba:	2b1f      	cmp	r3, #31
 8002bbc:	dddc      	ble.n	8002b78 <clear+0xc>
    }

    // Step 2: Clear all signal analyzer tracks
    for (int i = 0; i < 8; i++) {
 8002bbe:	2300      	movs	r3, #0
 8002bc0:	61bb      	str	r3, [r7, #24]
 8002bc2:	e021      	b.n	8002c08 <clear+0x9c>
        signalAnalyzerTracks[i].is_used = 0;
 8002bc4:	4940      	ldr	r1, [pc, #256]	@ (8002cc8 <clear+0x15c>)
 8002bc6:	69ba      	ldr	r2, [r7, #24]
 8002bc8:	4613      	mov	r3, r2
 8002bca:	005b      	lsls	r3, r3, #1
 8002bcc:	4413      	add	r3, r2
 8002bce:	009b      	lsls	r3, r3, #2
 8002bd0:	440b      	add	r3, r1
 8002bd2:	3308      	adds	r3, #8
 8002bd4:	2200      	movs	r2, #0
 8002bd6:	601a      	str	r2, [r3, #0]
        signalAnalyzerTracks[i].net_id = -1;
 8002bd8:	493b      	ldr	r1, [pc, #236]	@ (8002cc8 <clear+0x15c>)
 8002bda:	69ba      	ldr	r2, [r7, #24]
 8002bdc:	4613      	mov	r3, r2
 8002bde:	005b      	lsls	r3, r3, #1
 8002be0:	4413      	add	r3, r2
 8002be2:	009b      	lsls	r3, r3, #2
 8002be4:	440b      	add	r3, r1
 8002be6:	3304      	adds	r3, #4
 8002be8:	f04f 32ff 	mov.w	r2, #4294967295
 8002bec:	601a      	str	r2, [r3, #0]
        signalAnalyzerTracks[i].track_id = -1;
 8002bee:	4936      	ldr	r1, [pc, #216]	@ (8002cc8 <clear+0x15c>)
 8002bf0:	69ba      	ldr	r2, [r7, #24]
 8002bf2:	4613      	mov	r3, r2
 8002bf4:	005b      	lsls	r3, r3, #1
 8002bf6:	4413      	add	r3, r2
 8002bf8:	009b      	lsls	r3, r3, #2
 8002bfa:	440b      	add	r3, r1
 8002bfc:	f04f 32ff 	mov.w	r2, #4294967295
 8002c00:	601a      	str	r2, [r3, #0]
    for (int i = 0; i < 8; i++) {
 8002c02:	69bb      	ldr	r3, [r7, #24]
 8002c04:	3301      	adds	r3, #1
 8002c06:	61bb      	str	r3, [r7, #24]
 8002c08:	69bb      	ldr	r3, [r7, #24]
 8002c0a:	2b07      	cmp	r3, #7
 8002c0c:	ddda      	ble.n	8002bc4 <clear+0x58>
    }

    // Step 3: Clear all Leds assigned to main tracks
    for (int i = 0; i < 120; i++){
 8002c0e:	2300      	movs	r3, #0
 8002c10:	617b      	str	r3, [r7, #20]
 8002c12:	e007      	b.n	8002c24 <clear+0xb8>
		ledsToMainTracks[i] = 0;
 8002c14:	4a2d      	ldr	r2, [pc, #180]	@ (8002ccc <clear+0x160>)
 8002c16:	697b      	ldr	r3, [r7, #20]
 8002c18:	4413      	add	r3, r2
 8002c1a:	2200      	movs	r2, #0
 8002c1c:	701a      	strb	r2, [r3, #0]
    for (int i = 0; i < 120; i++){
 8002c1e:	697b      	ldr	r3, [r7, #20]
 8002c20:	3301      	adds	r3, #1
 8002c22:	617b      	str	r3, [r7, #20]
 8002c24:	697b      	ldr	r3, [r7, #20]
 8002c26:	2b77      	cmp	r3, #119	@ 0x77
 8002c28:	ddf4      	ble.n	8002c14 <clear+0xa8>
//		printf("ledsToMainTracks[%d] = %d\n", i, ledsToMainTracks[i]);
    }

    // Step 4: Reset all multiplexer usage values
	for (int i = 0; i < 34; i++) {
 8002c2a:	2300      	movs	r3, #0
 8002c2c:	613b      	str	r3, [r7, #16]
 8002c2e:	e023      	b.n	8002c78 <clear+0x10c>
		for (int x = 0; x < 16; x++) {
 8002c30:	2300      	movs	r3, #0
 8002c32:	60fb      	str	r3, [r7, #12]
 8002c34:	e01a      	b.n	8002c6c <clear+0x100>
			for (int y = 0; y < 8; y++) {
 8002c36:	2300      	movs	r3, #0
 8002c38:	60bb      	str	r3, [r7, #8]
 8002c3a:	e011      	b.n	8002c60 <clear+0xf4>
				muxes[i].usage[x][y] = 0;
 8002c3c:	4824      	ldr	r0, [pc, #144]	@ (8002cd0 <clear+0x164>)
 8002c3e:	68fb      	ldr	r3, [r7, #12]
 8002c40:	693a      	ldr	r2, [r7, #16]
 8002c42:	00d9      	lsls	r1, r3, #3
 8002c44:	4613      	mov	r3, r2
 8002c46:	00db      	lsls	r3, r3, #3
 8002c48:	4413      	add	r3, r2
 8002c4a:	011b      	lsls	r3, r3, #4
 8002c4c:	440b      	add	r3, r1
 8002c4e:	18c2      	adds	r2, r0, r3
 8002c50:	68bb      	ldr	r3, [r7, #8]
 8002c52:	4413      	add	r3, r2
 8002c54:	3310      	adds	r3, #16
 8002c56:	2200      	movs	r2, #0
 8002c58:	701a      	strb	r2, [r3, #0]
			for (int y = 0; y < 8; y++) {
 8002c5a:	68bb      	ldr	r3, [r7, #8]
 8002c5c:	3301      	adds	r3, #1
 8002c5e:	60bb      	str	r3, [r7, #8]
 8002c60:	68bb      	ldr	r3, [r7, #8]
 8002c62:	2b07      	cmp	r3, #7
 8002c64:	ddea      	ble.n	8002c3c <clear+0xd0>
		for (int x = 0; x < 16; x++) {
 8002c66:	68fb      	ldr	r3, [r7, #12]
 8002c68:	3301      	adds	r3, #1
 8002c6a:	60fb      	str	r3, [r7, #12]
 8002c6c:	68fb      	ldr	r3, [r7, #12]
 8002c6e:	2b0f      	cmp	r3, #15
 8002c70:	dde1      	ble.n	8002c36 <clear+0xca>
	for (int i = 0; i < 34; i++) {
 8002c72:	693b      	ldr	r3, [r7, #16]
 8002c74:	3301      	adds	r3, #1
 8002c76:	613b      	str	r3, [r7, #16]
 8002c78:	693b      	ldr	r3, [r7, #16]
 8002c7a:	2b21      	cmp	r3, #33	@ 0x21
 8002c7c:	ddd8      	ble.n	8002c30 <clear+0xc4>
			}
		}
	}

    // Step 5: Disable ADC's
	for (int i = 0; i < 8; i++){
 8002c7e:	2300      	movs	r3, #0
 8002c80:	607b      	str	r3, [r7, #4]
 8002c82:	e007      	b.n	8002c94 <clear+0x128>
	    adcChannelConfig.channel_enabled[i] = 0;
 8002c84:	4a13      	ldr	r2, [pc, #76]	@ (8002cd4 <clear+0x168>)
 8002c86:	687b      	ldr	r3, [r7, #4]
 8002c88:	4413      	add	r3, r2
 8002c8a:	2200      	movs	r2, #0
 8002c8c:	701a      	strb	r2, [r3, #0]
	for (int i = 0; i < 8; i++){
 8002c8e:	687b      	ldr	r3, [r7, #4]
 8002c90:	3301      	adds	r3, #1
 8002c92:	607b      	str	r3, [r7, #4]
 8002c94:	687b      	ldr	r3, [r7, #4]
 8002c96:	2b07      	cmp	r3, #7
 8002c98:	ddf4      	ble.n	8002c84 <clear+0x118>
	}

    // Step 6: Perform hardware reset using RST_GPIO
    LL_GPIO_SetOutputPin(RST_GPIO, RST_PIN);
 8002c9a:	490f      	ldr	r1, [pc, #60]	@ (8002cd8 <clear+0x16c>)
 8002c9c:	480f      	ldr	r0, [pc, #60]	@ (8002cdc <clear+0x170>)
 8002c9e:	f7ff f8ec 	bl	8001e7a <LL_GPIO_SetOutputPin>
    LL_mDelay(20);
 8002ca2:	2014      	movs	r0, #20
 8002ca4:	f002 f864 	bl	8004d70 <LL_mDelay>
    LL_GPIO_ResetOutputPin(RST_GPIO, RST_PIN);
 8002ca8:	490b      	ldr	r1, [pc, #44]	@ (8002cd8 <clear+0x16c>)
 8002caa:	480c      	ldr	r0, [pc, #48]	@ (8002cdc <clear+0x170>)
 8002cac:	f7ff f8f4 	bl	8001e98 <LL_GPIO_ResetOutputPin>
    LL_mDelay(20);
 8002cb0:	2014      	movs	r0, #20
 8002cb2:	f002 f85d 	bl	8004d70 <LL_mDelay>

    printf("CLR complete.\n\n");
 8002cb6:	480a      	ldr	r0, [pc, #40]	@ (8002ce0 <clear+0x174>)
 8002cb8:	f002 fa7a 	bl	80051b0 <puts>
}
 8002cbc:	bf00      	nop
 8002cbe:	3720      	adds	r7, #32
 8002cc0:	46bd      	mov	sp, r7
 8002cc2:	bd80      	pop	{r7, pc}
 8002cc4:	20005308 	.word	0x20005308
 8002cc8:	20005508 	.word	0x20005508
 8002ccc:	20005568 	.word	0x20005568
 8002cd0:	20000cc0 	.word	0x20000cc0
 8002cd4:	20005658 	.word	0x20005658
 8002cd8:	04020002 	.word	0x04020002
 8002cdc:	40010c00 	.word	0x40010c00
 8002ce0:	08007514 	.word	0x08007514

08002ce4 <processCommand>:

void processCommand(char *command) {
 8002ce4:	b5f0      	push	{r4, r5, r6, r7, lr}
 8002ce6:	b09b      	sub	sp, #108	@ 0x6c
 8002ce8:	af06      	add	r7, sp, #24
 8002cea:	6078      	str	r0, [r7, #4]
	if (!fault_3v3_triggered || !fault_5v_triggered){ // test tmr
 8002cec:	4b97      	ldr	r3, [pc, #604]	@ (8002f4c <processCommand+0x268>)
 8002cee:	781b      	ldrb	r3, [r3, #0]
 8002cf0:	b2db      	uxtb	r3, r3
 8002cf2:	2b00      	cmp	r3, #0
 8002cf4:	d004      	beq.n	8002d00 <processCommand+0x1c>
 8002cf6:	4b96      	ldr	r3, [pc, #600]	@ (8002f50 <processCommand+0x26c>)
 8002cf8:	781b      	ldrb	r3, [r3, #0]
 8002cfa:	b2db      	uxtb	r3, r3
 8002cfc:	2b00      	cmp	r3, #0
 8002cfe:	d15d      	bne.n	8002dbc <processCommand+0xd8>

		if (strncmp(command, "RB", 2) == 0) {  // Check if it's a "ROUTE" command
 8002d00:	2202      	movs	r2, #2
 8002d02:	4994      	ldr	r1, [pc, #592]	@ (8002f54 <processCommand+0x270>)
 8002d04:	6878      	ldr	r0, [r7, #4]
 8002d06:	f002 fb9b 	bl	8005440 <strncmp>
 8002d0a:	4603      	mov	r3, r0
 8002d0c:	2b00      	cmp	r3, #0
 8002d0e:	d155      	bne.n	8002dbc <processCommand+0xd8>
				int pin1, pin2, net_id, mode, r, g, b;
				int parsed = sscanf(command, "RB %d %d %d %d %d %d %d",
 8002d10:	f107 0134 	add.w	r1, r7, #52	@ 0x34
 8002d14:	f107 0238 	add.w	r2, r7, #56	@ 0x38
 8002d18:	f107 0320 	add.w	r3, r7, #32
 8002d1c:	9304      	str	r3, [sp, #16]
 8002d1e:	f107 0324 	add.w	r3, r7, #36	@ 0x24
 8002d22:	9303      	str	r3, [sp, #12]
 8002d24:	f107 0328 	add.w	r3, r7, #40	@ 0x28
 8002d28:	9302      	str	r3, [sp, #8]
 8002d2a:	f107 032c 	add.w	r3, r7, #44	@ 0x2c
 8002d2e:	9301      	str	r3, [sp, #4]
 8002d30:	f107 0330 	add.w	r3, r7, #48	@ 0x30
 8002d34:	9300      	str	r3, [sp, #0]
 8002d36:	460b      	mov	r3, r1
 8002d38:	4987      	ldr	r1, [pc, #540]	@ (8002f58 <processCommand+0x274>)
 8002d3a:	6878      	ldr	r0, [r7, #4]
 8002d3c:	f002 fa74 	bl	8005228 <siscanf>
 8002d40:	6478      	str	r0, [r7, #68]	@ 0x44
									&pin1, &pin2, &net_id, &mode, &r, &g, &b);
				if (parsed == 7) {  // Ensure all arguments were parsed
 8002d42:	6c7b      	ldr	r3, [r7, #68]	@ 0x44
 8002d44:	2b07      	cmp	r3, #7
 8002d46:	d130      	bne.n	8002daa <processCommand+0xc6>

					RGB_t color = {b, r, g}; // This is brg, because of the Union, the union is brg, cuz the leds take brg
 8002d48:	2300      	movs	r3, #0
 8002d4a:	61fb      	str	r3, [r7, #28]
 8002d4c:	6a3b      	ldr	r3, [r7, #32]
 8002d4e:	b2db      	uxtb	r3, r3
 8002d50:	773b      	strb	r3, [r7, #28]
 8002d52:	6abb      	ldr	r3, [r7, #40]	@ 0x28
 8002d54:	b2db      	uxtb	r3, r3
 8002d56:	777b      	strb	r3, [r7, #29]
 8002d58:	6a7b      	ldr	r3, [r7, #36]	@ 0x24
 8002d5a:	b2db      	uxtb	r3, r3
 8002d5c:	77bb      	strb	r3, [r7, #30]
					printf("Calling routeBreadboard with: Pin1=%d, Pin2=%d, NetID=%d, Mode=%d, RGB(%d,%d,%d)\n",
 8002d5e:	6bbc      	ldr	r4, [r7, #56]	@ 0x38
 8002d60:	6b7d      	ldr	r5, [r7, #52]	@ 0x34
 8002d62:	6b3e      	ldr	r6, [r7, #48]	@ 0x30
 8002d64:	6afb      	ldr	r3, [r7, #44]	@ 0x2c
 8002d66:	6aba      	ldr	r2, [r7, #40]	@ 0x28
 8002d68:	6a79      	ldr	r1, [r7, #36]	@ 0x24
 8002d6a:	6a38      	ldr	r0, [r7, #32]
 8002d6c:	9003      	str	r0, [sp, #12]
 8002d6e:	9102      	str	r1, [sp, #8]
 8002d70:	9201      	str	r2, [sp, #4]
 8002d72:	9300      	str	r3, [sp, #0]
 8002d74:	4633      	mov	r3, r6
 8002d76:	462a      	mov	r2, r5
 8002d78:	4621      	mov	r1, r4
 8002d7a:	4878      	ldr	r0, [pc, #480]	@ (8002f5c <processCommand+0x278>)
 8002d7c:	f002 f9a8 	bl	80050d0 <iprintf>
						   pin1, pin2, net_id, mode, r, g, b);
					fflush(stdout);
 8002d80:	4b77      	ldr	r3, [pc, #476]	@ (8002f60 <processCommand+0x27c>)
 8002d82:	681b      	ldr	r3, [r3, #0]
 8002d84:	689b      	ldr	r3, [r3, #8]
 8002d86:	4618      	mov	r0, r3
 8002d88:	f002 f8cc 	bl	8004f24 <fflush>

					routeBreadboard(pin1, pin2, net_id, muxes, sizeof(muxes) / sizeof(muxes[0]), mode, color);
 8002d8c:	6bb8      	ldr	r0, [r7, #56]	@ 0x38
 8002d8e:	6b79      	ldr	r1, [r7, #52]	@ 0x34
 8002d90:	6b3c      	ldr	r4, [r7, #48]	@ 0x30
 8002d92:	6afb      	ldr	r3, [r7, #44]	@ 0x2c
 8002d94:	b2db      	uxtb	r3, r3
 8002d96:	69fa      	ldr	r2, [r7, #28]
 8002d98:	9202      	str	r2, [sp, #8]
 8002d9a:	9301      	str	r3, [sp, #4]
 8002d9c:	2322      	movs	r3, #34	@ 0x22
 8002d9e:	9300      	str	r3, [sp, #0]
 8002da0:	4b70      	ldr	r3, [pc, #448]	@ (8002f64 <processCommand+0x280>)
 8002da2:	4622      	mov	r2, r4
 8002da4:	f7ff fa88 	bl	80022b8 <routeBreadboard>
 8002da8:	e008      	b.n	8002dbc <processCommand+0xd8>
				} else {
					printf("Error: Invalid RB command format!\n");
 8002daa:	486f      	ldr	r0, [pc, #444]	@ (8002f68 <processCommand+0x284>)
 8002dac:	f002 fa00 	bl	80051b0 <puts>
					fflush(stdout);
 8002db0:	4b6b      	ldr	r3, [pc, #428]	@ (8002f60 <processCommand+0x27c>)
 8002db2:	681b      	ldr	r3, [r3, #0]
 8002db4:	689b      	ldr	r3, [r3, #8]
 8002db6:	4618      	mov	r0, r3
 8002db8:	f002 f8b4 	bl	8004f24 <fflush>
				}
			}
		}
		if (strncmp(command, "RS", 2) == 0) {
 8002dbc:	2202      	movs	r2, #2
 8002dbe:	496b      	ldr	r1, [pc, #428]	@ (8002f6c <processCommand+0x288>)
 8002dc0:	6878      	ldr	r0, [r7, #4]
 8002dc2:	f002 fb3d 	bl	8005440 <strncmp>
 8002dc6:	4603      	mov	r3, r0
 8002dc8:	2b00      	cmp	r3, #0
 8002dca:	d128      	bne.n	8002e1e <processCommand+0x13a>
			int net_id, mode;
			int parsed = sscanf(command, "RS %d %d",
 8002dcc:	f107 0314 	add.w	r3, r7, #20
 8002dd0:	f107 0218 	add.w	r2, r7, #24
 8002dd4:	4966      	ldr	r1, [pc, #408]	@ (8002f70 <processCommand+0x28c>)
 8002dd6:	6878      	ldr	r0, [r7, #4]
 8002dd8:	f002 fa26 	bl	8005228 <siscanf>
 8002ddc:	6438      	str	r0, [r7, #64]	@ 0x40
								&net_id, &mode);
			if (parsed == 2) {  // Ensure all arguments were parsed
 8002dde:	6c3b      	ldr	r3, [r7, #64]	@ 0x40
 8002de0:	2b02      	cmp	r3, #2
 8002de2:	d113      	bne.n	8002e0c <processCommand+0x128>
				printf("Calling routeSignalAnalyzer with: NetID=%d, Mode=%d\n",
 8002de4:	69bb      	ldr	r3, [r7, #24]
 8002de6:	697a      	ldr	r2, [r7, #20]
 8002de8:	4619      	mov	r1, r3
 8002dea:	4862      	ldr	r0, [pc, #392]	@ (8002f74 <processCommand+0x290>)
 8002dec:	f002 f970 	bl	80050d0 <iprintf>
					   net_id, mode);
				fflush(stdout);
 8002df0:	4b5b      	ldr	r3, [pc, #364]	@ (8002f60 <processCommand+0x27c>)
 8002df2:	681b      	ldr	r3, [r3, #0]
 8002df4:	689b      	ldr	r3, [r3, #8]
 8002df6:	4618      	mov	r0, r3
 8002df8:	f002 f894 	bl	8004f24 <fflush>

				routeSignalAnalyzer(net_id, muxes, mode);
 8002dfc:	69bb      	ldr	r3, [r7, #24]
 8002dfe:	697a      	ldr	r2, [r7, #20]
 8002e00:	b2d2      	uxtb	r2, r2
 8002e02:	4958      	ldr	r1, [pc, #352]	@ (8002f64 <processCommand+0x280>)
 8002e04:	4618      	mov	r0, r3
 8002e06:	f7ff fd43 	bl	8002890 <routeSignalAnalyzer>
 8002e0a:	e008      	b.n	8002e1e <processCommand+0x13a>
			} else {
				printf("Error: Invalid RS command format!\n");
 8002e0c:	485a      	ldr	r0, [pc, #360]	@ (8002f78 <processCommand+0x294>)
 8002e0e:	f002 f9cf 	bl	80051b0 <puts>
				fflush(stdout);
 8002e12:	4b53      	ldr	r3, [pc, #332]	@ (8002f60 <processCommand+0x27c>)
 8002e14:	681b      	ldr	r3, [r3, #0]
 8002e16:	689b      	ldr	r3, [r3, #8]
 8002e18:	4618      	mov	r0, r3
 8002e1a:	f002 f883 	bl	8004f24 <fflush>
		}

	}

    if (strncmp(command, "CLR", 3) == 0) {
 8002e1e:	2203      	movs	r2, #3
 8002e20:	4956      	ldr	r1, [pc, #344]	@ (8002f7c <processCommand+0x298>)
 8002e22:	6878      	ldr	r0, [r7, #4]
 8002e24:	f002 fb0c 	bl	8005440 <strncmp>
 8002e28:	4603      	mov	r3, r0
 8002e2a:	2b00      	cmp	r3, #0
 8002e2c:	d103      	bne.n	8002e36 <processCommand+0x152>
		clear();
 8002e2e:	f7ff fe9d 	bl	8002b6c <clear>
		clearLeds();
 8002e32:	f7fd fc77 	bl	8000724 <clearLeds>
	}

    if (strncmp(command, "EN 5V", 5) == 0) {
 8002e36:	2205      	movs	r2, #5
 8002e38:	4951      	ldr	r1, [pc, #324]	@ (8002f80 <processCommand+0x29c>)
 8002e3a:	6878      	ldr	r0, [r7, #4]
 8002e3c:	f002 fb00 	bl	8005440 <strncmp>
 8002e40:	4603      	mov	r3, r0
 8002e42:	2b00      	cmp	r3, #0
 8002e44:	d101      	bne.n	8002e4a <processCommand+0x166>
    	FAULT_5v_HandleMsg();
 8002e46:	f7fd fa91 	bl	800036c <FAULT_5v_HandleMsg>
	}

    if (strncmp(command, "EN 3V3", 6) == 0) {
 8002e4a:	2206      	movs	r2, #6
 8002e4c:	494d      	ldr	r1, [pc, #308]	@ (8002f84 <processCommand+0x2a0>)
 8002e4e:	6878      	ldr	r0, [r7, #4]
 8002e50:	f002 faf6 	bl	8005440 <strncmp>
 8002e54:	4603      	mov	r3, r0
 8002e56:	2b00      	cmp	r3, #0
 8002e58:	d101      	bne.n	8002e5e <processCommand+0x17a>
    	FAULT_3v3_HandleMsg();
 8002e5a:	f7fd fab1 	bl	80003c0 <FAULT_3v3_HandleMsg>
	}

    if (strncmp(command, "MO", 2) == 0) {
 8002e5e:	2202      	movs	r2, #2
 8002e60:	4949      	ldr	r1, [pc, #292]	@ (8002f88 <processCommand+0x2a4>)
 8002e62:	6878      	ldr	r0, [r7, #4]
 8002e64:	f002 faec 	bl	8005440 <strncmp>
 8002e68:	4603      	mov	r3, r0
 8002e6a:	2b00      	cmp	r3, #0
 8002e6c:	d134      	bne.n	8002ed8 <processCommand+0x1f4>
        signalMode = SIGNAL_MODE_ADC;
 8002e6e:	4b47      	ldr	r3, [pc, #284]	@ (8002f8c <processCommand+0x2a8>)
 8002e70:	2200      	movs	r2, #0
 8002e72:	701a      	strb	r2, [r3, #0]

        SignalAnalyzerDeinit();
 8002e74:	f000 fbf0 	bl	8003658 <SignalAnalyzerDeinit>
        OscilloscopeInit();
 8002e78:	f000 fb80 	bl	800357c <OscilloscopeInit>

        for (int i = 0; i < 8; i++) {
 8002e7c:	2300      	movs	r3, #0
 8002e7e:	64fb      	str	r3, [r7, #76]	@ 0x4c
 8002e80:	e024      	b.n	8002ecc <processCommand+0x1e8>
        printf("signalAnalyzerTracks[%d].is_used = %d", i, signalAnalyzerTracks[i].is_used);
 8002e82:	4943      	ldr	r1, [pc, #268]	@ (8002f90 <processCommand+0x2ac>)
 8002e84:	6cfa      	ldr	r2, [r7, #76]	@ 0x4c
 8002e86:	4613      	mov	r3, r2
 8002e88:	005b      	lsls	r3, r3, #1
 8002e8a:	4413      	add	r3, r2
 8002e8c:	009b      	lsls	r3, r3, #2
 8002e8e:	440b      	add	r3, r1
 8002e90:	3308      	adds	r3, #8
 8002e92:	681b      	ldr	r3, [r3, #0]
 8002e94:	461a      	mov	r2, r3
 8002e96:	6cf9      	ldr	r1, [r7, #76]	@ 0x4c
 8002e98:	483e      	ldr	r0, [pc, #248]	@ (8002f94 <processCommand+0x2b0>)
 8002e9a:	f002 f919 	bl	80050d0 <iprintf>
		   if (signalAnalyzerTracks[i].is_used) {
 8002e9e:	493c      	ldr	r1, [pc, #240]	@ (8002f90 <processCommand+0x2ac>)
 8002ea0:	6cfa      	ldr	r2, [r7, #76]	@ 0x4c
 8002ea2:	4613      	mov	r3, r2
 8002ea4:	005b      	lsls	r3, r3, #1
 8002ea6:	4413      	add	r3, r2
 8002ea8:	009b      	lsls	r3, r3, #2
 8002eaa:	440b      	add	r3, r1
 8002eac:	3308      	adds	r3, #8
 8002eae:	681b      	ldr	r3, [r3, #0]
 8002eb0:	2b00      	cmp	r3, #0
 8002eb2:	d008      	beq.n	8002ec6 <processCommand+0x1e2>
			   adcChannelConfig.channel_enabled[i] = 1;
 8002eb4:	4a38      	ldr	r2, [pc, #224]	@ (8002f98 <processCommand+0x2b4>)
 8002eb6:	6cfb      	ldr	r3, [r7, #76]	@ 0x4c
 8002eb8:	4413      	add	r3, r2
 8002eba:	2201      	movs	r2, #1
 8002ebc:	701a      	strb	r2, [r3, #0]
			   printf("(ADC%d) RE-ENABLED (MO)\n", i);
 8002ebe:	6cf9      	ldr	r1, [r7, #76]	@ 0x4c
 8002ec0:	4836      	ldr	r0, [pc, #216]	@ (8002f9c <processCommand+0x2b8>)
 8002ec2:	f002 f905 	bl	80050d0 <iprintf>
        for (int i = 0; i < 8; i++) {
 8002ec6:	6cfb      	ldr	r3, [r7, #76]	@ 0x4c
 8002ec8:	3301      	adds	r3, #1
 8002eca:	64fb      	str	r3, [r7, #76]	@ 0x4c
 8002ecc:	6cfb      	ldr	r3, [r7, #76]	@ 0x4c
 8002ece:	2b07      	cmp	r3, #7
 8002ed0:	ddd7      	ble.n	8002e82 <processCommand+0x19e>
		   }
	   }

        printf("Switched to ADC mode (Oscilloscope)\n");
 8002ed2:	4833      	ldr	r0, [pc, #204]	@ (8002fa0 <processCommand+0x2bc>)
 8002ed4:	f002 f96c 	bl	80051b0 <puts>
    }

    if (strncmp(command, "MS", 2) == 0) {
 8002ed8:	2202      	movs	r2, #2
 8002eda:	4932      	ldr	r1, [pc, #200]	@ (8002fa4 <processCommand+0x2c0>)
 8002edc:	6878      	ldr	r0, [r7, #4]
 8002ede:	f002 faaf 	bl	8005440 <strncmp>
 8002ee2:	4603      	mov	r3, r0
 8002ee4:	2b00      	cmp	r3, #0
 8002ee6:	d109      	bne.n	8002efc <processCommand+0x218>
        signalMode = SIGNAL_MODE_DIGITAL;
 8002ee8:	4b28      	ldr	r3, [pc, #160]	@ (8002f8c <processCommand+0x2a8>)
 8002eea:	2201      	movs	r2, #1
 8002eec:	701a      	strb	r2, [r3, #0]

        OscilloscopeDeinit();
 8002eee:	f000 fb7f 	bl	80035f0 <OscilloscopeDeinit>
        SignalAnalyzerInit();
 8002ef2:	f000 fb8f 	bl	8003614 <SignalAnalyzerInit>

        printf("Switched to Digital mode (Logic Analyzer)\n");
 8002ef6:	482c      	ldr	r0, [pc, #176]	@ (8002fa8 <processCommand+0x2c4>)
 8002ef8:	f002 f95a 	bl	80051b0 <puts>
    }

    if (strncmp(command, "SAMP", 4) == 0) {
 8002efc:	2204      	movs	r2, #4
 8002efe:	492b      	ldr	r1, [pc, #172]	@ (8002fac <processCommand+0x2c8>)
 8002f00:	6878      	ldr	r0, [r7, #4]
 8002f02:	f002 fa9d 	bl	8005440 <strncmp>
 8002f06:	4603      	mov	r3, r0
 8002f08:	2b00      	cmp	r3, #0
 8002f0a:	f040 80ec 	bne.w	80030e6 <processCommand+0x402>
        int ch, cycles;
        int parsed = sscanf(command, "SAMP %d %d", &ch, &cycles);
 8002f0e:	f107 030c 	add.w	r3, r7, #12
 8002f12:	f107 0210 	add.w	r2, r7, #16
 8002f16:	4926      	ldr	r1, [pc, #152]	@ (8002fb0 <processCommand+0x2cc>)
 8002f18:	6878      	ldr	r0, [r7, #4]
 8002f1a:	f002 f985 	bl	8005228 <siscanf>
 8002f1e:	63f8      	str	r0, [r7, #60]	@ 0x3c

        if (parsed == 2 && ch >= 0 && ch <= 17) {
 8002f20:	6bfb      	ldr	r3, [r7, #60]	@ 0x3c
 8002f22:	2b02      	cmp	r3, #2
 8002f24:	f040 80dc 	bne.w	80030e0 <processCommand+0x3fc>
 8002f28:	693b      	ldr	r3, [r7, #16]
 8002f2a:	2b00      	cmp	r3, #0
 8002f2c:	f2c0 80d8 	blt.w	80030e0 <processCommand+0x3fc>
 8002f30:	693b      	ldr	r3, [r7, #16]
 8002f32:	2b11      	cmp	r3, #17
 8002f34:	f300 80d4 	bgt.w	80030e0 <processCommand+0x3fc>
            if (signalMode != SIGNAL_MODE_ADC) {
 8002f38:	4b14      	ldr	r3, [pc, #80]	@ (8002f8c <processCommand+0x2a8>)
 8002f3a:	781b      	ldrb	r3, [r3, #0]
 8002f3c:	b2db      	uxtb	r3, r3
 8002f3e:	2b00      	cmp	r3, #0
 8002f40:	d03a      	beq.n	8002fb8 <processCommand+0x2d4>
                printf("Error: Can only set sampling time in ADC mode (MO).\n");
 8002f42:	481c      	ldr	r0, [pc, #112]	@ (8002fb4 <processCommand+0x2d0>)
 8002f44:	f002 f934 	bl	80051b0 <puts>
                return;
 8002f48:	e0cd      	b.n	80030e6 <processCommand+0x402>
 8002f4a:	bf00      	nop
 8002f4c:	2000205c 	.word	0x2000205c
 8002f50:	2000205d 	.word	0x2000205d
 8002f54:	08007524 	.word	0x08007524
 8002f58:	08007528 	.word	0x08007528
 8002f5c:	08007540 	.word	0x08007540
 8002f60:	20001ff0 	.word	0x20001ff0
 8002f64:	20000cc0 	.word	0x20000cc0
 8002f68:	08007594 	.word	0x08007594
 8002f6c:	080075b8 	.word	0x080075b8
 8002f70:	080075bc 	.word	0x080075bc
 8002f74:	080075c8 	.word	0x080075c8
 8002f78:	08007600 	.word	0x08007600
 8002f7c:	08007624 	.word	0x08007624
 8002f80:	08007628 	.word	0x08007628
 8002f84:	08007630 	.word	0x08007630
 8002f88:	08007638 	.word	0x08007638
 8002f8c:	20005660 	.word	0x20005660
 8002f90:	20005508 	.word	0x20005508
 8002f94:	0800763c 	.word	0x0800763c
 8002f98:	20005658 	.word	0x20005658
 8002f9c:	08007664 	.word	0x08007664
 8002fa0:	08007680 	.word	0x08007680
 8002fa4:	080076a4 	.word	0x080076a4
 8002fa8:	080076a8 	.word	0x080076a8
 8002fac:	080076d4 	.word	0x080076d4
 8002fb0:	080076dc 	.word	0x080076dc
 8002fb4:	080076e8 	.word	0x080076e8
            }

            uint32_t time = 0;
 8002fb8:	2300      	movs	r3, #0
 8002fba:	64bb      	str	r3, [r7, #72]	@ 0x48
            switch (cycles) {
 8002fbc:	68fb      	ldr	r3, [r7, #12]
 8002fbe:	2bef      	cmp	r3, #239	@ 0xef
 8002fc0:	d078      	beq.n	80030b4 <processCommand+0x3d0>
 8002fc2:	2bef      	cmp	r3, #239	@ 0xef
 8002fc4:	dc79      	bgt.n	80030ba <processCommand+0x3d6>
 8002fc6:	2b47      	cmp	r3, #71	@ 0x47
 8002fc8:	d071      	beq.n	80030ae <processCommand+0x3ca>
 8002fca:	2b47      	cmp	r3, #71	@ 0x47
 8002fcc:	dc75      	bgt.n	80030ba <processCommand+0x3d6>
 8002fce:	2b29      	cmp	r3, #41	@ 0x29
 8002fd0:	dc58      	bgt.n	8003084 <processCommand+0x3a0>
 8002fd2:	2b02      	cmp	r3, #2
 8002fd4:	db71      	blt.n	80030ba <processCommand+0x3d6>
 8002fd6:	3b02      	subs	r3, #2
 8002fd8:	2b27      	cmp	r3, #39	@ 0x27
 8002fda:	d86e      	bhi.n	80030ba <processCommand+0x3d6>
 8002fdc:	a201      	add	r2, pc, #4	@ (adr r2, 8002fe4 <processCommand+0x300>)
 8002fde:	f852 f023 	ldr.w	pc, [r2, r3, lsl #2]
 8002fe2:	bf00      	nop
 8002fe4:	0800308b 	.word	0x0800308b
 8002fe8:	080030bb 	.word	0x080030bb
 8002fec:	080030bb 	.word	0x080030bb
 8002ff0:	080030bb 	.word	0x080030bb
 8002ff4:	080030bb 	.word	0x080030bb
 8002ff8:	080030bb 	.word	0x080030bb
 8002ffc:	08003091 	.word	0x08003091
 8003000:	080030bb 	.word	0x080030bb
 8003004:	080030bb 	.word	0x080030bb
 8003008:	080030bb 	.word	0x080030bb
 800300c:	080030bb 	.word	0x080030bb
 8003010:	08003097 	.word	0x08003097
 8003014:	080030bb 	.word	0x080030bb
 8003018:	080030bb 	.word	0x080030bb
 800301c:	080030bb 	.word	0x080030bb
 8003020:	080030bb 	.word	0x080030bb
 8003024:	080030bb 	.word	0x080030bb
 8003028:	080030bb 	.word	0x080030bb
 800302c:	080030bb 	.word	0x080030bb
 8003030:	080030bb 	.word	0x080030bb
 8003034:	080030bb 	.word	0x080030bb
 8003038:	080030bb 	.word	0x080030bb
 800303c:	080030bb 	.word	0x080030bb
 8003040:	080030bb 	.word	0x080030bb
 8003044:	080030bb 	.word	0x080030bb
 8003048:	080030bb 	.word	0x080030bb
 800304c:	0800309d 	.word	0x0800309d
 8003050:	080030bb 	.word	0x080030bb
 8003054:	080030bb 	.word	0x080030bb
 8003058:	080030bb 	.word	0x080030bb
 800305c:	080030bb 	.word	0x080030bb
 8003060:	080030bb 	.word	0x080030bb
 8003064:	080030bb 	.word	0x080030bb
 8003068:	080030bb 	.word	0x080030bb
 800306c:	080030bb 	.word	0x080030bb
 8003070:	080030bb 	.word	0x080030bb
 8003074:	080030bb 	.word	0x080030bb
 8003078:	080030bb 	.word	0x080030bb
 800307c:	080030bb 	.word	0x080030bb
 8003080:	080030a3 	.word	0x080030a3
 8003084:	2b37      	cmp	r3, #55	@ 0x37
 8003086:	d00f      	beq.n	80030a8 <processCommand+0x3c4>
 8003088:	e017      	b.n	80030ba <processCommand+0x3d6>
                case 2:   time = LL_ADC_SAMPLINGTIME_1CYCLE_5; break;
 800308a:	2300      	movs	r3, #0
 800308c:	64bb      	str	r3, [r7, #72]	@ 0x48
 800308e:	e018      	b.n	80030c2 <processCommand+0x3de>
                case 8:   time = LL_ADC_SAMPLINGTIME_7CYCLES_5; break;
 8003090:	2301      	movs	r3, #1
 8003092:	64bb      	str	r3, [r7, #72]	@ 0x48
 8003094:	e015      	b.n	80030c2 <processCommand+0x3de>
                case 13:  time = LL_ADC_SAMPLINGTIME_13CYCLES_5; break;
 8003096:	2302      	movs	r3, #2
 8003098:	64bb      	str	r3, [r7, #72]	@ 0x48
 800309a:	e012      	b.n	80030c2 <processCommand+0x3de>
                case 28:  time = LL_ADC_SAMPLINGTIME_28CYCLES_5; break;
 800309c:	2303      	movs	r3, #3
 800309e:	64bb      	str	r3, [r7, #72]	@ 0x48
 80030a0:	e00f      	b.n	80030c2 <processCommand+0x3de>
                case 41:  time = LL_ADC_SAMPLINGTIME_41CYCLES_5; break;
 80030a2:	2304      	movs	r3, #4
 80030a4:	64bb      	str	r3, [r7, #72]	@ 0x48
 80030a6:	e00c      	b.n	80030c2 <processCommand+0x3de>
                case 55:  time = LL_ADC_SAMPLINGTIME_55CYCLES_5; break;
 80030a8:	2305      	movs	r3, #5
 80030aa:	64bb      	str	r3, [r7, #72]	@ 0x48
 80030ac:	e009      	b.n	80030c2 <processCommand+0x3de>
                case 71:  time = LL_ADC_SAMPLINGTIME_71CYCLES_5; break;
 80030ae:	2306      	movs	r3, #6
 80030b0:	64bb      	str	r3, [r7, #72]	@ 0x48
 80030b2:	e006      	b.n	80030c2 <processCommand+0x3de>
                case 239: time = LL_ADC_SAMPLINGTIME_239CYCLES_5; break;
 80030b4:	2307      	movs	r3, #7
 80030b6:	64bb      	str	r3, [r7, #72]	@ 0x48
 80030b8:	e003      	b.n	80030c2 <processCommand+0x3de>
                default:
                    printf("Invalid sampling time. Valid: 2 8 13 28 41 55 71 239\n");
 80030ba:	480c      	ldr	r0, [pc, #48]	@ (80030ec <processCommand+0x408>)
 80030bc:	f002 f878 	bl	80051b0 <puts>
                    return;
 80030c0:	e011      	b.n	80030e6 <processCommand+0x402>
            }

            LL_ADC_SetChannelSamplingTime(ADC1, LL_ADC_CHANNEL_0 + ch, time);
 80030c2:	693b      	ldr	r3, [r7, #16]
 80030c4:	f103 7300 	add.w	r3, r3, #33554432	@ 0x2000000
 80030c8:	6cba      	ldr	r2, [r7, #72]	@ 0x48
 80030ca:	4619      	mov	r1, r3
 80030cc:	4808      	ldr	r0, [pc, #32]	@ (80030f0 <processCommand+0x40c>)
 80030ce:	f7fe fe89 	bl	8001de4 <LL_ADC_SetChannelSamplingTime>
            printf("Set ADC Channel %d to %d cycles\n", ch, cycles);
 80030d2:	693b      	ldr	r3, [r7, #16]
 80030d4:	68fa      	ldr	r2, [r7, #12]
 80030d6:	4619      	mov	r1, r3
 80030d8:	4806      	ldr	r0, [pc, #24]	@ (80030f4 <processCommand+0x410>)
 80030da:	f001 fff9 	bl	80050d0 <iprintf>
        if (parsed == 2 && ch >= 0 && ch <= 17) {
 80030de:	e002      	b.n	80030e6 <processCommand+0x402>
        } else {
            printf("Usage: SAMP <channel 0-17> <cycles>\nExample: SAMP 3 13\n");
 80030e0:	4805      	ldr	r0, [pc, #20]	@ (80030f8 <processCommand+0x414>)
 80030e2:	f002 f865 	bl	80051b0 <puts>
//			}
//		} else {
//			printf("Invalid command format. Use: Sx ON/OFF\n");
//		}
//	}
}
 80030e6:	3754      	adds	r7, #84	@ 0x54
 80030e8:	46bd      	mov	sp, r7
 80030ea:	bdf0      	pop	{r4, r5, r6, r7, pc}
 80030ec:	0800771c 	.word	0x0800771c
 80030f0:	40012400 	.word	0x40012400
 80030f4:	08007754 	.word	0x08007754
 80030f8:	08007778 	.word	0x08007778

080030fc <LL_USART_IsActiveFlag_TC>:
{
 80030fc:	b480      	push	{r7}
 80030fe:	b083      	sub	sp, #12
 8003100:	af00      	add	r7, sp, #0
 8003102:	6078      	str	r0, [r7, #4]
  return (READ_BIT(USARTx->SR, USART_SR_TC) == (USART_SR_TC));
 8003104:	687b      	ldr	r3, [r7, #4]
 8003106:	681b      	ldr	r3, [r3, #0]
 8003108:	f003 0340 	and.w	r3, r3, #64	@ 0x40
 800310c:	2b40      	cmp	r3, #64	@ 0x40
 800310e:	bf0c      	ite	eq
 8003110:	2301      	moveq	r3, #1
 8003112:	2300      	movne	r3, #0
 8003114:	b2db      	uxtb	r3, r3
}
 8003116:	4618      	mov	r0, r3
 8003118:	370c      	adds	r7, #12
 800311a:	46bd      	mov	sp, r7
 800311c:	bc80      	pop	{r7}
 800311e:	4770      	bx	lr

08003120 <LL_USART_IsActiveFlag_TXE>:
{
 8003120:	b480      	push	{r7}
 8003122:	b083      	sub	sp, #12
 8003124:	af00      	add	r7, sp, #0
 8003126:	6078      	str	r0, [r7, #4]
  return (READ_BIT(USARTx->SR, USART_SR_TXE) == (USART_SR_TXE));
 8003128:	687b      	ldr	r3, [r7, #4]
 800312a:	681b      	ldr	r3, [r3, #0]
 800312c:	f003 0380 	and.w	r3, r3, #128	@ 0x80
 8003130:	2b80      	cmp	r3, #128	@ 0x80
 8003132:	bf0c      	ite	eq
 8003134:	2301      	moveq	r3, #1
 8003136:	2300      	movne	r3, #0
 8003138:	b2db      	uxtb	r3, r3
}
 800313a:	4618      	mov	r0, r3
 800313c:	370c      	adds	r7, #12
 800313e:	46bd      	mov	sp, r7
 8003140:	bc80      	pop	{r7}
 8003142:	4770      	bx	lr

08003144 <LL_USART_TransmitData8>:
{
 8003144:	b480      	push	{r7}
 8003146:	b083      	sub	sp, #12
 8003148:	af00      	add	r7, sp, #0
 800314a:	6078      	str	r0, [r7, #4]
 800314c:	460b      	mov	r3, r1
 800314e:	70fb      	strb	r3, [r7, #3]
  USARTx->DR = Value;
 8003150:	78fa      	ldrb	r2, [r7, #3]
 8003152:	687b      	ldr	r3, [r7, #4]
 8003154:	605a      	str	r2, [r3, #4]
}
 8003156:	bf00      	nop
 8003158:	370c      	adds	r7, #12
 800315a:	46bd      	mov	sp, r7
 800315c:	bc80      	pop	{r7}
 800315e:	4770      	bx	lr

08003160 <sendRawUART>:

volatile uint8_t usingESP = 0;
volatile uint8_t usingCP2102 = 0;  // default to start with CP2102

void sendRawUART(USART_TypeDef *USARTx, uint8_t *data, uint16_t length)
{
 8003160:	b580      	push	{r7, lr}
 8003162:	b086      	sub	sp, #24
 8003164:	af00      	add	r7, sp, #0
 8003166:	60f8      	str	r0, [r7, #12]
 8003168:	60b9      	str	r1, [r7, #8]
 800316a:	4613      	mov	r3, r2
 800316c:	80fb      	strh	r3, [r7, #6]
    for (uint16_t i = 0; i < length; i++) {
 800316e:	2300      	movs	r3, #0
 8003170:	82fb      	strh	r3, [r7, #22]
 8003172:	e011      	b.n	8003198 <sendRawUART+0x38>
        while (!LL_USART_IsActiveFlag_TXE(USARTx)); // Wait until TX buffer is empty
 8003174:	bf00      	nop
 8003176:	68f8      	ldr	r0, [r7, #12]
 8003178:	f7ff ffd2 	bl	8003120 <LL_USART_IsActiveFlag_TXE>
 800317c:	4603      	mov	r3, r0
 800317e:	2b00      	cmp	r3, #0
 8003180:	d0f9      	beq.n	8003176 <sendRawUART+0x16>
        LL_USART_TransmitData8(USARTx, data[i]);
 8003182:	8afb      	ldrh	r3, [r7, #22]
 8003184:	68ba      	ldr	r2, [r7, #8]
 8003186:	4413      	add	r3, r2
 8003188:	781b      	ldrb	r3, [r3, #0]
 800318a:	4619      	mov	r1, r3
 800318c:	68f8      	ldr	r0, [r7, #12]
 800318e:	f7ff ffd9 	bl	8003144 <LL_USART_TransmitData8>
    for (uint16_t i = 0; i < length; i++) {
 8003192:	8afb      	ldrh	r3, [r7, #22]
 8003194:	3301      	adds	r3, #1
 8003196:	82fb      	strh	r3, [r7, #22]
 8003198:	8afa      	ldrh	r2, [r7, #22]
 800319a:	88fb      	ldrh	r3, [r7, #6]
 800319c:	429a      	cmp	r2, r3
 800319e:	d3e9      	bcc.n	8003174 <sendRawUART+0x14>
    }

    // Optionally wait until transmission is complete
    while (!LL_USART_IsActiveFlag_TC(USARTx));
 80031a0:	bf00      	nop
 80031a2:	68f8      	ldr	r0, [r7, #12]
 80031a4:	f7ff ffaa 	bl	80030fc <LL_USART_IsActiveFlag_TC>
 80031a8:	4603      	mov	r3, r0
 80031aa:	2b00      	cmp	r3, #0
 80031ac:	d0f9      	beq.n	80031a2 <sendRawUART+0x42>
}
 80031ae:	bf00      	nop
 80031b0:	bf00      	nop
 80031b2:	3718      	adds	r7, #24
 80031b4:	46bd      	mov	sp, r7
 80031b6:	bd80      	pop	{r7, pc}

080031b8 <UART_ProcessReceivedByte>:
}



void UART_ProcessReceivedByte(uint8_t byte, uint8_t uartNumber)
{
 80031b8:	b580      	push	{r7, lr}
 80031ba:	b084      	sub	sp, #16
 80031bc:	af00      	add	r7, sp, #0
 80031be:	4603      	mov	r3, r0
 80031c0:	460a      	mov	r2, r1
 80031c2:	71fb      	strb	r3, [r7, #7]
 80031c4:	4613      	mov	r3, r2
 80031c6:	71bb      	strb	r3, [r7, #6]
    static uint8_t rxBuffer[RX_BUFFER_SIZE];
    static uint8_t rxIndex = 0;

    if (rxIndex < (RX_BUFFER_SIZE - 1))
 80031c8:	4b27      	ldr	r3, [pc, #156]	@ (8003268 <UART_ProcessReceivedByte+0xb0>)
 80031ca:	781b      	ldrb	r3, [r3, #0]
 80031cc:	2b62      	cmp	r3, #98	@ 0x62
 80031ce:	d809      	bhi.n	80031e4 <UART_ProcessReceivedByte+0x2c>
    {
        rxBuffer[rxIndex++] = byte;
 80031d0:	4b25      	ldr	r3, [pc, #148]	@ (8003268 <UART_ProcessReceivedByte+0xb0>)
 80031d2:	781b      	ldrb	r3, [r3, #0]
 80031d4:	1c5a      	adds	r2, r3, #1
 80031d6:	b2d1      	uxtb	r1, r2
 80031d8:	4a23      	ldr	r2, [pc, #140]	@ (8003268 <UART_ProcessReceivedByte+0xb0>)
 80031da:	7011      	strb	r1, [r2, #0]
 80031dc:	4619      	mov	r1, r3
 80031de:	4a23      	ldr	r2, [pc, #140]	@ (800326c <UART_ProcessReceivedByte+0xb4>)
 80031e0:	79fb      	ldrb	r3, [r7, #7]
 80031e2:	5453      	strb	r3, [r2, r1]
    }

    if (byte == '\n' || byte == '\r')
 80031e4:	79fb      	ldrb	r3, [r7, #7]
 80031e6:	2b0a      	cmp	r3, #10
 80031e8:	d002      	beq.n	80031f0 <UART_ProcessReceivedByte+0x38>
 80031ea:	79fb      	ldrb	r3, [r7, #7]
 80031ec:	2b0d      	cmp	r3, #13
 80031ee:	d136      	bne.n	800325e <UART_ProcessReceivedByte+0xa6>
    {
        rxBuffer[rxIndex] = '\0';  // Null-terminate
 80031f0:	4b1d      	ldr	r3, [pc, #116]	@ (8003268 <UART_ProcessReceivedByte+0xb0>)
 80031f2:	781b      	ldrb	r3, [r3, #0]
 80031f4:	461a      	mov	r2, r3
 80031f6:	4b1d      	ldr	r3, [pc, #116]	@ (800326c <UART_ProcessReceivedByte+0xb4>)
 80031f8:	2100      	movs	r1, #0
 80031fa:	5499      	strb	r1, [r3, r2]

        // Trim leading/trailing whitespace
        char* start = (char*)rxBuffer;
 80031fc:	4b1b      	ldr	r3, [pc, #108]	@ (800326c <UART_ProcessReceivedByte+0xb4>)
 80031fe:	60fb      	str	r3, [r7, #12]
        while (*start == ' ' || *start == '\t' || *start == '\r' || *start == '\n') start++;
 8003200:	e002      	b.n	8003208 <UART_ProcessReceivedByte+0x50>
 8003202:	68fb      	ldr	r3, [r7, #12]
 8003204:	3301      	adds	r3, #1
 8003206:	60fb      	str	r3, [r7, #12]
 8003208:	68fb      	ldr	r3, [r7, #12]
 800320a:	781b      	ldrb	r3, [r3, #0]
 800320c:	2b20      	cmp	r3, #32
 800320e:	d0f8      	beq.n	8003202 <UART_ProcessReceivedByte+0x4a>
 8003210:	68fb      	ldr	r3, [r7, #12]
 8003212:	781b      	ldrb	r3, [r3, #0]
 8003214:	2b09      	cmp	r3, #9
 8003216:	d0f4      	beq.n	8003202 <UART_ProcessReceivedByte+0x4a>
 8003218:	68fb      	ldr	r3, [r7, #12]
 800321a:	781b      	ldrb	r3, [r3, #0]
 800321c:	2b0d      	cmp	r3, #13
 800321e:	d0f0      	beq.n	8003202 <UART_ProcessReceivedByte+0x4a>
 8003220:	68fb      	ldr	r3, [r7, #12]
 8003222:	781b      	ldrb	r3, [r3, #0]
 8003224:	2b0a      	cmp	r3, #10
 8003226:	d0ec      	beq.n	8003202 <UART_ProcessReceivedByte+0x4a>

        if (*start != '\0')  // Only print if not empty after trimming
 8003228:	68fb      	ldr	r3, [r7, #12]
 800322a:	781b      	ldrb	r3, [r3, #0]
 800322c:	2b00      	cmp	r3, #0
 800322e:	d00e      	beq.n	800324e <UART_ProcessReceivedByte+0x96>
        {
            printf("Received from UART%d: %s\n", uartNumber, start);
 8003230:	79bb      	ldrb	r3, [r7, #6]
 8003232:	68fa      	ldr	r2, [r7, #12]
 8003234:	4619      	mov	r1, r3
 8003236:	480e      	ldr	r0, [pc, #56]	@ (8003270 <UART_ProcessReceivedByte+0xb8>)
 8003238:	f001 ff4a 	bl	80050d0 <iprintf>
            fflush(stdout);
 800323c:	4b0d      	ldr	r3, [pc, #52]	@ (8003274 <UART_ProcessReceivedByte+0xbc>)
 800323e:	681b      	ldr	r3, [r3, #0]
 8003240:	689b      	ldr	r3, [r3, #8]
 8003242:	4618      	mov	r0, r3
 8003244:	f001 fe6e 	bl	8004f24 <fflush>
            processCommand(start);
 8003248:	68f8      	ldr	r0, [r7, #12]
 800324a:	f7ff fd4b 	bl	8002ce4 <processCommand>
        }

        memset(rxBuffer, 0, RX_BUFFER_SIZE);
 800324e:	2264      	movs	r2, #100	@ 0x64
 8003250:	2100      	movs	r1, #0
 8003252:	4806      	ldr	r0, [pc, #24]	@ (800326c <UART_ProcessReceivedByte+0xb4>)
 8003254:	f002 f8ec 	bl	8005430 <memset>
        rxIndex = 0;
 8003258:	4b03      	ldr	r3, [pc, #12]	@ (8003268 <UART_ProcessReceivedByte+0xb0>)
 800325a:	2200      	movs	r2, #0
 800325c:	701a      	strb	r2, [r3, #0]
    }
}
 800325e:	bf00      	nop
 8003260:	3710      	adds	r7, #16
 8003262:	46bd      	mov	sp, r7
 8003264:	bd80      	pop	{r7, pc}
 8003266:	bf00      	nop
 8003268:	200055e2 	.word	0x200055e2
 800326c:	200055e4 	.word	0x200055e4
 8003270:	080077b0 	.word	0x080077b0
 8003274:	20001ff0 	.word	0x20001ff0

08003278 <LL_ADC_DMA_GetRegAddr>:
{
 8003278:	b480      	push	{r7}
 800327a:	b085      	sub	sp, #20
 800327c:	af00      	add	r7, sp, #0
 800327e:	6078      	str	r0, [r7, #4]
 8003280:	6039      	str	r1, [r7, #0]
  uint32_t data_reg_addr = 0U;
 8003282:	2300      	movs	r3, #0
 8003284:	60fb      	str	r3, [r7, #12]
  if (Register == LL_ADC_DMA_REG_REGULAR_DATA)
 8003286:	683b      	ldr	r3, [r7, #0]
 8003288:	2b00      	cmp	r3, #0
 800328a:	d103      	bne.n	8003294 <LL_ADC_DMA_GetRegAddr+0x1c>
    data_reg_addr = (uint32_t)&(ADCx->DR);
 800328c:	687b      	ldr	r3, [r7, #4]
 800328e:	334c      	adds	r3, #76	@ 0x4c
 8003290:	60fb      	str	r3, [r7, #12]
 8003292:	e001      	b.n	8003298 <LL_ADC_DMA_GetRegAddr+0x20>
    data_reg_addr = (uint32_t)&(ADC12_COMMON->DR);
 8003294:	4b03      	ldr	r3, [pc, #12]	@ (80032a4 <LL_ADC_DMA_GetRegAddr+0x2c>)
 8003296:	60fb      	str	r3, [r7, #12]
  return data_reg_addr;
 8003298:	68fb      	ldr	r3, [r7, #12]
}
 800329a:	4618      	mov	r0, r3
 800329c:	3714      	adds	r7, #20
 800329e:	46bd      	mov	sp, r7
 80032a0:	bc80      	pop	{r7}
 80032a2:	4770      	bx	lr
 80032a4:	4001244c 	.word	0x4001244c

080032a8 <LL_ADC_REG_SetDMATransfer>:
{
 80032a8:	b480      	push	{r7}
 80032aa:	b083      	sub	sp, #12
 80032ac:	af00      	add	r7, sp, #0
 80032ae:	6078      	str	r0, [r7, #4]
 80032b0:	6039      	str	r1, [r7, #0]
  MODIFY_REG(ADCx->CR2, ADC_CR2_DMA, DMATransfer);
 80032b2:	687b      	ldr	r3, [r7, #4]
 80032b4:	689b      	ldr	r3, [r3, #8]
 80032b6:	f423 7280 	bic.w	r2, r3, #256	@ 0x100
 80032ba:	683b      	ldr	r3, [r7, #0]
 80032bc:	431a      	orrs	r2, r3
 80032be:	687b      	ldr	r3, [r7, #4]
 80032c0:	609a      	str	r2, [r3, #8]
}
 80032c2:	bf00      	nop
 80032c4:	370c      	adds	r7, #12
 80032c6:	46bd      	mov	sp, r7
 80032c8:	bc80      	pop	{r7}
 80032ca:	4770      	bx	lr

080032cc <LL_ADC_Enable>:
  * @rmtoll CR2      ADON           LL_ADC_Enable
  * @param  ADCx ADC instance
  * @retval None
  */
__STATIC_INLINE void LL_ADC_Enable(ADC_TypeDef *ADCx)
{
 80032cc:	b480      	push	{r7}
 80032ce:	b083      	sub	sp, #12
 80032d0:	af00      	add	r7, sp, #0
 80032d2:	6078      	str	r0, [r7, #4]
  SET_BIT(ADCx->CR2, ADC_CR2_ADON);
 80032d4:	687b      	ldr	r3, [r7, #4]
 80032d6:	689b      	ldr	r3, [r3, #8]
 80032d8:	f043 0201 	orr.w	r2, r3, #1
 80032dc:	687b      	ldr	r3, [r7, #4]
 80032de:	609a      	str	r2, [r3, #8]
}
 80032e0:	bf00      	nop
 80032e2:	370c      	adds	r7, #12
 80032e4:	46bd      	mov	sp, r7
 80032e6:	bc80      	pop	{r7}
 80032e8:	4770      	bx	lr

080032ea <LL_ADC_Disable>:
  * @rmtoll CR2      ADON           LL_ADC_Disable
  * @param  ADCx ADC instance
  * @retval None
  */
__STATIC_INLINE void LL_ADC_Disable(ADC_TypeDef *ADCx)
{
 80032ea:	b480      	push	{r7}
 80032ec:	b083      	sub	sp, #12
 80032ee:	af00      	add	r7, sp, #0
 80032f0:	6078      	str	r0, [r7, #4]
  CLEAR_BIT(ADCx->CR2, ADC_CR2_ADON);
 80032f2:	687b      	ldr	r3, [r7, #4]
 80032f4:	689b      	ldr	r3, [r3, #8]
 80032f6:	f023 0201 	bic.w	r2, r3, #1
 80032fa:	687b      	ldr	r3, [r7, #4]
 80032fc:	609a      	str	r2, [r3, #8]
}
 80032fe:	bf00      	nop
 8003300:	370c      	adds	r7, #12
 8003302:	46bd      	mov	sp, r7
 8003304:	bc80      	pop	{r7}
 8003306:	4770      	bx	lr

08003308 <LL_ADC_StartCalibration>:
  * @rmtoll CR2      CAL            LL_ADC_StartCalibration
  * @param  ADCx ADC instance
  * @retval None
  */
__STATIC_INLINE void LL_ADC_StartCalibration(ADC_TypeDef *ADCx)
{
 8003308:	b480      	push	{r7}
 800330a:	b083      	sub	sp, #12
 800330c:	af00      	add	r7, sp, #0
 800330e:	6078      	str	r0, [r7, #4]
  SET_BIT(ADCx->CR2, ADC_CR2_CAL);
 8003310:	687b      	ldr	r3, [r7, #4]
 8003312:	689b      	ldr	r3, [r3, #8]
 8003314:	f043 0204 	orr.w	r2, r3, #4
 8003318:	687b      	ldr	r3, [r7, #4]
 800331a:	609a      	str	r2, [r3, #8]
}
 800331c:	bf00      	nop
 800331e:	370c      	adds	r7, #12
 8003320:	46bd      	mov	sp, r7
 8003322:	bc80      	pop	{r7}
 8003324:	4770      	bx	lr

08003326 <LL_ADC_IsCalibrationOnGoing>:
  * @rmtoll CR2      CAL            LL_ADC_IsCalibrationOnGoing
  * @param  ADCx ADC instance
  * @retval 0: calibration complete, 1: calibration in progress.
  */
__STATIC_INLINE uint32_t LL_ADC_IsCalibrationOnGoing(ADC_TypeDef *ADCx)
{
 8003326:	b480      	push	{r7}
 8003328:	b083      	sub	sp, #12
 800332a:	af00      	add	r7, sp, #0
 800332c:	6078      	str	r0, [r7, #4]
  return (READ_BIT(ADCx->CR2, ADC_CR2_CAL) == (ADC_CR2_CAL));
 800332e:	687b      	ldr	r3, [r7, #4]
 8003330:	689b      	ldr	r3, [r3, #8]
 8003332:	f003 0304 	and.w	r3, r3, #4
 8003336:	2b04      	cmp	r3, #4
 8003338:	bf0c      	ite	eq
 800333a:	2301      	moveq	r3, #1
 800333c:	2300      	movne	r3, #0
 800333e:	b2db      	uxtb	r3, r3
}
 8003340:	4618      	mov	r0, r3
 8003342:	370c      	adds	r7, #12
 8003344:	46bd      	mov	sp, r7
 8003346:	bc80      	pop	{r7}
 8003348:	4770      	bx	lr

0800334a <LL_ADC_REG_StartConversionSWStart>:
  * @rmtoll CR2      SWSTART        LL_ADC_REG_StartConversionSWStart
  * @param  ADCx ADC instance
  * @retval None
  */
__STATIC_INLINE void LL_ADC_REG_StartConversionSWStart(ADC_TypeDef *ADCx)
{
 800334a:	b480      	push	{r7}
 800334c:	b083      	sub	sp, #12
 800334e:	af00      	add	r7, sp, #0
 8003350:	6078      	str	r0, [r7, #4]
  SET_BIT(ADCx->CR2, (ADC_CR2_SWSTART | ADC_CR2_EXTTRIG));
 8003352:	687b      	ldr	r3, [r7, #4]
 8003354:	689b      	ldr	r3, [r3, #8]
 8003356:	f443 02a0 	orr.w	r2, r3, #5242880	@ 0x500000
 800335a:	687b      	ldr	r3, [r7, #4]
 800335c:	609a      	str	r2, [r3, #8]
}
 800335e:	bf00      	nop
 8003360:	370c      	adds	r7, #12
 8003362:	46bd      	mov	sp, r7
 8003364:	bc80      	pop	{r7}
 8003366:	4770      	bx	lr

08003368 <LL_ADC_REG_StopConversionExtTrig>:
  * @rmtoll CR2      EXTSEL         LL_ADC_REG_StopConversionExtTrig
  * @param  ADCx ADC instance
  * @retval None
  */
__STATIC_INLINE void LL_ADC_REG_StopConversionExtTrig(ADC_TypeDef *ADCx)
{
 8003368:	b480      	push	{r7}
 800336a:	b083      	sub	sp, #12
 800336c:	af00      	add	r7, sp, #0
 800336e:	6078      	str	r0, [r7, #4]
  CLEAR_BIT(ADCx->CR2, ADC_CR2_EXTTRIG);
 8003370:	687b      	ldr	r3, [r7, #4]
 8003372:	689b      	ldr	r3, [r3, #8]
 8003374:	f423 1280 	bic.w	r2, r3, #1048576	@ 0x100000
 8003378:	687b      	ldr	r3, [r7, #4]
 800337a:	609a      	str	r2, [r3, #8]
}
 800337c:	bf00      	nop
 800337e:	370c      	adds	r7, #12
 8003380:	46bd      	mov	sp, r7
 8003382:	bc80      	pop	{r7}
 8003384:	4770      	bx	lr
	...

08003388 <LL_DMA_EnableChannel>:
{
 8003388:	b480      	push	{r7}
 800338a:	b083      	sub	sp, #12
 800338c:	af00      	add	r7, sp, #0
 800338e:	6078      	str	r0, [r7, #4]
 8003390:	6039      	str	r1, [r7, #0]
  SET_BIT(((DMA_Channel_TypeDef *)((uint32_t)((uint32_t)DMAx + CHANNEL_OFFSET_TAB[Channel - 1U])))->CCR, DMA_CCR_EN);
 8003392:	683b      	ldr	r3, [r7, #0]
 8003394:	3b01      	subs	r3, #1
 8003396:	4a0a      	ldr	r2, [pc, #40]	@ (80033c0 <LL_DMA_EnableChannel+0x38>)
 8003398:	5cd3      	ldrb	r3, [r2, r3]
 800339a:	461a      	mov	r2, r3
 800339c:	687b      	ldr	r3, [r7, #4]
 800339e:	4413      	add	r3, r2
 80033a0:	681b      	ldr	r3, [r3, #0]
 80033a2:	683a      	ldr	r2, [r7, #0]
 80033a4:	3a01      	subs	r2, #1
 80033a6:	4906      	ldr	r1, [pc, #24]	@ (80033c0 <LL_DMA_EnableChannel+0x38>)
 80033a8:	5c8a      	ldrb	r2, [r1, r2]
 80033aa:	4611      	mov	r1, r2
 80033ac:	687a      	ldr	r2, [r7, #4]
 80033ae:	440a      	add	r2, r1
 80033b0:	f043 0301 	orr.w	r3, r3, #1
 80033b4:	6013      	str	r3, [r2, #0]
}
 80033b6:	bf00      	nop
 80033b8:	370c      	adds	r7, #12
 80033ba:	46bd      	mov	sp, r7
 80033bc:	bc80      	pop	{r7}
 80033be:	4770      	bx	lr
 80033c0:	08007848 	.word	0x08007848

080033c4 <LL_DMA_DisableChannel>:
{
 80033c4:	b480      	push	{r7}
 80033c6:	b083      	sub	sp, #12
 80033c8:	af00      	add	r7, sp, #0
 80033ca:	6078      	str	r0, [r7, #4]
 80033cc:	6039      	str	r1, [r7, #0]
  CLEAR_BIT(((DMA_Channel_TypeDef *)((uint32_t)((uint32_t)DMAx + CHANNEL_OFFSET_TAB[Channel - 1U])))->CCR, DMA_CCR_EN);
 80033ce:	683b      	ldr	r3, [r7, #0]
 80033d0:	3b01      	subs	r3, #1
 80033d2:	4a0a      	ldr	r2, [pc, #40]	@ (80033fc <LL_DMA_DisableChannel+0x38>)
 80033d4:	5cd3      	ldrb	r3, [r2, r3]
 80033d6:	461a      	mov	r2, r3
 80033d8:	687b      	ldr	r3, [r7, #4]
 80033da:	4413      	add	r3, r2
 80033dc:	681b      	ldr	r3, [r3, #0]
 80033de:	683a      	ldr	r2, [r7, #0]
 80033e0:	3a01      	subs	r2, #1
 80033e2:	4906      	ldr	r1, [pc, #24]	@ (80033fc <LL_DMA_DisableChannel+0x38>)
 80033e4:	5c8a      	ldrb	r2, [r1, r2]
 80033e6:	4611      	mov	r1, r2
 80033e8:	687a      	ldr	r2, [r7, #4]
 80033ea:	440a      	add	r2, r1
 80033ec:	f023 0301 	bic.w	r3, r3, #1
 80033f0:	6013      	str	r3, [r2, #0]
}
 80033f2:	bf00      	nop
 80033f4:	370c      	adds	r7, #12
 80033f6:	46bd      	mov	sp, r7
 80033f8:	bc80      	pop	{r7}
 80033fa:	4770      	bx	lr
 80033fc:	08007848 	.word	0x08007848

08003400 <LL_DMA_SetDataLength>:
{
 8003400:	b480      	push	{r7}
 8003402:	b085      	sub	sp, #20
 8003404:	af00      	add	r7, sp, #0
 8003406:	60f8      	str	r0, [r7, #12]
 8003408:	60b9      	str	r1, [r7, #8]
 800340a:	607a      	str	r2, [r7, #4]
  MODIFY_REG(((DMA_Channel_TypeDef *)((uint32_t)((uint32_t)DMAx + CHANNEL_OFFSET_TAB[Channel - 1U])))->CNDTR,
 800340c:	68bb      	ldr	r3, [r7, #8]
 800340e:	3b01      	subs	r3, #1
 8003410:	4a0b      	ldr	r2, [pc, #44]	@ (8003440 <LL_DMA_SetDataLength+0x40>)
 8003412:	5cd3      	ldrb	r3, [r2, r3]
 8003414:	461a      	mov	r2, r3
 8003416:	68fb      	ldr	r3, [r7, #12]
 8003418:	4413      	add	r3, r2
 800341a:	685b      	ldr	r3, [r3, #4]
 800341c:	0c1b      	lsrs	r3, r3, #16
 800341e:	041b      	lsls	r3, r3, #16
 8003420:	68ba      	ldr	r2, [r7, #8]
 8003422:	3a01      	subs	r2, #1
 8003424:	4906      	ldr	r1, [pc, #24]	@ (8003440 <LL_DMA_SetDataLength+0x40>)
 8003426:	5c8a      	ldrb	r2, [r1, r2]
 8003428:	4611      	mov	r1, r2
 800342a:	68fa      	ldr	r2, [r7, #12]
 800342c:	440a      	add	r2, r1
 800342e:	4611      	mov	r1, r2
 8003430:	687a      	ldr	r2, [r7, #4]
 8003432:	4313      	orrs	r3, r2
 8003434:	604b      	str	r3, [r1, #4]
}
 8003436:	bf00      	nop
 8003438:	3714      	adds	r7, #20
 800343a:	46bd      	mov	sp, r7
 800343c:	bc80      	pop	{r7}
 800343e:	4770      	bx	lr
 8003440:	08007848 	.word	0x08007848

08003444 <LL_DMA_ConfigAddresses>:
{
 8003444:	b480      	push	{r7}
 8003446:	b085      	sub	sp, #20
 8003448:	af00      	add	r7, sp, #0
 800344a:	60f8      	str	r0, [r7, #12]
 800344c:	60b9      	str	r1, [r7, #8]
 800344e:	607a      	str	r2, [r7, #4]
 8003450:	603b      	str	r3, [r7, #0]
  if (Direction == LL_DMA_DIRECTION_MEMORY_TO_PERIPH)
 8003452:	69bb      	ldr	r3, [r7, #24]
 8003454:	2b10      	cmp	r3, #16
 8003456:	d114      	bne.n	8003482 <LL_DMA_ConfigAddresses+0x3e>
    WRITE_REG(((DMA_Channel_TypeDef *)((uint32_t)((uint32_t)DMAx + CHANNEL_OFFSET_TAB[Channel - 1U])))->CMAR, SrcAddress);
 8003458:	68bb      	ldr	r3, [r7, #8]
 800345a:	3b01      	subs	r3, #1
 800345c:	4a15      	ldr	r2, [pc, #84]	@ (80034b4 <LL_DMA_ConfigAddresses+0x70>)
 800345e:	5cd3      	ldrb	r3, [r2, r3]
 8003460:	461a      	mov	r2, r3
 8003462:	68fb      	ldr	r3, [r7, #12]
 8003464:	4413      	add	r3, r2
 8003466:	461a      	mov	r2, r3
 8003468:	687b      	ldr	r3, [r7, #4]
 800346a:	60d3      	str	r3, [r2, #12]
    WRITE_REG(((DMA_Channel_TypeDef *)((uint32_t)((uint32_t)DMAx + CHANNEL_OFFSET_TAB[Channel - 1U])))->CPAR, DstAddress);
 800346c:	68bb      	ldr	r3, [r7, #8]
 800346e:	3b01      	subs	r3, #1
 8003470:	4a10      	ldr	r2, [pc, #64]	@ (80034b4 <LL_DMA_ConfigAddresses+0x70>)
 8003472:	5cd3      	ldrb	r3, [r2, r3]
 8003474:	461a      	mov	r2, r3
 8003476:	68fb      	ldr	r3, [r7, #12]
 8003478:	4413      	add	r3, r2
 800347a:	461a      	mov	r2, r3
 800347c:	683b      	ldr	r3, [r7, #0]
 800347e:	6093      	str	r3, [r2, #8]
}
 8003480:	e013      	b.n	80034aa <LL_DMA_ConfigAddresses+0x66>
    WRITE_REG(((DMA_Channel_TypeDef *)((uint32_t)((uint32_t)DMAx + CHANNEL_OFFSET_TAB[Channel - 1U])))->CPAR, SrcAddress);
 8003482:	68bb      	ldr	r3, [r7, #8]
 8003484:	3b01      	subs	r3, #1
 8003486:	4a0b      	ldr	r2, [pc, #44]	@ (80034b4 <LL_DMA_ConfigAddresses+0x70>)
 8003488:	5cd3      	ldrb	r3, [r2, r3]
 800348a:	461a      	mov	r2, r3
 800348c:	68fb      	ldr	r3, [r7, #12]
 800348e:	4413      	add	r3, r2
 8003490:	461a      	mov	r2, r3
 8003492:	687b      	ldr	r3, [r7, #4]
 8003494:	6093      	str	r3, [r2, #8]
    WRITE_REG(((DMA_Channel_TypeDef *)((uint32_t)((uint32_t)DMAx + CHANNEL_OFFSET_TAB[Channel - 1U])))->CMAR, DstAddress);
 8003496:	68bb      	ldr	r3, [r7, #8]
 8003498:	3b01      	subs	r3, #1
 800349a:	4a06      	ldr	r2, [pc, #24]	@ (80034b4 <LL_DMA_ConfigAddresses+0x70>)
 800349c:	5cd3      	ldrb	r3, [r2, r3]
 800349e:	461a      	mov	r2, r3
 80034a0:	68fb      	ldr	r3, [r7, #12]
 80034a2:	4413      	add	r3, r2
 80034a4:	461a      	mov	r2, r3
 80034a6:	683b      	ldr	r3, [r7, #0]
 80034a8:	60d3      	str	r3, [r2, #12]
}
 80034aa:	bf00      	nop
 80034ac:	3714      	adds	r7, #20
 80034ae:	46bd      	mov	sp, r7
 80034b0:	bc80      	pop	{r7}
 80034b2:	4770      	bx	lr
 80034b4:	08007848 	.word	0x08007848

080034b8 <LL_TIM_GetCounter>:
{
 80034b8:	b480      	push	{r7}
 80034ba:	b083      	sub	sp, #12
 80034bc:	af00      	add	r7, sp, #0
 80034be:	6078      	str	r0, [r7, #4]
  return (uint32_t)(READ_REG(TIMx->CNT));
 80034c0:	687b      	ldr	r3, [r7, #4]
 80034c2:	6a5b      	ldr	r3, [r3, #36]	@ 0x24
}
 80034c4:	4618      	mov	r0, r3
 80034c6:	370c      	adds	r7, #12
 80034c8:	46bd      	mov	sp, r7
 80034ca:	bc80      	pop	{r7}
 80034cc:	4770      	bx	lr

080034ce <LL_GPIO_SetPinMode>:
{
 80034ce:	b490      	push	{r4, r7}
 80034d0:	b088      	sub	sp, #32
 80034d2:	af00      	add	r7, sp, #0
 80034d4:	60f8      	str	r0, [r7, #12]
 80034d6:	60b9      	str	r1, [r7, #8]
 80034d8:	607a      	str	r2, [r7, #4]
  register uint32_t *pReg = (uint32_t *)((uint32_t)((uint32_t)(&GPIOx->CRL) + (Pin >> 24)));
 80034da:	68fb      	ldr	r3, [r7, #12]
 80034dc:	461a      	mov	r2, r3
 80034de:	68bb      	ldr	r3, [r7, #8]
 80034e0:	0e1b      	lsrs	r3, r3, #24
 80034e2:	4413      	add	r3, r2
 80034e4:	461c      	mov	r4, r3
  MODIFY_REG(*pReg, ((GPIO_CRL_CNF0 | GPIO_CRL_MODE0) << (POSITION_VAL(Pin) * 4U)), (Mode << (POSITION_VAL(Pin) * 4U)));
 80034e6:	6822      	ldr	r2, [r4, #0]
 80034e8:	68bb      	ldr	r3, [r7, #8]
 80034ea:	617b      	str	r3, [r7, #20]
   __ASM volatile ("rbit %0, %1" : "=r" (result) : "r" (value) );
 80034ec:	697b      	ldr	r3, [r7, #20]
 80034ee:	fa93 f3a3 	rbit	r3, r3
 80034f2:	613b      	str	r3, [r7, #16]
  return result;
 80034f4:	693b      	ldr	r3, [r7, #16]
 80034f6:	fab3 f383 	clz	r3, r3
 80034fa:	b2db      	uxtb	r3, r3
 80034fc:	009b      	lsls	r3, r3, #2
 80034fe:	210f      	movs	r1, #15
 8003500:	fa01 f303 	lsl.w	r3, r1, r3
 8003504:	43db      	mvns	r3, r3
 8003506:	401a      	ands	r2, r3
 8003508:	68bb      	ldr	r3, [r7, #8]
 800350a:	61fb      	str	r3, [r7, #28]
   __ASM volatile ("rbit %0, %1" : "=r" (result) : "r" (value) );
 800350c:	69fb      	ldr	r3, [r7, #28]
 800350e:	fa93 f3a3 	rbit	r3, r3
 8003512:	61bb      	str	r3, [r7, #24]
  return result;
 8003514:	69bb      	ldr	r3, [r7, #24]
 8003516:	fab3 f383 	clz	r3, r3
 800351a:	b2db      	uxtb	r3, r3
 800351c:	009b      	lsls	r3, r3, #2
 800351e:	6879      	ldr	r1, [r7, #4]
 8003520:	fa01 f303 	lsl.w	r3, r1, r3
 8003524:	4313      	orrs	r3, r2
 8003526:	6023      	str	r3, [r4, #0]
}
 8003528:	bf00      	nop
 800352a:	3720      	adds	r7, #32
 800352c:	46bd      	mov	sp, r7
 800352e:	bc90      	pop	{r4, r7}
 8003530:	4770      	bx	lr

08003532 <LL_GPIO_IsInputPinSet>:
{
 8003532:	b480      	push	{r7}
 8003534:	b083      	sub	sp, #12
 8003536:	af00      	add	r7, sp, #0
 8003538:	6078      	str	r0, [r7, #4]
 800353a:	6039      	str	r1, [r7, #0]
  return (READ_BIT(GPIOx->IDR, (PinMask >> GPIO_PIN_MASK_POS) & 0x0000FFFFU) == ((PinMask >> GPIO_PIN_MASK_POS) & 0x0000FFFFU));
 800353c:	687b      	ldr	r3, [r7, #4]
 800353e:	689b      	ldr	r3, [r3, #8]
 8003540:	43da      	mvns	r2, r3
 8003542:	683b      	ldr	r3, [r7, #0]
 8003544:	0a1b      	lsrs	r3, r3, #8
 8003546:	4013      	ands	r3, r2
 8003548:	b29b      	uxth	r3, r3
 800354a:	2b00      	cmp	r3, #0
 800354c:	bf0c      	ite	eq
 800354e:	2301      	moveq	r3, #1
 8003550:	2300      	movne	r3, #0
 8003552:	b2db      	uxtb	r3, r3
}
 8003554:	4618      	mov	r0, r3
 8003556:	370c      	adds	r7, #12
 8003558:	46bd      	mov	sp, r7
 800355a:	bc80      	pop	{r7}
 800355c:	4770      	bx	lr

0800355e <LL_GPIO_ResetOutputPin>:
{
 800355e:	b480      	push	{r7}
 8003560:	b083      	sub	sp, #12
 8003562:	af00      	add	r7, sp, #0
 8003564:	6078      	str	r0, [r7, #4]
 8003566:	6039      	str	r1, [r7, #0]
  WRITE_REG(GPIOx->BRR, (PinMask >> GPIO_PIN_MASK_POS) & 0x0000FFFFU);
 8003568:	683b      	ldr	r3, [r7, #0]
 800356a:	0a1b      	lsrs	r3, r3, #8
 800356c:	b29a      	uxth	r2, r3
 800356e:	687b      	ldr	r3, [r7, #4]
 8003570:	615a      	str	r2, [r3, #20]
}
 8003572:	bf00      	nop
 8003574:	370c      	adds	r7, #12
 8003576:	46bd      	mov	sp, r7
 8003578:	bc80      	pop	{r7}
 800357a:	4770      	bx	lr

0800357c <OscilloscopeInit>:
};

volatile SignalMode_t signalMode = SIGNAL_MODE_ADC;  // Default

void OscilloscopeInit(void)
{
 800357c:	b580      	push	{r7, lr}
 800357e:	b082      	sub	sp, #8
 8003580:	af02      	add	r7, sp, #8
    // Configure DMA source/destination and length
    LL_DMA_ConfigAddresses(DMA1, LL_DMA_CHANNEL_1,
 8003582:	2100      	movs	r1, #0
 8003584:	4817      	ldr	r0, [pc, #92]	@ (80035e4 <OscilloscopeInit+0x68>)
 8003586:	f7ff fe77 	bl	8003278 <LL_ADC_DMA_GetRegAddr>
 800358a:	4602      	mov	r2, r0
 800358c:	4916      	ldr	r1, [pc, #88]	@ (80035e8 <OscilloscopeInit+0x6c>)
 800358e:	2300      	movs	r3, #0
 8003590:	9300      	str	r3, [sp, #0]
 8003592:	460b      	mov	r3, r1
 8003594:	2101      	movs	r1, #1
 8003596:	4815      	ldr	r0, [pc, #84]	@ (80035ec <OscilloscopeInit+0x70>)
 8003598:	f7ff ff54 	bl	8003444 <LL_DMA_ConfigAddresses>
        LL_ADC_DMA_GetRegAddr(ADC1, LL_ADC_DMA_REG_REGULAR_DATA),
        (uint32_t)adcValues,
        LL_DMA_DIRECTION_PERIPH_TO_MEMORY);

    LL_DMA_SetDataLength(DMA1, LL_DMA_CHANNEL_1, ADC_CHANNELS);
 800359c:	2208      	movs	r2, #8
 800359e:	2101      	movs	r1, #1
 80035a0:	4812      	ldr	r0, [pc, #72]	@ (80035ec <OscilloscopeInit+0x70>)
 80035a2:	f7ff ff2d 	bl	8003400 <LL_DMA_SetDataLength>
//    LL_DMA_SetMemorySize(DMA1, LL_DMA_CHANNEL_1, LL_DMA_MDATAALIGN_HALFWORD);
//    LL_DMA_SetPeriphSize(DMA1, LL_DMA_CHANNEL_1, LL_DMA_PDATAALIGN_HALFWORD);
//    LL_DMA_SetChannelPriorityLevel(DMA1, LL_DMA_CHANNEL_1, LL_DMA_PRIORITY_HIGH);

    // Enable DMA
    LL_DMA_EnableChannel(DMA1, LL_DMA_CHANNEL_1);
 80035a6:	2101      	movs	r1, #1
 80035a8:	4810      	ldr	r0, [pc, #64]	@ (80035ec <OscilloscopeInit+0x70>)
 80035aa:	f7ff feed 	bl	8003388 <LL_DMA_EnableChannel>

    // Enable ADC and wait for stabilization
    LL_ADC_Enable(ADC1);
 80035ae:	480d      	ldr	r0, [pc, #52]	@ (80035e4 <OscilloscopeInit+0x68>)
 80035b0:	f7ff fe8c 	bl	80032cc <LL_ADC_Enable>
    LL_mDelay(1);
 80035b4:	2001      	movs	r0, #1
 80035b6:	f001 fbdb 	bl	8004d70 <LL_mDelay>

    // Calibrate ADC
    LL_ADC_StartCalibration(ADC1);
 80035ba:	480a      	ldr	r0, [pc, #40]	@ (80035e4 <OscilloscopeInit+0x68>)
 80035bc:	f7ff fea4 	bl	8003308 <LL_ADC_StartCalibration>
    while (LL_ADC_IsCalibrationOnGoing(ADC1));
 80035c0:	bf00      	nop
 80035c2:	4808      	ldr	r0, [pc, #32]	@ (80035e4 <OscilloscopeInit+0x68>)
 80035c4:	f7ff feaf 	bl	8003326 <LL_ADC_IsCalibrationOnGoing>
 80035c8:	4603      	mov	r3, r0
 80035ca:	2b00      	cmp	r3, #0
 80035cc:	d1f9      	bne.n	80035c2 <OscilloscopeInit+0x46>

    // Enable ADC DMA transfer
    LL_ADC_REG_SetDMATransfer(ADC1, LL_ADC_REG_DMA_TRANSFER_UNLIMITED);
 80035ce:	f44f 7180 	mov.w	r1, #256	@ 0x100
 80035d2:	4804      	ldr	r0, [pc, #16]	@ (80035e4 <OscilloscopeInit+0x68>)
 80035d4:	f7ff fe68 	bl	80032a8 <LL_ADC_REG_SetDMATransfer>

    // Start ADC conversion
    LL_ADC_REG_StartConversionSWStart(ADC1);
 80035d8:	4802      	ldr	r0, [pc, #8]	@ (80035e4 <OscilloscopeInit+0x68>)
 80035da:	f7ff feb6 	bl	800334a <LL_ADC_REG_StartConversionSWStart>
}
 80035de:	bf00      	nop
 80035e0:	46bd      	mov	sp, r7
 80035e2:	bd80      	pop	{r7, pc}
 80035e4:	40012400 	.word	0x40012400
 80035e8:	20005648 	.word	0x20005648
 80035ec:	40020000 	.word	0x40020000

080035f0 <OscilloscopeDeinit>:

void OscilloscopeDeinit(void)
{
 80035f0:	b580      	push	{r7, lr}
 80035f2:	af00      	add	r7, sp, #0
	LL_ADC_REG_StopConversionExtTrig(ADC1);
 80035f4:	4805      	ldr	r0, [pc, #20]	@ (800360c <OscilloscopeDeinit+0x1c>)
 80035f6:	f7ff feb7 	bl	8003368 <LL_ADC_REG_StopConversionExtTrig>
    LL_ADC_Disable(ADC1);
 80035fa:	4804      	ldr	r0, [pc, #16]	@ (800360c <OscilloscopeDeinit+0x1c>)
 80035fc:	f7ff fe75 	bl	80032ea <LL_ADC_Disable>
    LL_DMA_DisableChannel(DMA1, LL_DMA_CHANNEL_1);
 8003600:	2101      	movs	r1, #1
 8003602:	4803      	ldr	r0, [pc, #12]	@ (8003610 <OscilloscopeDeinit+0x20>)
 8003604:	f7ff fede 	bl	80033c4 <LL_DMA_DisableChannel>
}
 8003608:	bf00      	nop
 800360a:	bd80      	pop	{r7, pc}
 800360c:	40012400 	.word	0x40012400
 8003610:	40020000 	.word	0x40020000

08003614 <SignalAnalyzerInit>:

void SignalAnalyzerInit(void)
{
 8003614:	b580      	push	{r7, lr}
 8003616:	b082      	sub	sp, #8
 8003618:	af00      	add	r7, sp, #0
	 for (int i = 0; i < 8; i++) {
 800361a:	2300      	movs	r3, #0
 800361c:	607b      	str	r3, [r7, #4]
 800361e:	e00d      	b.n	800363c <SignalAnalyzerInit+0x28>
	        // Enable pull-up/down mode
	        LL_GPIO_SetPinMode(GPIOA, i, LL_GPIO_MODE_INPUT);
 8003620:	687b      	ldr	r3, [r7, #4]
 8003622:	2208      	movs	r2, #8
 8003624:	4619      	mov	r1, r3
 8003626:	480a      	ldr	r0, [pc, #40]	@ (8003650 <SignalAnalyzerInit+0x3c>)
 8003628:	f7ff ff51 	bl	80034ce <LL_GPIO_SetPinMode>
	        LL_GPIO_ResetOutputPin(GPIOA, i);  // Pull-Down (set ODR bit LOW)
 800362c:	687b      	ldr	r3, [r7, #4]
 800362e:	4619      	mov	r1, r3
 8003630:	4807      	ldr	r0, [pc, #28]	@ (8003650 <SignalAnalyzerInit+0x3c>)
 8003632:	f7ff ff94 	bl	800355e <LL_GPIO_ResetOutputPin>
	 for (int i = 0; i < 8; i++) {
 8003636:	687b      	ldr	r3, [r7, #4]
 8003638:	3301      	adds	r3, #1
 800363a:	607b      	str	r3, [r7, #4]
 800363c:	687b      	ldr	r3, [r7, #4]
 800363e:	2b07      	cmp	r3, #7
 8003640:	ddee      	ble.n	8003620 <SignalAnalyzerInit+0xc>
	    }

	    printf("Digital Analyzer initialized with pull-downs.\n");
 8003642:	4804      	ldr	r0, [pc, #16]	@ (8003654 <SignalAnalyzerInit+0x40>)
 8003644:	f001 fdb4 	bl	80051b0 <puts>
}
 8003648:	bf00      	nop
 800364a:	3708      	adds	r7, #8
 800364c:	46bd      	mov	sp, r7
 800364e:	bd80      	pop	{r7, pc}
 8003650:	40010800 	.word	0x40010800
 8003654:	080077cc 	.word	0x080077cc

08003658 <SignalAnalyzerDeinit>:

void SignalAnalyzerDeinit(void)
{
 8003658:	b580      	push	{r7, lr}
 800365a:	b082      	sub	sp, #8
 800365c:	af00      	add	r7, sp, #0
    // Restore PA0PA7 to analog mode or disable them if you want to save power
    for (int i = 0; i < 8; i++) {
 800365e:	2300      	movs	r3, #0
 8003660:	607b      	str	r3, [r7, #4]
 8003662:	e008      	b.n	8003676 <SignalAnalyzerDeinit+0x1e>
        LL_GPIO_SetPinMode(GPIOA, i, LL_GPIO_MODE_ANALOG);  // Safe power-down mode
 8003664:	687b      	ldr	r3, [r7, #4]
 8003666:	2200      	movs	r2, #0
 8003668:	4619      	mov	r1, r3
 800366a:	4812      	ldr	r0, [pc, #72]	@ (80036b4 <SignalAnalyzerDeinit+0x5c>)
 800366c:	f7ff ff2f 	bl	80034ce <LL_GPIO_SetPinMode>
    for (int i = 0; i < 8; i++) {
 8003670:	687b      	ldr	r3, [r7, #4]
 8003672:	3301      	adds	r3, #1
 8003674:	607b      	str	r3, [r7, #4]
 8003676:	687b      	ldr	r3, [r7, #4]
 8003678:	2b07      	cmp	r3, #7
 800367a:	ddf3      	ble.n	8003664 <SignalAnalyzerDeinit+0xc>
    }

    // Optionally: reset adcChannelConfig too, just to be clean
    for (int i = 0; i < 8; i++) {
 800367c:	2300      	movs	r3, #0
 800367e:	603b      	str	r3, [r7, #0]
 8003680:	e007      	b.n	8003692 <SignalAnalyzerDeinit+0x3a>
        adcChannelConfig.channel_enabled[i] = 0;
 8003682:	4a0d      	ldr	r2, [pc, #52]	@ (80036b8 <SignalAnalyzerDeinit+0x60>)
 8003684:	683b      	ldr	r3, [r7, #0]
 8003686:	4413      	add	r3, r2
 8003688:	2200      	movs	r2, #0
 800368a:	701a      	strb	r2, [r3, #0]
    for (int i = 0; i < 8; i++) {
 800368c:	683b      	ldr	r3, [r7, #0]
 800368e:	3301      	adds	r3, #1
 8003690:	603b      	str	r3, [r7, #0]
 8003692:	683b      	ldr	r3, [r7, #0]
 8003694:	2b07      	cmp	r3, #7
 8003696:	ddf4      	ble.n	8003682 <SignalAnalyzerDeinit+0x2a>
    }

    printf("Digital Analyzer deinitialized.\n");
 8003698:	4808      	ldr	r0, [pc, #32]	@ (80036bc <SignalAnalyzerDeinit+0x64>)
 800369a:	f001 fd89 	bl	80051b0 <puts>
    fflush(stdout);
 800369e:	4b08      	ldr	r3, [pc, #32]	@ (80036c0 <SignalAnalyzerDeinit+0x68>)
 80036a0:	681b      	ldr	r3, [r3, #0]
 80036a2:	689b      	ldr	r3, [r3, #8]
 80036a4:	4618      	mov	r0, r3
 80036a6:	f001 fc3d 	bl	8004f24 <fflush>
}
 80036aa:	bf00      	nop
 80036ac:	3708      	adds	r7, #8
 80036ae:	46bd      	mov	sp, r7
 80036b0:	bd80      	pop	{r7, pc}
 80036b2:	bf00      	nop
 80036b4:	40010800 	.word	0x40010800
 80036b8:	20005658 	.word	0x20005658
 80036bc:	080077fc 	.word	0x080077fc
 80036c0:	20001ff0 	.word	0x20001ff0

080036c4 <getTimestamp>:


uint32_t getTimestamp(void)
{
 80036c4:	b580      	push	{r7, lr}
 80036c6:	af00      	add	r7, sp, #0
    return LL_TIM_GetCounter(TIM6);
 80036c8:	4802      	ldr	r0, [pc, #8]	@ (80036d4 <getTimestamp+0x10>)
 80036ca:	f7ff fef5 	bl	80034b8 <LL_TIM_GetCounter>
 80036ce:	4603      	mov	r3, r0
}
 80036d0:	4618      	mov	r0, r3
 80036d2:	bd80      	pop	{r7, pc}
 80036d4:	40001000 	.word	0x40001000

080036d8 <sendADCData>:

void sendADCData(void)
{
 80036d8:	b580      	push	{r7, lr}
 80036da:	b08c      	sub	sp, #48	@ 0x30
 80036dc:	af00      	add	r7, sp, #0
    uint8_t buffer[32]; // Max: 1 + 1 + (8*2) + 2 = 20 bytes
    uint8_t index = 0;
 80036de:	2300      	movs	r3, #0
 80036e0:	f887 302f 	strb.w	r3, [r7, #47]	@ 0x2f

    buffer[index++] = 0xAA; // Start byte
 80036e4:	f897 302f 	ldrb.w	r3, [r7, #47]	@ 0x2f
 80036e8:	1c5a      	adds	r2, r3, #1
 80036ea:	f887 202f 	strb.w	r2, [r7, #47]	@ 0x2f
 80036ee:	3330      	adds	r3, #48	@ 0x30
 80036f0:	443b      	add	r3, r7
 80036f2:	22aa      	movs	r2, #170	@ 0xaa
 80036f4:	f803 2c2c 	strb.w	r2, [r3, #-44]
    buffer[index++] = 0x00; // Reserve space for channel bitmap
 80036f8:	f897 302f 	ldrb.w	r3, [r7, #47]	@ 0x2f
 80036fc:	1c5a      	adds	r2, r3, #1
 80036fe:	f887 202f 	strb.w	r2, [r7, #47]	@ 0x2f
 8003702:	3330      	adds	r3, #48	@ 0x30
 8003704:	443b      	add	r3, r7
 8003706:	2200      	movs	r2, #0
 8003708:	f803 2c2c 	strb.w	r2, [r3, #-44]

    uint8_t channel_map = 0;
 800370c:	2300      	movs	r3, #0
 800370e:	f887 302e 	strb.w	r3, [r7, #46]	@ 0x2e

    for (int i = 0; i < 8; i++) {
 8003712:	2300      	movs	r3, #0
 8003714:	62bb      	str	r3, [r7, #40]	@ 0x28
 8003716:	e031      	b.n	800377c <sendADCData+0xa4>
        if (adcChannelConfig.channel_enabled[i]) {
 8003718:	4a39      	ldr	r2, [pc, #228]	@ (8003800 <sendADCData+0x128>)
 800371a:	6abb      	ldr	r3, [r7, #40]	@ 0x28
 800371c:	4413      	add	r3, r2
 800371e:	781b      	ldrb	r3, [r3, #0]
 8003720:	2b00      	cmp	r3, #0
 8003722:	d028      	beq.n	8003776 <sendADCData+0x9e>
            buffer[index++] = (adcValues[i] >> 8) & 0xFF;
 8003724:	4a37      	ldr	r2, [pc, #220]	@ (8003804 <sendADCData+0x12c>)
 8003726:	6abb      	ldr	r3, [r7, #40]	@ 0x28
 8003728:	f832 3013 	ldrh.w	r3, [r2, r3, lsl #1]
 800372c:	0a1b      	lsrs	r3, r3, #8
 800372e:	b29a      	uxth	r2, r3
 8003730:	f897 302f 	ldrb.w	r3, [r7, #47]	@ 0x2f
 8003734:	1c59      	adds	r1, r3, #1
 8003736:	f887 102f 	strb.w	r1, [r7, #47]	@ 0x2f
 800373a:	b2d2      	uxtb	r2, r2
 800373c:	3330      	adds	r3, #48	@ 0x30
 800373e:	443b      	add	r3, r7
 8003740:	f803 2c2c 	strb.w	r2, [r3, #-44]
            buffer[index++] = adcValues[i] & 0xFF;
 8003744:	4a2f      	ldr	r2, [pc, #188]	@ (8003804 <sendADCData+0x12c>)
 8003746:	6abb      	ldr	r3, [r7, #40]	@ 0x28
 8003748:	f832 2013 	ldrh.w	r2, [r2, r3, lsl #1]
 800374c:	f897 302f 	ldrb.w	r3, [r7, #47]	@ 0x2f
 8003750:	1c59      	adds	r1, r3, #1
 8003752:	f887 102f 	strb.w	r1, [r7, #47]	@ 0x2f
 8003756:	b2d2      	uxtb	r2, r2
 8003758:	3330      	adds	r3, #48	@ 0x30
 800375a:	443b      	add	r3, r7
 800375c:	f803 2c2c 	strb.w	r2, [r3, #-44]
            channel_map |= (1 << i);  // Set bit i if channel is enabled
 8003760:	2201      	movs	r2, #1
 8003762:	6abb      	ldr	r3, [r7, #40]	@ 0x28
 8003764:	fa02 f303 	lsl.w	r3, r2, r3
 8003768:	b25a      	sxtb	r2, r3
 800376a:	f997 302e 	ldrsb.w	r3, [r7, #46]	@ 0x2e
 800376e:	4313      	orrs	r3, r2
 8003770:	b25b      	sxtb	r3, r3
 8003772:	f887 302e 	strb.w	r3, [r7, #46]	@ 0x2e
    for (int i = 0; i < 8; i++) {
 8003776:	6abb      	ldr	r3, [r7, #40]	@ 0x28
 8003778:	3301      	adds	r3, #1
 800377a:	62bb      	str	r3, [r7, #40]	@ 0x28
 800377c:	6abb      	ldr	r3, [r7, #40]	@ 0x28
 800377e:	2b07      	cmp	r3, #7
 8003780:	ddca      	ble.n	8003718 <sendADCData+0x40>
        }
    }

    // Timestamp (2 bytes, big endian)
    uint16_t t = (uint16_t)getTimestamp();
 8003782:	f7ff ff9f 	bl	80036c4 <getTimestamp>
 8003786:	4603      	mov	r3, r0
 8003788:	84fb      	strh	r3, [r7, #38]	@ 0x26
    buffer[index++] = (t >> 8) & 0xFF;
 800378a:	8cfb      	ldrh	r3, [r7, #38]	@ 0x26
 800378c:	0a1b      	lsrs	r3, r3, #8
 800378e:	b29a      	uxth	r2, r3
 8003790:	f897 302f 	ldrb.w	r3, [r7, #47]	@ 0x2f
 8003794:	1c59      	adds	r1, r3, #1
 8003796:	f887 102f 	strb.w	r1, [r7, #47]	@ 0x2f
 800379a:	b2d2      	uxtb	r2, r2
 800379c:	3330      	adds	r3, #48	@ 0x30
 800379e:	443b      	add	r3, r7
 80037a0:	f803 2c2c 	strb.w	r2, [r3, #-44]
    buffer[index++] = t & 0xFF;
 80037a4:	f897 302f 	ldrb.w	r3, [r7, #47]	@ 0x2f
 80037a8:	1c5a      	adds	r2, r3, #1
 80037aa:	f887 202f 	strb.w	r2, [r7, #47]	@ 0x2f
 80037ae:	8cfa      	ldrh	r2, [r7, #38]	@ 0x26
 80037b0:	b2d2      	uxtb	r2, r2
 80037b2:	3330      	adds	r3, #48	@ 0x30
 80037b4:	443b      	add	r3, r7
 80037b6:	f803 2c2c 	strb.w	r2, [r3, #-44]

    // Insert channel map after start byte
    buffer[1] = channel_map;
 80037ba:	f897 302e 	ldrb.w	r3, [r7, #46]	@ 0x2e
 80037be:	717b      	strb	r3, [r7, #5]

//  Send via UART
    if (usingESP){
 80037c0:	4b11      	ldr	r3, [pc, #68]	@ (8003808 <sendADCData+0x130>)
 80037c2:	781b      	ldrb	r3, [r3, #0]
 80037c4:	b2db      	uxtb	r3, r3
 80037c6:	2b00      	cmp	r3, #0
 80037c8:	d008      	beq.n	80037dc <sendADCData+0x104>
        sendRawUART(USART1, buffer, index);
 80037ca:	f897 302f 	ldrb.w	r3, [r7, #47]	@ 0x2f
 80037ce:	b29a      	uxth	r2, r3
 80037d0:	1d3b      	adds	r3, r7, #4
 80037d2:	4619      	mov	r1, r3
 80037d4:	480d      	ldr	r0, [pc, #52]	@ (800380c <sendADCData+0x134>)
 80037d6:	f7ff fcc3 	bl	8003160 <sendRawUART>
    }else if (usingCP2102){
        sendRawUART(USART3, buffer, index);
//		printf("Sending to CP2102");
    }

}
 80037da:	e00c      	b.n	80037f6 <sendADCData+0x11e>
    }else if (usingCP2102){
 80037dc:	4b0c      	ldr	r3, [pc, #48]	@ (8003810 <sendADCData+0x138>)
 80037de:	781b      	ldrb	r3, [r3, #0]
 80037e0:	b2db      	uxtb	r3, r3
 80037e2:	2b00      	cmp	r3, #0
 80037e4:	d007      	beq.n	80037f6 <sendADCData+0x11e>
        sendRawUART(USART3, buffer, index);
 80037e6:	f897 302f 	ldrb.w	r3, [r7, #47]	@ 0x2f
 80037ea:	b29a      	uxth	r2, r3
 80037ec:	1d3b      	adds	r3, r7, #4
 80037ee:	4619      	mov	r1, r3
 80037f0:	4808      	ldr	r0, [pc, #32]	@ (8003814 <sendADCData+0x13c>)
 80037f2:	f7ff fcb5 	bl	8003160 <sendRawUART>
}
 80037f6:	bf00      	nop
 80037f8:	3730      	adds	r7, #48	@ 0x30
 80037fa:	46bd      	mov	sp, r7
 80037fc:	bd80      	pop	{r7, pc}
 80037fe:	bf00      	nop
 8003800:	20005658 	.word	0x20005658
 8003804:	20005648 	.word	0x20005648
 8003808:	200055e0 	.word	0x200055e0
 800380c:	40013800 	.word	0x40013800
 8003810:	200055e1 	.word	0x200055e1
 8003814:	40004800 	.word	0x40004800

08003818 <sendDigitalData>:

void sendDigitalData(void)
{
 8003818:	b580      	push	{r7, lr}
 800381a:	b088      	sub	sp, #32
 800381c:	af00      	add	r7, sp, #0
    uint8_t buffer[16];
    uint8_t index = 0;
 800381e:	2300      	movs	r3, #0
 8003820:	77fb      	strb	r3, [r7, #31]

    buffer[index++] = 0xAB;  // Different start byte for digital mode
 8003822:	7ffb      	ldrb	r3, [r7, #31]
 8003824:	1c5a      	adds	r2, r3, #1
 8003826:	77fa      	strb	r2, [r7, #31]
 8003828:	3320      	adds	r3, #32
 800382a:	443b      	add	r3, r7
 800382c:	22ab      	movs	r2, #171	@ 0xab
 800382e:	f803 2c1c 	strb.w	r2, [r3, #-28]
    buffer[index++] = 0x00;  // Reserved for bitmap of active channels
 8003832:	7ffb      	ldrb	r3, [r7, #31]
 8003834:	1c5a      	adds	r2, r3, #1
 8003836:	77fa      	strb	r2, [r7, #31]
 8003838:	3320      	adds	r3, #32
 800383a:	443b      	add	r3, r7
 800383c:	2200      	movs	r2, #0
 800383e:	f803 2c1c 	strb.w	r2, [r3, #-28]

    uint8_t pin_bitmap = 0;
 8003842:	2300      	movs	r3, #0
 8003844:	77bb      	strb	r3, [r7, #30]

    for (int i = 0; i < 8; i++) {
 8003846:	2300      	movs	r3, #0
 8003848:	61bb      	str	r3, [r7, #24]
 800384a:	e026      	b.n	800389a <sendDigitalData+0x82>
        if (adcChannelConfig.channel_enabled[i]) {
 800384c:	4a30      	ldr	r2, [pc, #192]	@ (8003910 <sendDigitalData+0xf8>)
 800384e:	69bb      	ldr	r3, [r7, #24]
 8003850:	4413      	add	r3, r2
 8003852:	781b      	ldrb	r3, [r3, #0]
 8003854:	2b00      	cmp	r3, #0
 8003856:	d01d      	beq.n	8003894 <sendDigitalData+0x7c>
            uint8_t pin_state = LL_GPIO_IsInputPinSet(GPIOA, i); // Or correct GPIO port
 8003858:	69bb      	ldr	r3, [r7, #24]
 800385a:	4619      	mov	r1, r3
 800385c:	482d      	ldr	r0, [pc, #180]	@ (8003914 <sendDigitalData+0xfc>)
 800385e:	f7ff fe68 	bl	8003532 <LL_GPIO_IsInputPinSet>
 8003862:	4603      	mov	r3, r0
 8003864:	757b      	strb	r3, [r7, #21]
            buffer[index++] = pin_state ? 1 : 0;
 8003866:	7d7b      	ldrb	r3, [r7, #21]
 8003868:	2b00      	cmp	r3, #0
 800386a:	bf14      	ite	ne
 800386c:	2301      	movne	r3, #1
 800386e:	2300      	moveq	r3, #0
 8003870:	b2da      	uxtb	r2, r3
 8003872:	7ffb      	ldrb	r3, [r7, #31]
 8003874:	1c59      	adds	r1, r3, #1
 8003876:	77f9      	strb	r1, [r7, #31]
 8003878:	3320      	adds	r3, #32
 800387a:	443b      	add	r3, r7
 800387c:	f803 2c1c 	strb.w	r2, [r3, #-28]
            pin_bitmap |= (1 << i);
 8003880:	2201      	movs	r2, #1
 8003882:	69bb      	ldr	r3, [r7, #24]
 8003884:	fa02 f303 	lsl.w	r3, r2, r3
 8003888:	b25a      	sxtb	r2, r3
 800388a:	f997 301e 	ldrsb.w	r3, [r7, #30]
 800388e:	4313      	orrs	r3, r2
 8003890:	b25b      	sxtb	r3, r3
 8003892:	77bb      	strb	r3, [r7, #30]
    for (int i = 0; i < 8; i++) {
 8003894:	69bb      	ldr	r3, [r7, #24]
 8003896:	3301      	adds	r3, #1
 8003898:	61bb      	str	r3, [r7, #24]
 800389a:	69bb      	ldr	r3, [r7, #24]
 800389c:	2b07      	cmp	r3, #7
 800389e:	ddd5      	ble.n	800384c <sendDigitalData+0x34>
        }
    }

    // Timestamp
    uint16_t t = (uint16_t)getTimestamp();
 80038a0:	f7ff ff10 	bl	80036c4 <getTimestamp>
 80038a4:	4603      	mov	r3, r0
 80038a6:	82fb      	strh	r3, [r7, #22]
    buffer[index++] = (t >> 8) & 0xFF;
 80038a8:	8afb      	ldrh	r3, [r7, #22]
 80038aa:	0a1b      	lsrs	r3, r3, #8
 80038ac:	b29a      	uxth	r2, r3
 80038ae:	7ffb      	ldrb	r3, [r7, #31]
 80038b0:	1c59      	adds	r1, r3, #1
 80038b2:	77f9      	strb	r1, [r7, #31]
 80038b4:	b2d2      	uxtb	r2, r2
 80038b6:	3320      	adds	r3, #32
 80038b8:	443b      	add	r3, r7
 80038ba:	f803 2c1c 	strb.w	r2, [r3, #-28]
    buffer[index++] = t & 0xFF;
 80038be:	7ffb      	ldrb	r3, [r7, #31]
 80038c0:	1c5a      	adds	r2, r3, #1
 80038c2:	77fa      	strb	r2, [r7, #31]
 80038c4:	8afa      	ldrh	r2, [r7, #22]
 80038c6:	b2d2      	uxtb	r2, r2
 80038c8:	3320      	adds	r3, #32
 80038ca:	443b      	add	r3, r7
 80038cc:	f803 2c1c 	strb.w	r2, [r3, #-28]

    buffer[1] = pin_bitmap;
 80038d0:	7fbb      	ldrb	r3, [r7, #30]
 80038d2:	717b      	strb	r3, [r7, #5]

    if (usingESP)
 80038d4:	4b10      	ldr	r3, [pc, #64]	@ (8003918 <sendDigitalData+0x100>)
 80038d6:	781b      	ldrb	r3, [r3, #0]
 80038d8:	b2db      	uxtb	r3, r3
 80038da:	2b00      	cmp	r3, #0
 80038dc:	d007      	beq.n	80038ee <sendDigitalData+0xd6>
        sendRawUART(USART1, buffer, index);
 80038de:	7ffb      	ldrb	r3, [r7, #31]
 80038e0:	b29a      	uxth	r2, r3
 80038e2:	1d3b      	adds	r3, r7, #4
 80038e4:	4619      	mov	r1, r3
 80038e6:	480d      	ldr	r0, [pc, #52]	@ (800391c <sendDigitalData+0x104>)
 80038e8:	f7ff fc3a 	bl	8003160 <sendRawUART>
    else if (usingCP2102)
        sendRawUART(USART3, buffer, index);
}
 80038ec:	e00b      	b.n	8003906 <sendDigitalData+0xee>
    else if (usingCP2102)
 80038ee:	4b0c      	ldr	r3, [pc, #48]	@ (8003920 <sendDigitalData+0x108>)
 80038f0:	781b      	ldrb	r3, [r3, #0]
 80038f2:	b2db      	uxtb	r3, r3
 80038f4:	2b00      	cmp	r3, #0
 80038f6:	d006      	beq.n	8003906 <sendDigitalData+0xee>
        sendRawUART(USART3, buffer, index);
 80038f8:	7ffb      	ldrb	r3, [r7, #31]
 80038fa:	b29a      	uxth	r2, r3
 80038fc:	1d3b      	adds	r3, r7, #4
 80038fe:	4619      	mov	r1, r3
 8003900:	4808      	ldr	r0, [pc, #32]	@ (8003924 <sendDigitalData+0x10c>)
 8003902:	f7ff fc2d 	bl	8003160 <sendRawUART>
}
 8003906:	bf00      	nop
 8003908:	3720      	adds	r7, #32
 800390a:	46bd      	mov	sp, r7
 800390c:	bd80      	pop	{r7, pc}
 800390e:	bf00      	nop
 8003910:	20005658 	.word	0x20005658
 8003914:	40010800 	.word	0x40010800
 8003918:	200055e0 	.word	0x200055e0
 800391c:	40013800 	.word	0x40013800
 8003920:	200055e1 	.word	0x200055e1
 8003924:	40004800 	.word	0x40004800

08003928 <sendSignalData>:

void sendSignalData(void)
{
 8003928:	b580      	push	{r7, lr}
 800392a:	af00      	add	r7, sp, #0
    if (signalMode == SIGNAL_MODE_ADC)
 800392c:	4b08      	ldr	r3, [pc, #32]	@ (8003950 <sendSignalData+0x28>)
 800392e:	781b      	ldrb	r3, [r3, #0]
 8003930:	b2db      	uxtb	r3, r3
 8003932:	2b00      	cmp	r3, #0
 8003934:	d102      	bne.n	800393c <sendSignalData+0x14>
        sendADCData();
 8003936:	f7ff fecf 	bl	80036d8 <sendADCData>
    else if (signalMode == SIGNAL_MODE_DIGITAL)
        sendDigitalData();
}
 800393a:	e006      	b.n	800394a <sendSignalData+0x22>
    else if (signalMode == SIGNAL_MODE_DIGITAL)
 800393c:	4b04      	ldr	r3, [pc, #16]	@ (8003950 <sendSignalData+0x28>)
 800393e:	781b      	ldrb	r3, [r3, #0]
 8003940:	b2db      	uxtb	r3, r3
 8003942:	2b01      	cmp	r3, #1
 8003944:	d101      	bne.n	800394a <sendSignalData+0x22>
        sendDigitalData();
 8003946:	f7ff ff67 	bl	8003818 <sendDigitalData>
}
 800394a:	bf00      	nop
 800394c:	bd80      	pop	{r7, pc}
 800394e:	bf00      	nop
 8003950:	20005660 	.word	0x20005660

08003954 <LL_DMA_IsActiveFlag_TC5>:
{
 8003954:	b480      	push	{r7}
 8003956:	b083      	sub	sp, #12
 8003958:	af00      	add	r7, sp, #0
 800395a:	6078      	str	r0, [r7, #4]
  return (READ_BIT(DMAx->ISR, DMA_ISR_TCIF5) == (DMA_ISR_TCIF5));
 800395c:	687b      	ldr	r3, [r7, #4]
 800395e:	681b      	ldr	r3, [r3, #0]
 8003960:	f403 3300 	and.w	r3, r3, #131072	@ 0x20000
 8003964:	f5b3 3f00 	cmp.w	r3, #131072	@ 0x20000
 8003968:	bf0c      	ite	eq
 800396a:	2301      	moveq	r3, #1
 800396c:	2300      	movne	r3, #0
 800396e:	b2db      	uxtb	r3, r3
}
 8003970:	4618      	mov	r0, r3
 8003972:	370c      	adds	r7, #12
 8003974:	46bd      	mov	sp, r7
 8003976:	bc80      	pop	{r7}
 8003978:	4770      	bx	lr

0800397a <LL_DMA_ClearFlag_TC5>:
{
 800397a:	b480      	push	{r7}
 800397c:	b083      	sub	sp, #12
 800397e:	af00      	add	r7, sp, #0
 8003980:	6078      	str	r0, [r7, #4]
  WRITE_REG(DMAx->IFCR, DMA_IFCR_CTCIF5);
 8003982:	687b      	ldr	r3, [r7, #4]
 8003984:	f44f 3200 	mov.w	r2, #131072	@ 0x20000
 8003988:	605a      	str	r2, [r3, #4]
}
 800398a:	bf00      	nop
 800398c:	370c      	adds	r7, #12
 800398e:	46bd      	mov	sp, r7
 8003990:	bc80      	pop	{r7}
 8003992:	4770      	bx	lr

08003994 <LL_DMA_ClearFlag_HT5>:
{
 8003994:	b480      	push	{r7}
 8003996:	b083      	sub	sp, #12
 8003998:	af00      	add	r7, sp, #0
 800399a:	6078      	str	r0, [r7, #4]
  WRITE_REG(DMAx->IFCR, DMA_IFCR_CHTIF5);
 800399c:	687b      	ldr	r3, [r7, #4]
 800399e:	f44f 2280 	mov.w	r2, #262144	@ 0x40000
 80039a2:	605a      	str	r2, [r3, #4]
}
 80039a4:	bf00      	nop
 80039a6:	370c      	adds	r7, #12
 80039a8:	46bd      	mov	sp, r7
 80039aa:	bc80      	pop	{r7}
 80039ac:	4770      	bx	lr

080039ae <LL_DMA_ClearFlag_TE5>:
{
 80039ae:	b480      	push	{r7}
 80039b0:	b083      	sub	sp, #12
 80039b2:	af00      	add	r7, sp, #0
 80039b4:	6078      	str	r0, [r7, #4]
  WRITE_REG(DMAx->IFCR, DMA_IFCR_CTEIF5);
 80039b6:	687b      	ldr	r3, [r7, #4]
 80039b8:	f44f 2200 	mov.w	r2, #524288	@ 0x80000
 80039bc:	605a      	str	r2, [r3, #4]
}
 80039be:	bf00      	nop
 80039c0:	370c      	adds	r7, #12
 80039c2:	46bd      	mov	sp, r7
 80039c4:	bc80      	pop	{r7}
 80039c6:	4770      	bx	lr

080039c8 <LL_EXTI_IsActiveFlag_0_31>:
  *         @arg @ref LL_EXTI_LINE_19
  * @note   Please check each device line mapping for EXTI Line availability
  * @retval State of bit (1 or 0).
  */
__STATIC_INLINE uint32_t LL_EXTI_IsActiveFlag_0_31(uint32_t ExtiLine)
{
 80039c8:	b480      	push	{r7}
 80039ca:	b083      	sub	sp, #12
 80039cc:	af00      	add	r7, sp, #0
 80039ce:	6078      	str	r0, [r7, #4]
  return (READ_BIT(EXTI->PR, ExtiLine) == (ExtiLine));
 80039d0:	4b07      	ldr	r3, [pc, #28]	@ (80039f0 <LL_EXTI_IsActiveFlag_0_31+0x28>)
 80039d2:	695a      	ldr	r2, [r3, #20]
 80039d4:	687b      	ldr	r3, [r7, #4]
 80039d6:	4013      	ands	r3, r2
 80039d8:	687a      	ldr	r2, [r7, #4]
 80039da:	429a      	cmp	r2, r3
 80039dc:	bf0c      	ite	eq
 80039de:	2301      	moveq	r3, #1
 80039e0:	2300      	movne	r3, #0
 80039e2:	b2db      	uxtb	r3, r3
}
 80039e4:	4618      	mov	r0, r3
 80039e6:	370c      	adds	r7, #12
 80039e8:	46bd      	mov	sp, r7
 80039ea:	bc80      	pop	{r7}
 80039ec:	4770      	bx	lr
 80039ee:	bf00      	nop
 80039f0:	40010400 	.word	0x40010400

080039f4 <LL_EXTI_ClearFlag_0_31>:
  *         @arg @ref LL_EXTI_LINE_19
  * @note   Please check each device line mapping for EXTI Line availability
  * @retval None
  */
__STATIC_INLINE void LL_EXTI_ClearFlag_0_31(uint32_t ExtiLine)
{
 80039f4:	b480      	push	{r7}
 80039f6:	b083      	sub	sp, #12
 80039f8:	af00      	add	r7, sp, #0
 80039fa:	6078      	str	r0, [r7, #4]
  WRITE_REG(EXTI->PR, ExtiLine);
 80039fc:	4a03      	ldr	r2, [pc, #12]	@ (8003a0c <LL_EXTI_ClearFlag_0_31+0x18>)
 80039fe:	687b      	ldr	r3, [r7, #4]
 8003a00:	6153      	str	r3, [r2, #20]
}
 8003a02:	bf00      	nop
 8003a04:	370c      	adds	r7, #12
 8003a06:	46bd      	mov	sp, r7
 8003a08:	bc80      	pop	{r7}
 8003a0a:	4770      	bx	lr
 8003a0c:	40010400 	.word	0x40010400

08003a10 <LL_USART_IsActiveFlag_RXNE>:
{
 8003a10:	b480      	push	{r7}
 8003a12:	b083      	sub	sp, #12
 8003a14:	af00      	add	r7, sp, #0
 8003a16:	6078      	str	r0, [r7, #4]
  return (READ_BIT(USARTx->SR, USART_SR_RXNE) == (USART_SR_RXNE));
 8003a18:	687b      	ldr	r3, [r7, #4]
 8003a1a:	681b      	ldr	r3, [r3, #0]
 8003a1c:	f003 0320 	and.w	r3, r3, #32
 8003a20:	2b20      	cmp	r3, #32
 8003a22:	bf0c      	ite	eq
 8003a24:	2301      	moveq	r3, #1
 8003a26:	2300      	movne	r3, #0
 8003a28:	b2db      	uxtb	r3, r3
}
 8003a2a:	4618      	mov	r0, r3
 8003a2c:	370c      	adds	r7, #12
 8003a2e:	46bd      	mov	sp, r7
 8003a30:	bc80      	pop	{r7}
 8003a32:	4770      	bx	lr

08003a34 <LL_USART_ReceiveData8>:
{
 8003a34:	b480      	push	{r7}
 8003a36:	b083      	sub	sp, #12
 8003a38:	af00      	add	r7, sp, #0
 8003a3a:	6078      	str	r0, [r7, #4]
  return (uint8_t)(READ_BIT(USARTx->DR, USART_DR_DR));
 8003a3c:	687b      	ldr	r3, [r7, #4]
 8003a3e:	685b      	ldr	r3, [r3, #4]
 8003a40:	b2db      	uxtb	r3, r3
}
 8003a42:	4618      	mov	r0, r3
 8003a44:	370c      	adds	r7, #12
 8003a46:	46bd      	mov	sp, r7
 8003a48:	bc80      	pop	{r7}
 8003a4a:	4770      	bx	lr

08003a4c <NMI_Handler>:
/******************************************************************************/
/**
  * @brief This function handles Non maskable interrupt.
  */
void NMI_Handler(void)
{
 8003a4c:	b480      	push	{r7}
 8003a4e:	af00      	add	r7, sp, #0
  /* USER CODE BEGIN NonMaskableInt_IRQn 0 */

  /* USER CODE END NonMaskableInt_IRQn 0 */
  /* USER CODE BEGIN NonMaskableInt_IRQn 1 */
   while (1)
 8003a50:	bf00      	nop
 8003a52:	e7fd      	b.n	8003a50 <NMI_Handler+0x4>

08003a54 <HardFault_Handler>:

/**
  * @brief This function handles Hard fault interrupt.
  */
void HardFault_Handler(void)
{
 8003a54:	b480      	push	{r7}
 8003a56:	af00      	add	r7, sp, #0
  /* USER CODE BEGIN HardFault_IRQn 0 */

  /* USER CODE END HardFault_IRQn 0 */
  while (1)
 8003a58:	bf00      	nop
 8003a5a:	e7fd      	b.n	8003a58 <HardFault_Handler+0x4>

08003a5c <MemManage_Handler>:

/**
  * @brief This function handles Memory management fault.
  */
void MemManage_Handler(void)
{
 8003a5c:	b480      	push	{r7}
 8003a5e:	af00      	add	r7, sp, #0
  /* USER CODE BEGIN MemoryManagement_IRQn 0 */

  /* USER CODE END MemoryManagement_IRQn 0 */
  while (1)
 8003a60:	bf00      	nop
 8003a62:	e7fd      	b.n	8003a60 <MemManage_Handler+0x4>

08003a64 <BusFault_Handler>:

/**
  * @brief This function handles Prefetch fault, memory access fault.
  */
void BusFault_Handler(void)
{
 8003a64:	b480      	push	{r7}
 8003a66:	af00      	add	r7, sp, #0
  /* USER CODE BEGIN BusFault_IRQn 0 */

  /* USER CODE END BusFault_IRQn 0 */
  while (1)
 8003a68:	bf00      	nop
 8003a6a:	e7fd      	b.n	8003a68 <BusFault_Handler+0x4>

08003a6c <UsageFault_Handler>:

/**
  * @brief This function handles Undefined instruction or illegal state.
  */
void UsageFault_Handler(void)
{
 8003a6c:	b480      	push	{r7}
 8003a6e:	af00      	add	r7, sp, #0
  /* USER CODE BEGIN UsageFault_IRQn 0 */

  /* USER CODE END UsageFault_IRQn 0 */
  while (1)
 8003a70:	bf00      	nop
 8003a72:	e7fd      	b.n	8003a70 <UsageFault_Handler+0x4>

08003a74 <SVC_Handler>:

/**
  * @brief This function handles System service call via SWI instruction.
  */
void SVC_Handler(void)
{
 8003a74:	b480      	push	{r7}
 8003a76:	af00      	add	r7, sp, #0

  /* USER CODE END SVCall_IRQn 0 */
  /* USER CODE BEGIN SVCall_IRQn 1 */

  /* USER CODE END SVCall_IRQn 1 */
}
 8003a78:	bf00      	nop
 8003a7a:	46bd      	mov	sp, r7
 8003a7c:	bc80      	pop	{r7}
 8003a7e:	4770      	bx	lr

08003a80 <DebugMon_Handler>:

/**
  * @brief This function handles Debug monitor.
  */
void DebugMon_Handler(void)
{
 8003a80:	b480      	push	{r7}
 8003a82:	af00      	add	r7, sp, #0

  /* USER CODE END DebugMonitor_IRQn 0 */
  /* USER CODE BEGIN DebugMonitor_IRQn 1 */

  /* USER CODE END DebugMonitor_IRQn 1 */
}
 8003a84:	bf00      	nop
 8003a86:	46bd      	mov	sp, r7
 8003a88:	bc80      	pop	{r7}
 8003a8a:	4770      	bx	lr

08003a8c <PendSV_Handler>:

/**
  * @brief This function handles Pendable request for system service.
  */
void PendSV_Handler(void)
{
 8003a8c:	b480      	push	{r7}
 8003a8e:	af00      	add	r7, sp, #0

  /* USER CODE END PendSV_IRQn 0 */
  /* USER CODE BEGIN PendSV_IRQn 1 */

  /* USER CODE END PendSV_IRQn 1 */
}
 8003a90:	bf00      	nop
 8003a92:	46bd      	mov	sp, r7
 8003a94:	bc80      	pop	{r7}
 8003a96:	4770      	bx	lr

08003a98 <SysTick_Handler>:

/**
  * @brief This function handles System tick timer.
  */
void SysTick_Handler(void)
{
 8003a98:	b480      	push	{r7}
 8003a9a:	af00      	add	r7, sp, #0
  /* USER CODE END SysTick_IRQn 0 */

  /* USER CODE BEGIN SysTick_IRQn 1 */

  /* USER CODE END SysTick_IRQn 1 */
}
 8003a9c:	bf00      	nop
 8003a9e:	46bd      	mov	sp, r7
 8003aa0:	bc80      	pop	{r7}
 8003aa2:	4770      	bx	lr

08003aa4 <DMA1_Channel1_IRQHandler>:

/**
  * @brief This function handles DMA1 channel1 global interrupt.
  */
void DMA1_Channel1_IRQHandler(void)
{
 8003aa4:	b480      	push	{r7}
 8003aa6:	af00      	add	r7, sp, #0

  /* USER CODE END DMA1_Channel1_IRQn 0 */
  /* USER CODE BEGIN DMA1_Channel1_IRQn 1 */

  /* USER CODE END DMA1_Channel1_IRQn 1 */
}
 8003aa8:	bf00      	nop
 8003aaa:	46bd      	mov	sp, r7
 8003aac:	bc80      	pop	{r7}
 8003aae:	4770      	bx	lr

08003ab0 <DMA1_Channel5_IRQHandler>:

/**
  * @brief This function handles DMA1 channel5 global interrupt.
  */
void DMA1_Channel5_IRQHandler(void)
{
 8003ab0:	b580      	push	{r7, lr}
 8003ab2:	af00      	add	r7, sp, #0
  /* USER CODE BEGIN DMA1_Channel5_IRQn 0 */

  /* USER CODE END DMA1_Channel5_IRQn 0 */
  /* USER CODE BEGIN DMA1_Channel5_IRQn 1 */

	if (LL_DMA_IsActiveFlag_TC5(DMA1)) {
 8003ab4:	480a      	ldr	r0, [pc, #40]	@ (8003ae0 <DMA1_Channel5_IRQHandler+0x30>)
 8003ab6:	f7ff ff4d 	bl	8003954 <LL_DMA_IsActiveFlag_TC5>
 8003aba:	4603      	mov	r3, r0
 8003abc:	2b00      	cmp	r3, #0
 8003abe:	d00c      	beq.n	8003ada <DMA1_Channel5_IRQHandler+0x2a>
//		LL_DMA_ClearFlag_GI5(DMA1);
		LL_DMA_ClearFlag_TC5(DMA1);  // Clear transfer complete flag
 8003ac0:	4807      	ldr	r0, [pc, #28]	@ (8003ae0 <DMA1_Channel5_IRQHandler+0x30>)
 8003ac2:	f7ff ff5a 	bl	800397a <LL_DMA_ClearFlag_TC5>
		LL_DMA_ClearFlag_HT5(DMA1);  // Clear half transfer flag
 8003ac6:	4806      	ldr	r0, [pc, #24]	@ (8003ae0 <DMA1_Channel5_IRQHandler+0x30>)
 8003ac8:	f7ff ff64 	bl	8003994 <LL_DMA_ClearFlag_HT5>
		LL_DMA_ClearFlag_TE5(DMA1);  // Clear transfer error flag
 8003acc:	4804      	ldr	r0, [pc, #16]	@ (8003ae0 <DMA1_Channel5_IRQHandler+0x30>)
 8003ace:	f7ff ff6e 	bl	80039ae <LL_DMA_ClearFlag_TE5>

		// Trigger callback when transfer is complete
		LL_TIM_PWM_PulseFinishedCallback(TIM2);
 8003ad2:	f04f 4080 	mov.w	r0, #1073741824	@ 0x40000000
 8003ad6:	f7fc ff2d 	bl	8000934 <LL_TIM_PWM_PulseFinishedCallback>
	}

  /* USER CODE END DMA1_Channel5_IRQn 1 */
}
 8003ada:	bf00      	nop
 8003adc:	bd80      	pop	{r7, pc}
 8003ade:	bf00      	nop
 8003ae0:	40020000 	.word	0x40020000

08003ae4 <USART1_IRQHandler>:

/**
  * @brief This function handles USART1 global interrupt.
  */
void USART1_IRQHandler(void)
{
 8003ae4:	b580      	push	{r7, lr}
 8003ae6:	b082      	sub	sp, #8
 8003ae8:	af00      	add	r7, sp, #0
  /* USER CODE BEGIN USART1_IRQn 0 */

  /* USER CODE END USART1_IRQn 0 */
  /* USER CODE BEGIN USART1_IRQn 1 */
	if (LL_USART_IsActiveFlag_RXNE(USART1))
 8003aea:	480d      	ldr	r0, [pc, #52]	@ (8003b20 <USART1_IRQHandler+0x3c>)
 8003aec:	f7ff ff90 	bl	8003a10 <LL_USART_IsActiveFlag_RXNE>
 8003af0:	4603      	mov	r3, r0
 8003af2:	2b00      	cmp	r3, #0
 8003af4:	d00f      	beq.n	8003b16 <USART1_IRQHandler+0x32>
	{
        usingESP = 1;
 8003af6:	4b0b      	ldr	r3, [pc, #44]	@ (8003b24 <USART1_IRQHandler+0x40>)
 8003af8:	2201      	movs	r2, #1
 8003afa:	701a      	strb	r2, [r3, #0]
        usingCP2102 = 0;
 8003afc:	4b0a      	ldr	r3, [pc, #40]	@ (8003b28 <USART1_IRQHandler+0x44>)
 8003afe:	2200      	movs	r2, #0
 8003b00:	701a      	strb	r2, [r3, #0]
		uint8_t receivedByte = LL_USART_ReceiveData8(USART1);
 8003b02:	4807      	ldr	r0, [pc, #28]	@ (8003b20 <USART1_IRQHandler+0x3c>)
 8003b04:	f7ff ff96 	bl	8003a34 <LL_USART_ReceiveData8>
 8003b08:	4603      	mov	r3, r0
 8003b0a:	71fb      	strb	r3, [r7, #7]
		UART_ProcessReceivedByte(receivedByte, 1);  // Process received data for UART1
 8003b0c:	79fb      	ldrb	r3, [r7, #7]
 8003b0e:	2101      	movs	r1, #1
 8003b10:	4618      	mov	r0, r3
 8003b12:	f7ff fb51 	bl	80031b8 <UART_ProcessReceivedByte>
	}
  /* USER CODE END USART1_IRQn 1 */
}
 8003b16:	bf00      	nop
 8003b18:	3708      	adds	r7, #8
 8003b1a:	46bd      	mov	sp, r7
 8003b1c:	bd80      	pop	{r7, pc}
 8003b1e:	bf00      	nop
 8003b20:	40013800 	.word	0x40013800
 8003b24:	200055e0 	.word	0x200055e0
 8003b28:	200055e1 	.word	0x200055e1

08003b2c <USART3_IRQHandler>:

/**
  * @brief This function handles USART3 global interrupt.
  */
void USART3_IRQHandler(void)
{
 8003b2c:	b580      	push	{r7, lr}
 8003b2e:	b082      	sub	sp, #8
 8003b30:	af00      	add	r7, sp, #0
  /* USER CODE BEGIN USART3_IRQn 0 */

  /* USER CODE END USART3_IRQn 0 */
  /* USER CODE BEGIN USART3_IRQn 1 */
    usingCP2102 = 1;
 8003b32:	4b0d      	ldr	r3, [pc, #52]	@ (8003b68 <USART3_IRQHandler+0x3c>)
 8003b34:	2201      	movs	r2, #1
 8003b36:	701a      	strb	r2, [r3, #0]
	usingESP = 0;
 8003b38:	4b0c      	ldr	r3, [pc, #48]	@ (8003b6c <USART3_IRQHandler+0x40>)
 8003b3a:	2200      	movs	r2, #0
 8003b3c:	701a      	strb	r2, [r3, #0]
	if (LL_USART_IsActiveFlag_RXNE(USART3))
 8003b3e:	480c      	ldr	r0, [pc, #48]	@ (8003b70 <USART3_IRQHandler+0x44>)
 8003b40:	f7ff ff66 	bl	8003a10 <LL_USART_IsActiveFlag_RXNE>
 8003b44:	4603      	mov	r3, r0
 8003b46:	2b00      	cmp	r3, #0
 8003b48:	d009      	beq.n	8003b5e <USART3_IRQHandler+0x32>
	{

		uint8_t receivedByte = LL_USART_ReceiveData8(USART3);
 8003b4a:	4809      	ldr	r0, [pc, #36]	@ (8003b70 <USART3_IRQHandler+0x44>)
 8003b4c:	f7ff ff72 	bl	8003a34 <LL_USART_ReceiveData8>
 8003b50:	4603      	mov	r3, r0
 8003b52:	71fb      	strb	r3, [r7, #7]
		UART_ProcessReceivedByte(receivedByte, 3);  // Process received data for UART3
 8003b54:	79fb      	ldrb	r3, [r7, #7]
 8003b56:	2103      	movs	r1, #3
 8003b58:	4618      	mov	r0, r3
 8003b5a:	f7ff fb2d 	bl	80031b8 <UART_ProcessReceivedByte>
	}
  /* USER CODE END USART3_IRQn 1 */
}
 8003b5e:	bf00      	nop
 8003b60:	3708      	adds	r7, #8
 8003b62:	46bd      	mov	sp, r7
 8003b64:	bd80      	pop	{r7, pc}
 8003b66:	bf00      	nop
 8003b68:	200055e1 	.word	0x200055e1
 8003b6c:	200055e0 	.word	0x200055e0
 8003b70:	40004800 	.word	0x40004800

08003b74 <EXTI15_10_IRQHandler>:

/**
  * @brief This function handles EXTI line[15:10] interrupts.
  */
void EXTI15_10_IRQHandler(void)
{
 8003b74:	b580      	push	{r7, lr}
 8003b76:	af00      	add	r7, sp, #0
  /* USER CODE BEGIN EXTI15_10_IRQn 0 */

  /* USER CODE END EXTI15_10_IRQn 0 */
  if (LL_EXTI_IsActiveFlag_0_31(LL_EXTI_LINE_12) != RESET)
 8003b78:	f44f 5080 	mov.w	r0, #4096	@ 0x1000
 8003b7c:	f7ff ff24 	bl	80039c8 <LL_EXTI_IsActiveFlag_0_31>
 8003b80:	4603      	mov	r3, r0
 8003b82:	2b00      	cmp	r3, #0
 8003b84:	d005      	beq.n	8003b92 <EXTI15_10_IRQHandler+0x1e>
  {
    LL_EXTI_ClearFlag_0_31(LL_EXTI_LINE_12);
 8003b86:	f44f 5080 	mov.w	r0, #4096	@ 0x1000
 8003b8a:	f7ff ff33 	bl	80039f4 <LL_EXTI_ClearFlag_0_31>
    /* USER CODE BEGIN LL_EXTI_LINE_12 */
    FAULT_3v3_HandleInterrupt();  // Handle FAULT 3V3
 8003b8e:	f7fc fbdd 	bl	800034c <FAULT_3v3_HandleInterrupt>
    /* USER CODE END LL_EXTI_LINE_12 */
  }
  if (LL_EXTI_IsActiveFlag_0_31(LL_EXTI_LINE_13) != RESET)
 8003b92:	f44f 5000 	mov.w	r0, #8192	@ 0x2000
 8003b96:	f7ff ff17 	bl	80039c8 <LL_EXTI_IsActiveFlag_0_31>
 8003b9a:	4603      	mov	r3, r0
 8003b9c:	2b00      	cmp	r3, #0
 8003b9e:	d005      	beq.n	8003bac <EXTI15_10_IRQHandler+0x38>
  {
    LL_EXTI_ClearFlag_0_31(LL_EXTI_LINE_13);
 8003ba0:	f44f 5000 	mov.w	r0, #8192	@ 0x2000
 8003ba4:	f7ff ff26 	bl	80039f4 <LL_EXTI_ClearFlag_0_31>
    /* USER CODE BEGIN LL_EXTI_LINE_13 */
    FAULT_5v_HandleInterrupt();  // Handle FAULT 3V3
 8003ba8:	f7fc fbc0 	bl	800032c <FAULT_5v_HandleInterrupt>
    /* USER CODE END LL_EXTI_LINE_13 */
  }
  /* USER CODE BEGIN EXTI15_10_IRQn 1 */

  /* USER CODE END EXTI15_10_IRQn 1 */
}
 8003bac:	bf00      	nop
 8003bae:	bd80      	pop	{r7, pc}

08003bb0 <_read>:
  _kill(status, -1);
  while (1) {}    /* Make sure we hang here */
}

__attribute__((weak)) int _read(int file, char *ptr, int len)
{
 8003bb0:	b580      	push	{r7, lr}
 8003bb2:	b086      	sub	sp, #24
 8003bb4:	af00      	add	r7, sp, #0
 8003bb6:	60f8      	str	r0, [r7, #12]
 8003bb8:	60b9      	str	r1, [r7, #8]
 8003bba:	607a      	str	r2, [r7, #4]
  (void)file;
  int DataIdx;

  for (DataIdx = 0; DataIdx < len; DataIdx++)
 8003bbc:	2300      	movs	r3, #0
 8003bbe:	617b      	str	r3, [r7, #20]
 8003bc0:	e00a      	b.n	8003bd8 <_read+0x28>
  {
    *ptr++ = __io_getchar();
 8003bc2:	f3af 8000 	nop.w
 8003bc6:	4601      	mov	r1, r0
 8003bc8:	68bb      	ldr	r3, [r7, #8]
 8003bca:	1c5a      	adds	r2, r3, #1
 8003bcc:	60ba      	str	r2, [r7, #8]
 8003bce:	b2ca      	uxtb	r2, r1
 8003bd0:	701a      	strb	r2, [r3, #0]
  for (DataIdx = 0; DataIdx < len; DataIdx++)
 8003bd2:	697b      	ldr	r3, [r7, #20]
 8003bd4:	3301      	adds	r3, #1
 8003bd6:	617b      	str	r3, [r7, #20]
 8003bd8:	697a      	ldr	r2, [r7, #20]
 8003bda:	687b      	ldr	r3, [r7, #4]
 8003bdc:	429a      	cmp	r2, r3
 8003bde:	dbf0      	blt.n	8003bc2 <_read+0x12>
  }

  return len;
 8003be0:	687b      	ldr	r3, [r7, #4]
}
 8003be2:	4618      	mov	r0, r3
 8003be4:	3718      	adds	r7, #24
 8003be6:	46bd      	mov	sp, r7
 8003be8:	bd80      	pop	{r7, pc}

08003bea <_close>:
  }
  return len;
}

int _close(int file)
{
 8003bea:	b480      	push	{r7}
 8003bec:	b083      	sub	sp, #12
 8003bee:	af00      	add	r7, sp, #0
 8003bf0:	6078      	str	r0, [r7, #4]
  (void)file;
  return -1;
 8003bf2:	f04f 33ff 	mov.w	r3, #4294967295
}
 8003bf6:	4618      	mov	r0, r3
 8003bf8:	370c      	adds	r7, #12
 8003bfa:	46bd      	mov	sp, r7
 8003bfc:	bc80      	pop	{r7}
 8003bfe:	4770      	bx	lr

08003c00 <_fstat>:


int _fstat(int file, struct stat *st)
{
 8003c00:	b480      	push	{r7}
 8003c02:	b083      	sub	sp, #12
 8003c04:	af00      	add	r7, sp, #0
 8003c06:	6078      	str	r0, [r7, #4]
 8003c08:	6039      	str	r1, [r7, #0]
  (void)file;
  st->st_mode = S_IFCHR;
 8003c0a:	683b      	ldr	r3, [r7, #0]
 8003c0c:	f44f 5200 	mov.w	r2, #8192	@ 0x2000
 8003c10:	605a      	str	r2, [r3, #4]
  return 0;
 8003c12:	2300      	movs	r3, #0
}
 8003c14:	4618      	mov	r0, r3
 8003c16:	370c      	adds	r7, #12
 8003c18:	46bd      	mov	sp, r7
 8003c1a:	bc80      	pop	{r7}
 8003c1c:	4770      	bx	lr

08003c1e <_isatty>:

int _isatty(int file)
{
 8003c1e:	b480      	push	{r7}
 8003c20:	b083      	sub	sp, #12
 8003c22:	af00      	add	r7, sp, #0
 8003c24:	6078      	str	r0, [r7, #4]
  (void)file;
  return 1;
 8003c26:	2301      	movs	r3, #1
}
 8003c28:	4618      	mov	r0, r3
 8003c2a:	370c      	adds	r7, #12
 8003c2c:	46bd      	mov	sp, r7
 8003c2e:	bc80      	pop	{r7}
 8003c30:	4770      	bx	lr

08003c32 <_lseek>:

int _lseek(int file, int ptr, int dir)
{
 8003c32:	b480      	push	{r7}
 8003c34:	b085      	sub	sp, #20
 8003c36:	af00      	add	r7, sp, #0
 8003c38:	60f8      	str	r0, [r7, #12]
 8003c3a:	60b9      	str	r1, [r7, #8]
 8003c3c:	607a      	str	r2, [r7, #4]
  (void)file;
  (void)ptr;
  (void)dir;
  return 0;
 8003c3e:	2300      	movs	r3, #0
}
 8003c40:	4618      	mov	r0, r3
 8003c42:	3714      	adds	r7, #20
 8003c44:	46bd      	mov	sp, r7
 8003c46:	bc80      	pop	{r7}
 8003c48:	4770      	bx	lr
	...

08003c4c <_sbrk>:
 *
 * @param incr Memory size
 * @return Pointer to allocated memory
 */
void *_sbrk(ptrdiff_t incr)
{
 8003c4c:	b580      	push	{r7, lr}
 8003c4e:	b086      	sub	sp, #24
 8003c50:	af00      	add	r7, sp, #0
 8003c52:	6078      	str	r0, [r7, #4]
  extern uint8_t _end; /* Symbol defined in the linker script */
  extern uint8_t _estack; /* Symbol defined in the linker script */
  extern uint32_t _Min_Stack_Size; /* Symbol defined in the linker script */
  const uint32_t stack_limit = (uint32_t)&_estack - (uint32_t)&_Min_Stack_Size;
 8003c54:	4a14      	ldr	r2, [pc, #80]	@ (8003ca8 <_sbrk+0x5c>)
 8003c56:	4b15      	ldr	r3, [pc, #84]	@ (8003cac <_sbrk+0x60>)
 8003c58:	1ad3      	subs	r3, r2, r3
 8003c5a:	617b      	str	r3, [r7, #20]
  const uint8_t *max_heap = (uint8_t *)stack_limit;
 8003c5c:	697b      	ldr	r3, [r7, #20]
 8003c5e:	613b      	str	r3, [r7, #16]
  uint8_t *prev_heap_end;

  /* Initialize heap end at first call */
  if (NULL == __sbrk_heap_end)
 8003c60:	4b13      	ldr	r3, [pc, #76]	@ (8003cb0 <_sbrk+0x64>)
 8003c62:	681b      	ldr	r3, [r3, #0]
 8003c64:	2b00      	cmp	r3, #0
 8003c66:	d102      	bne.n	8003c6e <_sbrk+0x22>
  {
    __sbrk_heap_end = &_end;
 8003c68:	4b11      	ldr	r3, [pc, #68]	@ (8003cb0 <_sbrk+0x64>)
 8003c6a:	4a12      	ldr	r2, [pc, #72]	@ (8003cb4 <_sbrk+0x68>)
 8003c6c:	601a      	str	r2, [r3, #0]
  }

  /* Protect heap from growing into the reserved MSP stack */
  if (__sbrk_heap_end + incr > max_heap)
 8003c6e:	4b10      	ldr	r3, [pc, #64]	@ (8003cb0 <_sbrk+0x64>)
 8003c70:	681a      	ldr	r2, [r3, #0]
 8003c72:	687b      	ldr	r3, [r7, #4]
 8003c74:	4413      	add	r3, r2
 8003c76:	693a      	ldr	r2, [r7, #16]
 8003c78:	429a      	cmp	r2, r3
 8003c7a:	d207      	bcs.n	8003c8c <_sbrk+0x40>
  {
    errno = ENOMEM;
 8003c7c:	f001 fc38 	bl	80054f0 <__errno>
 8003c80:	4603      	mov	r3, r0
 8003c82:	220c      	movs	r2, #12
 8003c84:	601a      	str	r2, [r3, #0]
    return (void *)-1;
 8003c86:	f04f 33ff 	mov.w	r3, #4294967295
 8003c8a:	e009      	b.n	8003ca0 <_sbrk+0x54>
  }

  prev_heap_end = __sbrk_heap_end;
 8003c8c:	4b08      	ldr	r3, [pc, #32]	@ (8003cb0 <_sbrk+0x64>)
 8003c8e:	681b      	ldr	r3, [r3, #0]
 8003c90:	60fb      	str	r3, [r7, #12]
  __sbrk_heap_end += incr;
 8003c92:	4b07      	ldr	r3, [pc, #28]	@ (8003cb0 <_sbrk+0x64>)
 8003c94:	681a      	ldr	r2, [r3, #0]
 8003c96:	687b      	ldr	r3, [r7, #4]
 8003c98:	4413      	add	r3, r2
 8003c9a:	4a05      	ldr	r2, [pc, #20]	@ (8003cb0 <_sbrk+0x64>)
 8003c9c:	6013      	str	r3, [r2, #0]

  return (void *)prev_heap_end;
 8003c9e:	68fb      	ldr	r3, [r7, #12]
}
 8003ca0:	4618      	mov	r0, r3
 8003ca2:	3718      	adds	r7, #24
 8003ca4:	46bd      	mov	sp, r7
 8003ca6:	bd80      	pop	{r7, pc}
 8003ca8:	20010000 	.word	0x20010000
 8003cac:	00000400 	.word	0x00000400
 8003cb0:	20005664 	.word	0x20005664
 8003cb4:	200057b8 	.word	0x200057b8

08003cb8 <SystemInit>:
  * @note   This function should be used only after reset.
  * @param  None
  * @retval None
  */
void SystemInit (void)
{
 8003cb8:	b480      	push	{r7}
 8003cba:	af00      	add	r7, sp, #0

  /* Configure the Vector Table location -------------------------------------*/
#if defined(USER_VECT_TAB_ADDRESS)
  SCB->VTOR = VECT_TAB_BASE_ADDRESS | VECT_TAB_OFFSET; /* Vector Table Relocation in Internal SRAM. */
#endif /* USER_VECT_TAB_ADDRESS */
}
 8003cbc:	bf00      	nop
 8003cbe:	46bd      	mov	sp, r7
 8003cc0:	bc80      	pop	{r7}
 8003cc2:	4770      	bx	lr

08003cc4 <Reset_Handler>:
 8003cc4:	f7ff fff8 	bl	8003cb8 <SystemInit>
 8003cc8:	480b      	ldr	r0, [pc, #44]	@ (8003cf8 <LoopFillZerobss+0xe>)
 8003cca:	490c      	ldr	r1, [pc, #48]	@ (8003cfc <LoopFillZerobss+0x12>)
 8003ccc:	4a0c      	ldr	r2, [pc, #48]	@ (8003d00 <LoopFillZerobss+0x16>)
 8003cce:	2300      	movs	r3, #0
 8003cd0:	e002      	b.n	8003cd8 <LoopCopyDataInit>

08003cd2 <CopyDataInit>:
 8003cd2:	58d4      	ldr	r4, [r2, r3]
 8003cd4:	50c4      	str	r4, [r0, r3]
 8003cd6:	3304      	adds	r3, #4

08003cd8 <LoopCopyDataInit>:
 8003cd8:	18c4      	adds	r4, r0, r3
 8003cda:	428c      	cmp	r4, r1
 8003cdc:	d3f9      	bcc.n	8003cd2 <CopyDataInit>
 8003cde:	4a09      	ldr	r2, [pc, #36]	@ (8003d04 <LoopFillZerobss+0x1a>)
 8003ce0:	4c09      	ldr	r4, [pc, #36]	@ (8003d08 <LoopFillZerobss+0x1e>)
 8003ce2:	2300      	movs	r3, #0
 8003ce4:	e001      	b.n	8003cea <LoopFillZerobss>

08003ce6 <FillZerobss>:
 8003ce6:	6013      	str	r3, [r2, #0]
 8003ce8:	3204      	adds	r2, #4

08003cea <LoopFillZerobss>:
 8003cea:	42a2      	cmp	r2, r4
 8003cec:	d3fb      	bcc.n	8003ce6 <FillZerobss>
 8003cee:	f001 fc05 	bl	80054fc <__libc_init_array>
 8003cf2:	f7fd fbf7 	bl	80014e4 <main>
 8003cf6:	4770      	bx	lr
 8003cf8:	20000000 	.word	0x20000000
 8003cfc:	20002040 	.word	0x20002040
 8003d00:	080079c8 	.word	0x080079c8
 8003d04:	20002040 	.word	0x20002040
 8003d08:	200057b4 	.word	0x200057b4

08003d0c <ADC1_2_IRQHandler>:
 8003d0c:	e7fe      	b.n	8003d0c <ADC1_2_IRQHandler>

08003d0e <LL_ADC_REG_SetSequencerLength>:
{
 8003d0e:	b480      	push	{r7}
 8003d10:	b083      	sub	sp, #12
 8003d12:	af00      	add	r7, sp, #0
 8003d14:	6078      	str	r0, [r7, #4]
 8003d16:	6039      	str	r1, [r7, #0]
  MODIFY_REG(ADCx->SQR1, ADC_SQR1_L, SequencerNbRanks);
 8003d18:	687b      	ldr	r3, [r7, #4]
 8003d1a:	6adb      	ldr	r3, [r3, #44]	@ 0x2c
 8003d1c:	f423 0270 	bic.w	r2, r3, #15728640	@ 0xf00000
 8003d20:	683b      	ldr	r3, [r7, #0]
 8003d22:	431a      	orrs	r2, r3
 8003d24:	687b      	ldr	r3, [r7, #4]
 8003d26:	62da      	str	r2, [r3, #44]	@ 0x2c
}
 8003d28:	bf00      	nop
 8003d2a:	370c      	adds	r7, #12
 8003d2c:	46bd      	mov	sp, r7
 8003d2e:	bc80      	pop	{r7}
 8003d30:	4770      	bx	lr

08003d32 <LL_ADC_IsEnabled>:
{
 8003d32:	b480      	push	{r7}
 8003d34:	b083      	sub	sp, #12
 8003d36:	af00      	add	r7, sp, #0
 8003d38:	6078      	str	r0, [r7, #4]
  return (READ_BIT(ADCx->CR2, ADC_CR2_ADON) == (ADC_CR2_ADON));
 8003d3a:	687b      	ldr	r3, [r7, #4]
 8003d3c:	689b      	ldr	r3, [r3, #8]
 8003d3e:	f003 0301 	and.w	r3, r3, #1
 8003d42:	2b01      	cmp	r3, #1
 8003d44:	bf0c      	ite	eq
 8003d46:	2301      	moveq	r3, #1
 8003d48:	2300      	movne	r3, #0
 8003d4a:	b2db      	uxtb	r3, r3
}
 8003d4c:	4618      	mov	r0, r3
 8003d4e:	370c      	adds	r7, #12
 8003d50:	46bd      	mov	sp, r7
 8003d52:	bc80      	pop	{r7}
 8003d54:	4770      	bx	lr
	...

08003d58 <LL_ADC_CommonInit>:
  * @retval An ErrorStatus enumeration value:
  *          - SUCCESS: ADC common registers are initialized
  *          - ERROR: ADC common registers are not initialized
  */
ErrorStatus LL_ADC_CommonInit(ADC_Common_TypeDef *ADCxy_COMMON, LL_ADC_CommonInitTypeDef *ADC_CommonInitStruct)
{
 8003d58:	b590      	push	{r4, r7, lr}
 8003d5a:	b085      	sub	sp, #20
 8003d5c:	af00      	add	r7, sp, #0
 8003d5e:	6078      	str	r0, [r7, #4]
 8003d60:	6039      	str	r1, [r7, #0]
  ErrorStatus status = SUCCESS;
 8003d62:	2300      	movs	r3, #0
 8003d64:	73fb      	strb	r3, [r7, #15]
  /* Note: Hardware constraint (refer to description of functions             */
  /*       "LL_ADC_SetCommonXXX()" and "LL_ADC_SetMultiXXX()"):               */
  /*       On this STM32 series, setting of these features is conditioned to   */
  /*       ADC state:                                                         */
  /*       All ADC instances of the ADC common group must be disabled.        */
  if(__LL_ADC_IS_ENABLED_ALL_COMMON_INSTANCE(ADCxy_COMMON) == 0U)
 8003d66:	4813      	ldr	r0, [pc, #76]	@ (8003db4 <LL_ADC_CommonInit+0x5c>)
 8003d68:	f7ff ffe3 	bl	8003d32 <LL_ADC_IsEnabled>
 8003d6c:	4604      	mov	r4, r0
 8003d6e:	4812      	ldr	r0, [pc, #72]	@ (8003db8 <LL_ADC_CommonInit+0x60>)
 8003d70:	f7ff ffdf 	bl	8003d32 <LL_ADC_IsEnabled>
 8003d74:	4603      	mov	r3, r0
 8003d76:	4323      	orrs	r3, r4
 8003d78:	2b00      	cmp	r3, #0
 8003d7a:	d114      	bne.n	8003da6 <LL_ADC_CommonInit+0x4e>
    /*    selected device)                                                    */
    /*    - Set ADC multimode configuration                                   */
    /*    - Set ADC multimode DMA transfer                                    */
    /*    - Set ADC multimode: delay between 2 sampling phases                */
#if defined(ADC_MULTIMODE_SUPPORT)
    if(ADC_CommonInitStruct->Multimode != LL_ADC_MULTI_INDEPENDENT)
 8003d7c:	683b      	ldr	r3, [r7, #0]
 8003d7e:	681b      	ldr	r3, [r3, #0]
 8003d80:	2b00      	cmp	r3, #0
 8003d82:	d009      	beq.n	8003d98 <LL_ADC_CommonInit+0x40>
    {
      MODIFY_REG(ADCxy_COMMON->CR1,
 8003d84:	687b      	ldr	r3, [r7, #4]
 8003d86:	685b      	ldr	r3, [r3, #4]
 8003d88:	f423 2270 	bic.w	r2, r3, #983040	@ 0xf0000
 8003d8c:	683b      	ldr	r3, [r7, #0]
 8003d8e:	681b      	ldr	r3, [r3, #0]
 8003d90:	431a      	orrs	r2, r3
 8003d92:	687b      	ldr	r3, [r7, #4]
 8003d94:	605a      	str	r2, [r3, #4]
 8003d96:	e008      	b.n	8003daa <LL_ADC_CommonInit+0x52>
                 ADC_CommonInitStruct->Multimode
                );
    }
    else
    {
      MODIFY_REG(ADCxy_COMMON->CR1,
 8003d98:	687b      	ldr	r3, [r7, #4]
 8003d9a:	685b      	ldr	r3, [r3, #4]
 8003d9c:	f423 2270 	bic.w	r2, r3, #983040	@ 0xf0000
 8003da0:	687b      	ldr	r3, [r7, #4]
 8003da2:	605a      	str	r2, [r3, #4]
 8003da4:	e001      	b.n	8003daa <LL_ADC_CommonInit+0x52>
  }
  else
  {
    /* Initialization error: One or several ADC instances belonging to        */
    /* the same ADC common instance are not disabled.                         */
    status = ERROR;
 8003da6:	2301      	movs	r3, #1
 8003da8:	73fb      	strb	r3, [r7, #15]
  }
  
  return status;
 8003daa:	7bfb      	ldrb	r3, [r7, #15]
}
 8003dac:	4618      	mov	r0, r3
 8003dae:	3714      	adds	r7, #20
 8003db0:	46bd      	mov	sp, r7
 8003db2:	bd90      	pop	{r4, r7, pc}
 8003db4:	40012400 	.word	0x40012400
 8003db8:	40012800 	.word	0x40012800

08003dbc <LL_ADC_Init>:
  * @retval An ErrorStatus enumeration value:
  *          - SUCCESS: ADC registers are initialized
  *          - ERROR: ADC registers are not initialized
  */
ErrorStatus LL_ADC_Init(ADC_TypeDef *ADCx, LL_ADC_InitTypeDef *ADC_InitStruct)
{
 8003dbc:	b580      	push	{r7, lr}
 8003dbe:	b084      	sub	sp, #16
 8003dc0:	af00      	add	r7, sp, #0
 8003dc2:	6078      	str	r0, [r7, #4]
 8003dc4:	6039      	str	r1, [r7, #0]
  ErrorStatus status = SUCCESS;
 8003dc6:	2300      	movs	r3, #0
 8003dc8:	73fb      	strb	r3, [r7, #15]
  assert_param(IS_LL_ADC_DATA_ALIGN(ADC_InitStruct->DataAlignment));
  assert_param(IS_LL_ADC_SCAN_SELECTION(ADC_InitStruct->SequencersScanMode));
  
  /* Note: Hardware constraint (refer to description of this function):       */
  /*       ADC instance must be disabled.                                     */
  if(LL_ADC_IsEnabled(ADCx) == 0U)
 8003dca:	6878      	ldr	r0, [r7, #4]
 8003dcc:	f7ff ffb1 	bl	8003d32 <LL_ADC_IsEnabled>
 8003dd0:	4603      	mov	r3, r0
 8003dd2:	2b00      	cmp	r3, #0
 8003dd4:	d112      	bne.n	8003dfc <LL_ADC_Init+0x40>
  {
    /* Configuration of ADC hierarchical scope:                               */
    /*  - ADC instance                                                        */
    /*    - Set ADC conversion data alignment                                 */
    MODIFY_REG(ADCx->CR1,
 8003dd6:	687b      	ldr	r3, [r7, #4]
 8003dd8:	685b      	ldr	r3, [r3, #4]
 8003dda:	f423 7280 	bic.w	r2, r3, #256	@ 0x100
 8003dde:	683b      	ldr	r3, [r7, #0]
 8003de0:	685b      	ldr	r3, [r3, #4]
 8003de2:	431a      	orrs	r2, r3
 8003de4:	687b      	ldr	r3, [r7, #4]
 8003de6:	605a      	str	r2, [r3, #4]
                 ADC_CR1_SCAN
              ,
                 ADC_InitStruct->SequencersScanMode
              );
    
    MODIFY_REG(ADCx->CR2,
 8003de8:	687b      	ldr	r3, [r7, #4]
 8003dea:	689b      	ldr	r3, [r3, #8]
 8003dec:	f423 6200 	bic.w	r2, r3, #2048	@ 0x800
 8003df0:	683b      	ldr	r3, [r7, #0]
 8003df2:	681b      	ldr	r3, [r3, #0]
 8003df4:	431a      	orrs	r2, r3
 8003df6:	687b      	ldr	r3, [r7, #4]
 8003df8:	609a      	str	r2, [r3, #8]
 8003dfa:	e001      	b.n	8003e00 <LL_ADC_Init+0x44>

  }
  else
  {
    /* Initialization error: ADC instance is not disabled. */
    status = ERROR;
 8003dfc:	2301      	movs	r3, #1
 8003dfe:	73fb      	strb	r3, [r7, #15]
  }
  return status;
 8003e00:	7bfb      	ldrb	r3, [r7, #15]
}
 8003e02:	4618      	mov	r0, r3
 8003e04:	3710      	adds	r7, #16
 8003e06:	46bd      	mov	sp, r7
 8003e08:	bd80      	pop	{r7, pc}

08003e0a <LL_ADC_REG_Init>:
  * @retval An ErrorStatus enumeration value:
  *          - SUCCESS: ADC registers are initialized
  *          - ERROR: ADC registers are not initialized
  */
ErrorStatus LL_ADC_REG_Init(ADC_TypeDef *ADCx, LL_ADC_REG_InitTypeDef *ADC_REG_InitStruct)
{
 8003e0a:	b580      	push	{r7, lr}
 8003e0c:	b084      	sub	sp, #16
 8003e0e:	af00      	add	r7, sp, #0
 8003e10:	6078      	str	r0, [r7, #4]
 8003e12:	6039      	str	r1, [r7, #0]
  ErrorStatus status = SUCCESS;
 8003e14:	2300      	movs	r3, #0
 8003e16:	73fb      	strb	r3, [r7, #15]
  assert_param((ADC_REG_InitStruct->ContinuousMode == LL_ADC_REG_CONV_SINGLE)
               || (ADC_REG_InitStruct->SequencerDiscont == LL_ADC_REG_SEQ_DISCONT_DISABLE));
  
  /* Note: Hardware constraint (refer to description of this function):       */
  /*       ADC instance must be disabled.                                     */
  if(LL_ADC_IsEnabled(ADCx) == 0U)
 8003e18:	6878      	ldr	r0, [r7, #4]
 8003e1a:	f7ff ff8a 	bl	8003d32 <LL_ADC_IsEnabled>
 8003e1e:	4603      	mov	r3, r0
 8003e20:	2b00      	cmp	r3, #0
 8003e22:	d131      	bne.n	8003e88 <LL_ADC_REG_Init+0x7e>
    /*    - Set ADC group regular conversion data transfer: no transfer or    */
    /*      transfer by DMA, and DMA requests mode                            */
    /* Note: On this STM32 series, ADC trigger edge is set when starting       */
    /*       ADC conversion.                                                  */
    /*       Refer to function @ref LL_ADC_REG_StartConversionExtTrig().      */
    if(ADC_REG_InitStruct->SequencerLength != LL_ADC_REG_SEQ_SCAN_DISABLE)
 8003e24:	683b      	ldr	r3, [r7, #0]
 8003e26:	685b      	ldr	r3, [r3, #4]
 8003e28:	2b00      	cmp	r3, #0
 8003e2a:	d00c      	beq.n	8003e46 <LL_ADC_REG_Init+0x3c>
    {
      MODIFY_REG(ADCx->CR1,
 8003e2c:	687b      	ldr	r3, [r7, #4]
 8003e2e:	685b      	ldr	r3, [r3, #4]
 8003e30:	f423 4268 	bic.w	r2, r3, #59392	@ 0xe800
 8003e34:	683b      	ldr	r3, [r7, #0]
 8003e36:	6859      	ldr	r1, [r3, #4]
 8003e38:	683b      	ldr	r3, [r7, #0]
 8003e3a:	689b      	ldr	r3, [r3, #8]
 8003e3c:	430b      	orrs	r3, r1
 8003e3e:	431a      	orrs	r2, r3
 8003e40:	687b      	ldr	r3, [r7, #4]
 8003e42:	605a      	str	r2, [r3, #4]
 8003e44:	e008      	b.n	8003e58 <LL_ADC_REG_Init+0x4e>
                 | ADC_REG_InitStruct->SequencerDiscont
                );
    }
    else
    {
      MODIFY_REG(ADCx->CR1,
 8003e46:	687b      	ldr	r3, [r7, #4]
 8003e48:	685b      	ldr	r3, [r3, #4]
 8003e4a:	f423 4268 	bic.w	r2, r3, #59392	@ 0xe800
 8003e4e:	683b      	ldr	r3, [r7, #0]
 8003e50:	685b      	ldr	r3, [r3, #4]
 8003e52:	431a      	orrs	r2, r3
 8003e54:	687b      	ldr	r3, [r7, #4]
 8003e56:	605a      	str	r2, [r3, #4]
                   ADC_REG_InitStruct->SequencerLength
                 | LL_ADC_REG_SEQ_DISCONT_DISABLE
                );
    }
    
    MODIFY_REG(ADCx->CR2,
 8003e58:	687b      	ldr	r3, [r7, #4]
 8003e5a:	689b      	ldr	r3, [r3, #8]
 8003e5c:	f423 2360 	bic.w	r3, r3, #917504	@ 0xe0000
 8003e60:	f423 7381 	bic.w	r3, r3, #258	@ 0x102
 8003e64:	683a      	ldr	r2, [r7, #0]
 8003e66:	6811      	ldr	r1, [r2, #0]
 8003e68:	683a      	ldr	r2, [r7, #0]
 8003e6a:	68d2      	ldr	r2, [r2, #12]
 8003e6c:	4311      	orrs	r1, r2
 8003e6e:	683a      	ldr	r2, [r7, #0]
 8003e70:	6912      	ldr	r2, [r2, #16]
 8003e72:	430a      	orrs	r2, r1
 8003e74:	431a      	orrs	r2, r3
 8003e76:	687b      	ldr	r3, [r7, #4]
 8003e78:	609a      	str	r2, [r3, #8]
    /* Note: If ADC instance feature scan mode is disabled                    */
    /*       (refer to  ADC instance initialization structure                 */
    /*       parameter @ref SequencersScanMode                                */
    /*       or function @ref LL_ADC_SetSequencersScanMode() ),               */
    /*       this parameter is discarded.                                     */
    LL_ADC_REG_SetSequencerLength(ADCx, ADC_REG_InitStruct->SequencerLength);
 8003e7a:	683b      	ldr	r3, [r7, #0]
 8003e7c:	685b      	ldr	r3, [r3, #4]
 8003e7e:	4619      	mov	r1, r3
 8003e80:	6878      	ldr	r0, [r7, #4]
 8003e82:	f7ff ff44 	bl	8003d0e <LL_ADC_REG_SetSequencerLength>
 8003e86:	e001      	b.n	8003e8c <LL_ADC_REG_Init+0x82>
  }
  else
  {
    /* Initialization error: ADC instance is not disabled. */
    status = ERROR;
 8003e88:	2301      	movs	r3, #1
 8003e8a:	73fb      	strb	r3, [r7, #15]
  }
  return status;
 8003e8c:	7bfb      	ldrb	r3, [r7, #15]
}
 8003e8e:	4618      	mov	r0, r3
 8003e90:	3710      	adds	r7, #16
 8003e92:	46bd      	mov	sp, r7
 8003e94:	bd80      	pop	{r7, pc}
	...

08003e98 <LL_EXTI_EnableIT_0_31>:
{
 8003e98:	b480      	push	{r7}
 8003e9a:	b083      	sub	sp, #12
 8003e9c:	af00      	add	r7, sp, #0
 8003e9e:	6078      	str	r0, [r7, #4]
  SET_BIT(EXTI->IMR, ExtiLine);
 8003ea0:	4b05      	ldr	r3, [pc, #20]	@ (8003eb8 <LL_EXTI_EnableIT_0_31+0x20>)
 8003ea2:	681a      	ldr	r2, [r3, #0]
 8003ea4:	4904      	ldr	r1, [pc, #16]	@ (8003eb8 <LL_EXTI_EnableIT_0_31+0x20>)
 8003ea6:	687b      	ldr	r3, [r7, #4]
 8003ea8:	4313      	orrs	r3, r2
 8003eaa:	600b      	str	r3, [r1, #0]
}
 8003eac:	bf00      	nop
 8003eae:	370c      	adds	r7, #12
 8003eb0:	46bd      	mov	sp, r7
 8003eb2:	bc80      	pop	{r7}
 8003eb4:	4770      	bx	lr
 8003eb6:	bf00      	nop
 8003eb8:	40010400 	.word	0x40010400

08003ebc <LL_EXTI_DisableIT_0_31>:
{
 8003ebc:	b480      	push	{r7}
 8003ebe:	b083      	sub	sp, #12
 8003ec0:	af00      	add	r7, sp, #0
 8003ec2:	6078      	str	r0, [r7, #4]
  CLEAR_BIT(EXTI->IMR, ExtiLine);
 8003ec4:	4b05      	ldr	r3, [pc, #20]	@ (8003edc <LL_EXTI_DisableIT_0_31+0x20>)
 8003ec6:	681a      	ldr	r2, [r3, #0]
 8003ec8:	687b      	ldr	r3, [r7, #4]
 8003eca:	43db      	mvns	r3, r3
 8003ecc:	4903      	ldr	r1, [pc, #12]	@ (8003edc <LL_EXTI_DisableIT_0_31+0x20>)
 8003ece:	4013      	ands	r3, r2
 8003ed0:	600b      	str	r3, [r1, #0]
}
 8003ed2:	bf00      	nop
 8003ed4:	370c      	adds	r7, #12
 8003ed6:	46bd      	mov	sp, r7
 8003ed8:	bc80      	pop	{r7}
 8003eda:	4770      	bx	lr
 8003edc:	40010400 	.word	0x40010400

08003ee0 <LL_EXTI_EnableEvent_0_31>:
{
 8003ee0:	b480      	push	{r7}
 8003ee2:	b083      	sub	sp, #12
 8003ee4:	af00      	add	r7, sp, #0
 8003ee6:	6078      	str	r0, [r7, #4]
  SET_BIT(EXTI->EMR, ExtiLine);
 8003ee8:	4b05      	ldr	r3, [pc, #20]	@ (8003f00 <LL_EXTI_EnableEvent_0_31+0x20>)
 8003eea:	685a      	ldr	r2, [r3, #4]
 8003eec:	4904      	ldr	r1, [pc, #16]	@ (8003f00 <LL_EXTI_EnableEvent_0_31+0x20>)
 8003eee:	687b      	ldr	r3, [r7, #4]
 8003ef0:	4313      	orrs	r3, r2
 8003ef2:	604b      	str	r3, [r1, #4]
}
 8003ef4:	bf00      	nop
 8003ef6:	370c      	adds	r7, #12
 8003ef8:	46bd      	mov	sp, r7
 8003efa:	bc80      	pop	{r7}
 8003efc:	4770      	bx	lr
 8003efe:	bf00      	nop
 8003f00:	40010400 	.word	0x40010400

08003f04 <LL_EXTI_DisableEvent_0_31>:
{
 8003f04:	b480      	push	{r7}
 8003f06:	b083      	sub	sp, #12
 8003f08:	af00      	add	r7, sp, #0
 8003f0a:	6078      	str	r0, [r7, #4]
  CLEAR_BIT(EXTI->EMR, ExtiLine);
 8003f0c:	4b05      	ldr	r3, [pc, #20]	@ (8003f24 <LL_EXTI_DisableEvent_0_31+0x20>)
 8003f0e:	685a      	ldr	r2, [r3, #4]
 8003f10:	687b      	ldr	r3, [r7, #4]
 8003f12:	43db      	mvns	r3, r3
 8003f14:	4903      	ldr	r1, [pc, #12]	@ (8003f24 <LL_EXTI_DisableEvent_0_31+0x20>)
 8003f16:	4013      	ands	r3, r2
 8003f18:	604b      	str	r3, [r1, #4]
}
 8003f1a:	bf00      	nop
 8003f1c:	370c      	adds	r7, #12
 8003f1e:	46bd      	mov	sp, r7
 8003f20:	bc80      	pop	{r7}
 8003f22:	4770      	bx	lr
 8003f24:	40010400 	.word	0x40010400

08003f28 <LL_EXTI_EnableRisingTrig_0_31>:
{
 8003f28:	b480      	push	{r7}
 8003f2a:	b083      	sub	sp, #12
 8003f2c:	af00      	add	r7, sp, #0
 8003f2e:	6078      	str	r0, [r7, #4]
  SET_BIT(EXTI->RTSR, ExtiLine);
 8003f30:	4b05      	ldr	r3, [pc, #20]	@ (8003f48 <LL_EXTI_EnableRisingTrig_0_31+0x20>)
 8003f32:	689a      	ldr	r2, [r3, #8]
 8003f34:	4904      	ldr	r1, [pc, #16]	@ (8003f48 <LL_EXTI_EnableRisingTrig_0_31+0x20>)
 8003f36:	687b      	ldr	r3, [r7, #4]
 8003f38:	4313      	orrs	r3, r2
 8003f3a:	608b      	str	r3, [r1, #8]
}
 8003f3c:	bf00      	nop
 8003f3e:	370c      	adds	r7, #12
 8003f40:	46bd      	mov	sp, r7
 8003f42:	bc80      	pop	{r7}
 8003f44:	4770      	bx	lr
 8003f46:	bf00      	nop
 8003f48:	40010400 	.word	0x40010400

08003f4c <LL_EXTI_DisableRisingTrig_0_31>:
{
 8003f4c:	b480      	push	{r7}
 8003f4e:	b083      	sub	sp, #12
 8003f50:	af00      	add	r7, sp, #0
 8003f52:	6078      	str	r0, [r7, #4]
  CLEAR_BIT(EXTI->RTSR, ExtiLine);
 8003f54:	4b05      	ldr	r3, [pc, #20]	@ (8003f6c <LL_EXTI_DisableRisingTrig_0_31+0x20>)
 8003f56:	689a      	ldr	r2, [r3, #8]
 8003f58:	687b      	ldr	r3, [r7, #4]
 8003f5a:	43db      	mvns	r3, r3
 8003f5c:	4903      	ldr	r1, [pc, #12]	@ (8003f6c <LL_EXTI_DisableRisingTrig_0_31+0x20>)
 8003f5e:	4013      	ands	r3, r2
 8003f60:	608b      	str	r3, [r1, #8]
}
 8003f62:	bf00      	nop
 8003f64:	370c      	adds	r7, #12
 8003f66:	46bd      	mov	sp, r7
 8003f68:	bc80      	pop	{r7}
 8003f6a:	4770      	bx	lr
 8003f6c:	40010400 	.word	0x40010400

08003f70 <LL_EXTI_EnableFallingTrig_0_31>:
{
 8003f70:	b480      	push	{r7}
 8003f72:	b083      	sub	sp, #12
 8003f74:	af00      	add	r7, sp, #0
 8003f76:	6078      	str	r0, [r7, #4]
  SET_BIT(EXTI->FTSR, ExtiLine);
 8003f78:	4b05      	ldr	r3, [pc, #20]	@ (8003f90 <LL_EXTI_EnableFallingTrig_0_31+0x20>)
 8003f7a:	68da      	ldr	r2, [r3, #12]
 8003f7c:	4904      	ldr	r1, [pc, #16]	@ (8003f90 <LL_EXTI_EnableFallingTrig_0_31+0x20>)
 8003f7e:	687b      	ldr	r3, [r7, #4]
 8003f80:	4313      	orrs	r3, r2
 8003f82:	60cb      	str	r3, [r1, #12]
}
 8003f84:	bf00      	nop
 8003f86:	370c      	adds	r7, #12
 8003f88:	46bd      	mov	sp, r7
 8003f8a:	bc80      	pop	{r7}
 8003f8c:	4770      	bx	lr
 8003f8e:	bf00      	nop
 8003f90:	40010400 	.word	0x40010400

08003f94 <LL_EXTI_DisableFallingTrig_0_31>:
{
 8003f94:	b480      	push	{r7}
 8003f96:	b083      	sub	sp, #12
 8003f98:	af00      	add	r7, sp, #0
 8003f9a:	6078      	str	r0, [r7, #4]
  CLEAR_BIT(EXTI->FTSR, ExtiLine);
 8003f9c:	4b05      	ldr	r3, [pc, #20]	@ (8003fb4 <LL_EXTI_DisableFallingTrig_0_31+0x20>)
 8003f9e:	68da      	ldr	r2, [r3, #12]
 8003fa0:	687b      	ldr	r3, [r7, #4]
 8003fa2:	43db      	mvns	r3, r3
 8003fa4:	4903      	ldr	r1, [pc, #12]	@ (8003fb4 <LL_EXTI_DisableFallingTrig_0_31+0x20>)
 8003fa6:	4013      	ands	r3, r2
 8003fa8:	60cb      	str	r3, [r1, #12]
}
 8003faa:	bf00      	nop
 8003fac:	370c      	adds	r7, #12
 8003fae:	46bd      	mov	sp, r7
 8003fb0:	bc80      	pop	{r7}
 8003fb2:	4770      	bx	lr
 8003fb4:	40010400 	.word	0x40010400

08003fb8 <LL_EXTI_Init>:
  * @retval An ErrorStatus enumeration value:
  *          - SUCCESS: EXTI registers are initialized
  *          - ERROR: not applicable
  */
uint32_t LL_EXTI_Init(LL_EXTI_InitTypeDef *EXTI_InitStruct)
{
 8003fb8:	b580      	push	{r7, lr}
 8003fba:	b084      	sub	sp, #16
 8003fbc:	af00      	add	r7, sp, #0
 8003fbe:	6078      	str	r0, [r7, #4]
  ErrorStatus status = SUCCESS;
 8003fc0:	2300      	movs	r3, #0
 8003fc2:	73fb      	strb	r3, [r7, #15]
  assert_param(IS_LL_EXTI_LINE_0_31(EXTI_InitStruct->Line_0_31));
  assert_param(IS_FUNCTIONAL_STATE(EXTI_InitStruct->LineCommand));
  assert_param(IS_LL_EXTI_MODE(EXTI_InitStruct->Mode));

  /* ENABLE LineCommand */
  if (EXTI_InitStruct->LineCommand != DISABLE)
 8003fc4:	687b      	ldr	r3, [r7, #4]
 8003fc6:	791b      	ldrb	r3, [r3, #4]
 8003fc8:	2b00      	cmp	r3, #0
 8003fca:	d065      	beq.n	8004098 <LL_EXTI_Init+0xe0>
  {
    assert_param(IS_LL_EXTI_TRIGGER(EXTI_InitStruct->Trigger));

    /* Configure EXTI Lines in range from 0 to 31 */
    if (EXTI_InitStruct->Line_0_31 != LL_EXTI_LINE_NONE)
 8003fcc:	687b      	ldr	r3, [r7, #4]
 8003fce:	681b      	ldr	r3, [r3, #0]
 8003fd0:	2b00      	cmp	r3, #0
 8003fd2:	d06b      	beq.n	80040ac <LL_EXTI_Init+0xf4>
    {
      switch (EXTI_InitStruct->Mode)
 8003fd4:	687b      	ldr	r3, [r7, #4]
 8003fd6:	795b      	ldrb	r3, [r3, #5]
 8003fd8:	2b02      	cmp	r3, #2
 8003fda:	d01c      	beq.n	8004016 <LL_EXTI_Init+0x5e>
 8003fdc:	2b02      	cmp	r3, #2
 8003fde:	dc25      	bgt.n	800402c <LL_EXTI_Init+0x74>
 8003fe0:	2b00      	cmp	r3, #0
 8003fe2:	d002      	beq.n	8003fea <LL_EXTI_Init+0x32>
 8003fe4:	2b01      	cmp	r3, #1
 8003fe6:	d00b      	beq.n	8004000 <LL_EXTI_Init+0x48>
 8003fe8:	e020      	b.n	800402c <LL_EXTI_Init+0x74>
      {
        case LL_EXTI_MODE_IT:
          /* First Disable Event on provided Lines */
          LL_EXTI_DisableEvent_0_31(EXTI_InitStruct->Line_0_31);
 8003fea:	687b      	ldr	r3, [r7, #4]
 8003fec:	681b      	ldr	r3, [r3, #0]
 8003fee:	4618      	mov	r0, r3
 8003ff0:	f7ff ff88 	bl	8003f04 <LL_EXTI_DisableEvent_0_31>
          /* Then Enable IT on provided Lines */
          LL_EXTI_EnableIT_0_31(EXTI_InitStruct->Line_0_31);
 8003ff4:	687b      	ldr	r3, [r7, #4]
 8003ff6:	681b      	ldr	r3, [r3, #0]
 8003ff8:	4618      	mov	r0, r3
 8003ffa:	f7ff ff4d 	bl	8003e98 <LL_EXTI_EnableIT_0_31>
          break;
 8003ffe:	e018      	b.n	8004032 <LL_EXTI_Init+0x7a>
        case LL_EXTI_MODE_EVENT:
          /* First Disable IT on provided Lines */
          LL_EXTI_DisableIT_0_31(EXTI_InitStruct->Line_0_31);
 8004000:	687b      	ldr	r3, [r7, #4]
 8004002:	681b      	ldr	r3, [r3, #0]
 8004004:	4618      	mov	r0, r3
 8004006:	f7ff ff59 	bl	8003ebc <LL_EXTI_DisableIT_0_31>
          /* Then Enable Event on provided Lines */
          LL_EXTI_EnableEvent_0_31(EXTI_InitStruct->Line_0_31);
 800400a:	687b      	ldr	r3, [r7, #4]
 800400c:	681b      	ldr	r3, [r3, #0]
 800400e:	4618      	mov	r0, r3
 8004010:	f7ff ff66 	bl	8003ee0 <LL_EXTI_EnableEvent_0_31>
          break;
 8004014:	e00d      	b.n	8004032 <LL_EXTI_Init+0x7a>
        case LL_EXTI_MODE_IT_EVENT:
          /* Directly Enable IT & Event on provided Lines */
          LL_EXTI_EnableIT_0_31(EXTI_InitStruct->Line_0_31);
 8004016:	687b      	ldr	r3, [r7, #4]
 8004018:	681b      	ldr	r3, [r3, #0]
 800401a:	4618      	mov	r0, r3
 800401c:	f7ff ff3c 	bl	8003e98 <LL_EXTI_EnableIT_0_31>
          LL_EXTI_EnableEvent_0_31(EXTI_InitStruct->Line_0_31);
 8004020:	687b      	ldr	r3, [r7, #4]
 8004022:	681b      	ldr	r3, [r3, #0]
 8004024:	4618      	mov	r0, r3
 8004026:	f7ff ff5b 	bl	8003ee0 <LL_EXTI_EnableEvent_0_31>
          break;
 800402a:	e002      	b.n	8004032 <LL_EXTI_Init+0x7a>
        default:
          status = ERROR;
 800402c:	2301      	movs	r3, #1
 800402e:	73fb      	strb	r3, [r7, #15]
          break;
 8004030:	bf00      	nop
      }
      if (EXTI_InitStruct->Trigger != LL_EXTI_TRIGGER_NONE)
 8004032:	687b      	ldr	r3, [r7, #4]
 8004034:	799b      	ldrb	r3, [r3, #6]
 8004036:	2b00      	cmp	r3, #0
 8004038:	d038      	beq.n	80040ac <LL_EXTI_Init+0xf4>
      {
        switch (EXTI_InitStruct->Trigger)
 800403a:	687b      	ldr	r3, [r7, #4]
 800403c:	799b      	ldrb	r3, [r3, #6]
 800403e:	2b03      	cmp	r3, #3
 8004040:	d01c      	beq.n	800407c <LL_EXTI_Init+0xc4>
 8004042:	2b03      	cmp	r3, #3
 8004044:	dc25      	bgt.n	8004092 <LL_EXTI_Init+0xda>
 8004046:	2b01      	cmp	r3, #1
 8004048:	d002      	beq.n	8004050 <LL_EXTI_Init+0x98>
 800404a:	2b02      	cmp	r3, #2
 800404c:	d00b      	beq.n	8004066 <LL_EXTI_Init+0xae>
 800404e:	e020      	b.n	8004092 <LL_EXTI_Init+0xda>
        {
          case LL_EXTI_TRIGGER_RISING:
            /* First Disable Falling Trigger on provided Lines */
            LL_EXTI_DisableFallingTrig_0_31(EXTI_InitStruct->Line_0_31);
 8004050:	687b      	ldr	r3, [r7, #4]
 8004052:	681b      	ldr	r3, [r3, #0]
 8004054:	4618      	mov	r0, r3
 8004056:	f7ff ff9d 	bl	8003f94 <LL_EXTI_DisableFallingTrig_0_31>
            /* Then Enable Rising Trigger on provided Lines */
            LL_EXTI_EnableRisingTrig_0_31(EXTI_InitStruct->Line_0_31);
 800405a:	687b      	ldr	r3, [r7, #4]
 800405c:	681b      	ldr	r3, [r3, #0]
 800405e:	4618      	mov	r0, r3
 8004060:	f7ff ff62 	bl	8003f28 <LL_EXTI_EnableRisingTrig_0_31>
            break;
 8004064:	e022      	b.n	80040ac <LL_EXTI_Init+0xf4>
          case LL_EXTI_TRIGGER_FALLING:
            /* First Disable Rising Trigger on provided Lines */
            LL_EXTI_DisableRisingTrig_0_31(EXTI_InitStruct->Line_0_31);
 8004066:	687b      	ldr	r3, [r7, #4]
 8004068:	681b      	ldr	r3, [r3, #0]
 800406a:	4618      	mov	r0, r3
 800406c:	f7ff ff6e 	bl	8003f4c <LL_EXTI_DisableRisingTrig_0_31>
            /* Then Enable Falling Trigger on provided Lines */
            LL_EXTI_EnableFallingTrig_0_31(EXTI_InitStruct->Line_0_31);
 8004070:	687b      	ldr	r3, [r7, #4]
 8004072:	681b      	ldr	r3, [r3, #0]
 8004074:	4618      	mov	r0, r3
 8004076:	f7ff ff7b 	bl	8003f70 <LL_EXTI_EnableFallingTrig_0_31>
            break;
 800407a:	e017      	b.n	80040ac <LL_EXTI_Init+0xf4>
          case LL_EXTI_TRIGGER_RISING_FALLING:
            LL_EXTI_EnableRisingTrig_0_31(EXTI_InitStruct->Line_0_31);
 800407c:	687b      	ldr	r3, [r7, #4]
 800407e:	681b      	ldr	r3, [r3, #0]
 8004080:	4618      	mov	r0, r3
 8004082:	f7ff ff51 	bl	8003f28 <LL_EXTI_EnableRisingTrig_0_31>
            LL_EXTI_EnableFallingTrig_0_31(EXTI_InitStruct->Line_0_31);
 8004086:	687b      	ldr	r3, [r7, #4]
 8004088:	681b      	ldr	r3, [r3, #0]
 800408a:	4618      	mov	r0, r3
 800408c:	f7ff ff70 	bl	8003f70 <LL_EXTI_EnableFallingTrig_0_31>
            break;
 8004090:	e00c      	b.n	80040ac <LL_EXTI_Init+0xf4>
          default:
            status = ERROR;
 8004092:	2301      	movs	r3, #1
 8004094:	73fb      	strb	r3, [r7, #15]
            break;
 8004096:	e009      	b.n	80040ac <LL_EXTI_Init+0xf4>
  }
  /* DISABLE LineCommand */
  else
  {
    /* De-configure EXTI Lines in range from 0 to 31 */
    LL_EXTI_DisableIT_0_31(EXTI_InitStruct->Line_0_31);
 8004098:	687b      	ldr	r3, [r7, #4]
 800409a:	681b      	ldr	r3, [r3, #0]
 800409c:	4618      	mov	r0, r3
 800409e:	f7ff ff0d 	bl	8003ebc <LL_EXTI_DisableIT_0_31>
    LL_EXTI_DisableEvent_0_31(EXTI_InitStruct->Line_0_31);
 80040a2:	687b      	ldr	r3, [r7, #4]
 80040a4:	681b      	ldr	r3, [r3, #0]
 80040a6:	4618      	mov	r0, r3
 80040a8:	f7ff ff2c 	bl	8003f04 <LL_EXTI_DisableEvent_0_31>
  }
  return status;
 80040ac:	7bfb      	ldrb	r3, [r7, #15]
}
 80040ae:	4618      	mov	r0, r3
 80040b0:	3710      	adds	r7, #16
 80040b2:	46bd      	mov	sp, r7
 80040b4:	bd80      	pop	{r7, pc}

080040b6 <LL_GPIO_SetPinMode>:
{
 80040b6:	b490      	push	{r4, r7}
 80040b8:	b088      	sub	sp, #32
 80040ba:	af00      	add	r7, sp, #0
 80040bc:	60f8      	str	r0, [r7, #12]
 80040be:	60b9      	str	r1, [r7, #8]
 80040c0:	607a      	str	r2, [r7, #4]
  register uint32_t *pReg = (uint32_t *)((uint32_t)((uint32_t)(&GPIOx->CRL) + (Pin >> 24)));
 80040c2:	68fb      	ldr	r3, [r7, #12]
 80040c4:	461a      	mov	r2, r3
 80040c6:	68bb      	ldr	r3, [r7, #8]
 80040c8:	0e1b      	lsrs	r3, r3, #24
 80040ca:	4413      	add	r3, r2
 80040cc:	461c      	mov	r4, r3
  MODIFY_REG(*pReg, ((GPIO_CRL_CNF0 | GPIO_CRL_MODE0) << (POSITION_VAL(Pin) * 4U)), (Mode << (POSITION_VAL(Pin) * 4U)));
 80040ce:	6822      	ldr	r2, [r4, #0]
 80040d0:	68bb      	ldr	r3, [r7, #8]
 80040d2:	617b      	str	r3, [r7, #20]
   __ASM volatile ("rbit %0, %1" : "=r" (result) : "r" (value) );
 80040d4:	697b      	ldr	r3, [r7, #20]
 80040d6:	fa93 f3a3 	rbit	r3, r3
 80040da:	613b      	str	r3, [r7, #16]
  return result;
 80040dc:	693b      	ldr	r3, [r7, #16]
 80040de:	fab3 f383 	clz	r3, r3
 80040e2:	b2db      	uxtb	r3, r3
 80040e4:	009b      	lsls	r3, r3, #2
 80040e6:	210f      	movs	r1, #15
 80040e8:	fa01 f303 	lsl.w	r3, r1, r3
 80040ec:	43db      	mvns	r3, r3
 80040ee:	401a      	ands	r2, r3
 80040f0:	68bb      	ldr	r3, [r7, #8]
 80040f2:	61fb      	str	r3, [r7, #28]
   __ASM volatile ("rbit %0, %1" : "=r" (result) : "r" (value) );
 80040f4:	69fb      	ldr	r3, [r7, #28]
 80040f6:	fa93 f3a3 	rbit	r3, r3
 80040fa:	61bb      	str	r3, [r7, #24]
  return result;
 80040fc:	69bb      	ldr	r3, [r7, #24]
 80040fe:	fab3 f383 	clz	r3, r3
 8004102:	b2db      	uxtb	r3, r3
 8004104:	009b      	lsls	r3, r3, #2
 8004106:	6879      	ldr	r1, [r7, #4]
 8004108:	fa01 f303 	lsl.w	r3, r1, r3
 800410c:	4313      	orrs	r3, r2
 800410e:	6023      	str	r3, [r4, #0]
}
 8004110:	bf00      	nop
 8004112:	3720      	adds	r7, #32
 8004114:	46bd      	mov	sp, r7
 8004116:	bc90      	pop	{r4, r7}
 8004118:	4770      	bx	lr

0800411a <LL_GPIO_SetPinSpeed>:
{
 800411a:	b490      	push	{r4, r7}
 800411c:	b088      	sub	sp, #32
 800411e:	af00      	add	r7, sp, #0
 8004120:	60f8      	str	r0, [r7, #12]
 8004122:	60b9      	str	r1, [r7, #8]
 8004124:	607a      	str	r2, [r7, #4]
  register uint32_t *pReg = (uint32_t *)((uint32_t)((uint32_t)(&GPIOx->CRL) + (Pin >> 24)));
 8004126:	68fb      	ldr	r3, [r7, #12]
 8004128:	461a      	mov	r2, r3
 800412a:	68bb      	ldr	r3, [r7, #8]
 800412c:	0e1b      	lsrs	r3, r3, #24
 800412e:	4413      	add	r3, r2
 8004130:	461c      	mov	r4, r3
  MODIFY_REG(*pReg, (GPIO_CRL_MODE0 << (POSITION_VAL(Pin) * 4U)),
 8004132:	6822      	ldr	r2, [r4, #0]
 8004134:	68bb      	ldr	r3, [r7, #8]
 8004136:	617b      	str	r3, [r7, #20]
   __ASM volatile ("rbit %0, %1" : "=r" (result) : "r" (value) );
 8004138:	697b      	ldr	r3, [r7, #20]
 800413a:	fa93 f3a3 	rbit	r3, r3
 800413e:	613b      	str	r3, [r7, #16]
  return result;
 8004140:	693b      	ldr	r3, [r7, #16]
 8004142:	fab3 f383 	clz	r3, r3
 8004146:	b2db      	uxtb	r3, r3
 8004148:	009b      	lsls	r3, r3, #2
 800414a:	2103      	movs	r1, #3
 800414c:	fa01 f303 	lsl.w	r3, r1, r3
 8004150:	43db      	mvns	r3, r3
 8004152:	401a      	ands	r2, r3
 8004154:	68bb      	ldr	r3, [r7, #8]
 8004156:	61fb      	str	r3, [r7, #28]
   __ASM volatile ("rbit %0, %1" : "=r" (result) : "r" (value) );
 8004158:	69fb      	ldr	r3, [r7, #28]
 800415a:	fa93 f3a3 	rbit	r3, r3
 800415e:	61bb      	str	r3, [r7, #24]
  return result;
 8004160:	69bb      	ldr	r3, [r7, #24]
 8004162:	fab3 f383 	clz	r3, r3
 8004166:	b2db      	uxtb	r3, r3
 8004168:	009b      	lsls	r3, r3, #2
 800416a:	6879      	ldr	r1, [r7, #4]
 800416c:	fa01 f303 	lsl.w	r3, r1, r3
 8004170:	4313      	orrs	r3, r2
 8004172:	6023      	str	r3, [r4, #0]
}
 8004174:	bf00      	nop
 8004176:	3720      	adds	r7, #32
 8004178:	46bd      	mov	sp, r7
 800417a:	bc90      	pop	{r4, r7}
 800417c:	4770      	bx	lr

0800417e <LL_GPIO_SetPinOutputType>:
{
 800417e:	b490      	push	{r4, r7}
 8004180:	b088      	sub	sp, #32
 8004182:	af00      	add	r7, sp, #0
 8004184:	60f8      	str	r0, [r7, #12]
 8004186:	60b9      	str	r1, [r7, #8]
 8004188:	607a      	str	r2, [r7, #4]
  register uint32_t *pReg = (uint32_t *)((uint32_t)((uint32_t)(&GPIOx->CRL) + (Pin >> 24)));
 800418a:	68fb      	ldr	r3, [r7, #12]
 800418c:	461a      	mov	r2, r3
 800418e:	68bb      	ldr	r3, [r7, #8]
 8004190:	0e1b      	lsrs	r3, r3, #24
 8004192:	4413      	add	r3, r2
 8004194:	461c      	mov	r4, r3
  MODIFY_REG(*pReg, (GPIO_CRL_CNF0_0 << (POSITION_VAL(Pin) * 4U)),
 8004196:	6822      	ldr	r2, [r4, #0]
 8004198:	68bb      	ldr	r3, [r7, #8]
 800419a:	617b      	str	r3, [r7, #20]
   __ASM volatile ("rbit %0, %1" : "=r" (result) : "r" (value) );
 800419c:	697b      	ldr	r3, [r7, #20]
 800419e:	fa93 f3a3 	rbit	r3, r3
 80041a2:	613b      	str	r3, [r7, #16]
  return result;
 80041a4:	693b      	ldr	r3, [r7, #16]
 80041a6:	fab3 f383 	clz	r3, r3
 80041aa:	b2db      	uxtb	r3, r3
 80041ac:	009b      	lsls	r3, r3, #2
 80041ae:	2104      	movs	r1, #4
 80041b0:	fa01 f303 	lsl.w	r3, r1, r3
 80041b4:	43db      	mvns	r3, r3
 80041b6:	401a      	ands	r2, r3
 80041b8:	68bb      	ldr	r3, [r7, #8]
 80041ba:	61fb      	str	r3, [r7, #28]
   __ASM volatile ("rbit %0, %1" : "=r" (result) : "r" (value) );
 80041bc:	69fb      	ldr	r3, [r7, #28]
 80041be:	fa93 f3a3 	rbit	r3, r3
 80041c2:	61bb      	str	r3, [r7, #24]
  return result;
 80041c4:	69bb      	ldr	r3, [r7, #24]
 80041c6:	fab3 f383 	clz	r3, r3
 80041ca:	b2db      	uxtb	r3, r3
 80041cc:	009b      	lsls	r3, r3, #2
 80041ce:	6879      	ldr	r1, [r7, #4]
 80041d0:	fa01 f303 	lsl.w	r3, r1, r3
 80041d4:	4313      	orrs	r3, r2
 80041d6:	6023      	str	r3, [r4, #0]
}
 80041d8:	bf00      	nop
 80041da:	3720      	adds	r7, #32
 80041dc:	46bd      	mov	sp, r7
 80041de:	bc90      	pop	{r4, r7}
 80041e0:	4770      	bx	lr

080041e2 <LL_GPIO_SetPinPull>:
{
 80041e2:	b480      	push	{r7}
 80041e4:	b087      	sub	sp, #28
 80041e6:	af00      	add	r7, sp, #0
 80041e8:	60f8      	str	r0, [r7, #12]
 80041ea:	60b9      	str	r1, [r7, #8]
 80041ec:	607a      	str	r2, [r7, #4]
  MODIFY_REG(GPIOx->ODR, (Pin >> GPIO_PIN_MASK_POS), Pull << (POSITION_VAL(Pin >> GPIO_PIN_MASK_POS)));
 80041ee:	68fb      	ldr	r3, [r7, #12]
 80041f0:	68da      	ldr	r2, [r3, #12]
 80041f2:	68bb      	ldr	r3, [r7, #8]
 80041f4:	0a1b      	lsrs	r3, r3, #8
 80041f6:	43db      	mvns	r3, r3
 80041f8:	401a      	ands	r2, r3
 80041fa:	68bb      	ldr	r3, [r7, #8]
 80041fc:	0a1b      	lsrs	r3, r3, #8
 80041fe:	617b      	str	r3, [r7, #20]
   __ASM volatile ("rbit %0, %1" : "=r" (result) : "r" (value) );
 8004200:	697b      	ldr	r3, [r7, #20]
 8004202:	fa93 f3a3 	rbit	r3, r3
 8004206:	613b      	str	r3, [r7, #16]
  return result;
 8004208:	693b      	ldr	r3, [r7, #16]
 800420a:	fab3 f383 	clz	r3, r3
 800420e:	b2db      	uxtb	r3, r3
 8004210:	4619      	mov	r1, r3
 8004212:	687b      	ldr	r3, [r7, #4]
 8004214:	408b      	lsls	r3, r1
 8004216:	431a      	orrs	r2, r3
 8004218:	68fb      	ldr	r3, [r7, #12]
 800421a:	60da      	str	r2, [r3, #12]
}
 800421c:	bf00      	nop
 800421e:	371c      	adds	r7, #28
 8004220:	46bd      	mov	sp, r7
 8004222:	bc80      	pop	{r7}
 8004224:	4770      	bx	lr

08004226 <LL_GPIO_Init>:
  * @retval An ErrorStatus enumeration value:
  *          - SUCCESS: GPIO registers are initialized according to GPIO_InitStruct content
  *          - ERROR:   Not applicable
  */
ErrorStatus LL_GPIO_Init(GPIO_TypeDef *GPIOx, LL_GPIO_InitTypeDef *GPIO_InitStruct)
{
 8004226:	b580      	push	{r7, lr}
 8004228:	b088      	sub	sp, #32
 800422a:	af00      	add	r7, sp, #0
 800422c:	6078      	str	r0, [r7, #4]
 800422e:	6039      	str	r1, [r7, #0]
  assert_param(IS_LL_GPIO_PIN(GPIO_InitStruct->Pin));

  /* ------------------------- Configure the port pins ---------------- */
  /* Initialize  pinpos on first pin set */

  pinmask = ((GPIO_InitStruct->Pin) << GPIO_PIN_MASK_POS) >> GPIO_PIN_NB;
 8004230:	683b      	ldr	r3, [r7, #0]
 8004232:	681b      	ldr	r3, [r3, #0]
 8004234:	021b      	lsls	r3, r3, #8
 8004236:	0c1b      	lsrs	r3, r3, #16
 8004238:	617b      	str	r3, [r7, #20]
 800423a:	697b      	ldr	r3, [r7, #20]
 800423c:	613b      	str	r3, [r7, #16]
   __ASM volatile ("rbit %0, %1" : "=r" (result) : "r" (value) );
 800423e:	693b      	ldr	r3, [r7, #16]
 8004240:	fa93 f3a3 	rbit	r3, r3
 8004244:	60fb      	str	r3, [r7, #12]
  return result;
 8004246:	68fb      	ldr	r3, [r7, #12]
  pinpos = POSITION_VAL(pinmask);
 8004248:	fab3 f383 	clz	r3, r3
 800424c:	b2db      	uxtb	r3, r3
 800424e:	61fb      	str	r3, [r7, #28]

  /* Configure the port pins */
  while ((pinmask  >> pinpos) != 0u)
 8004250:	e044      	b.n	80042dc <LL_GPIO_Init+0xb6>
  {
    /* skip if bit is not set */
    if ((pinmask & (1u << pinpos)) != 0u)
 8004252:	2201      	movs	r2, #1
 8004254:	69fb      	ldr	r3, [r7, #28]
 8004256:	409a      	lsls	r2, r3
 8004258:	697b      	ldr	r3, [r7, #20]
 800425a:	4013      	ands	r3, r2
 800425c:	2b00      	cmp	r3, #0
 800425e:	d03a      	beq.n	80042d6 <LL_GPIO_Init+0xb0>
    {
      /* Get current io position */
      if (pinpos < GPIO_PIN_MASK_POS)
 8004260:	69fb      	ldr	r3, [r7, #28]
 8004262:	2b07      	cmp	r3, #7
 8004264:	d806      	bhi.n	8004274 <LL_GPIO_Init+0x4e>
      {
        currentpin = (0x00000101uL << pinpos);
 8004266:	f240 1201 	movw	r2, #257	@ 0x101
 800426a:	69fb      	ldr	r3, [r7, #28]
 800426c:	fa02 f303 	lsl.w	r3, r2, r3
 8004270:	61bb      	str	r3, [r7, #24]
 8004272:	e008      	b.n	8004286 <LL_GPIO_Init+0x60>
      }
      else
      {
        currentpin = ((0x00010001u << (pinpos - GPIO_PIN_MASK_POS)) | 0x04000000u);
 8004274:	69fb      	ldr	r3, [r7, #28]
 8004276:	3b08      	subs	r3, #8
 8004278:	f04f 1201 	mov.w	r2, #65537	@ 0x10001
 800427c:	fa02 f303 	lsl.w	r3, r2, r3
 8004280:	f043 6380 	orr.w	r3, r3, #67108864	@ 0x4000000
 8004284:	61bb      	str	r3, [r7, #24]
      }

      if (GPIO_InitStruct->Mode == LL_GPIO_MODE_INPUT)
 8004286:	683b      	ldr	r3, [r7, #0]
 8004288:	685b      	ldr	r3, [r3, #4]
 800428a:	2b08      	cmp	r3, #8
 800428c:	d106      	bne.n	800429c <LL_GPIO_Init+0x76>
      {
        /* Check The Pull parameter */
        assert_param(IS_LL_GPIO_PULL(GPIO_InitStruct->Pull));

        /* Pull-up Pull-down resistor configuration*/
        LL_GPIO_SetPinPull(GPIOx, currentpin, GPIO_InitStruct->Pull);
 800428e:	683b      	ldr	r3, [r7, #0]
 8004290:	691b      	ldr	r3, [r3, #16]
 8004292:	461a      	mov	r2, r3
 8004294:	69b9      	ldr	r1, [r7, #24]
 8004296:	6878      	ldr	r0, [r7, #4]
 8004298:	f7ff ffa3 	bl	80041e2 <LL_GPIO_SetPinPull>
      
      /* Check Pin Mode parameters */
      assert_param(IS_LL_GPIO_MODE(GPIO_InitStruct->Mode));
      
      /* Pin Mode configuration */
      LL_GPIO_SetPinMode(GPIOx, currentpin, GPIO_InitStruct->Mode);
 800429c:	683b      	ldr	r3, [r7, #0]
 800429e:	685b      	ldr	r3, [r3, #4]
 80042a0:	461a      	mov	r2, r3
 80042a2:	69b9      	ldr	r1, [r7, #24]
 80042a4:	6878      	ldr	r0, [r7, #4]
 80042a6:	f7ff ff06 	bl	80040b6 <LL_GPIO_SetPinMode>

      if ((GPIO_InitStruct->Mode == LL_GPIO_MODE_OUTPUT) || (GPIO_InitStruct->Mode == LL_GPIO_MODE_ALTERNATE))
 80042aa:	683b      	ldr	r3, [r7, #0]
 80042ac:	685b      	ldr	r3, [r3, #4]
 80042ae:	2b01      	cmp	r3, #1
 80042b0:	d003      	beq.n	80042ba <LL_GPIO_Init+0x94>
 80042b2:	683b      	ldr	r3, [r7, #0]
 80042b4:	685b      	ldr	r3, [r3, #4]
 80042b6:	2b09      	cmp	r3, #9
 80042b8:	d10d      	bne.n	80042d6 <LL_GPIO_Init+0xb0>
        /* Check speed and Output mode parameters */
        assert_param(IS_LL_GPIO_SPEED(GPIO_InitStruct->Speed));
        assert_param(IS_LL_GPIO_OUTPUT_TYPE(GPIO_InitStruct->OutputType));

        /* Speed mode configuration */
        LL_GPIO_SetPinSpeed(GPIOx, currentpin, GPIO_InitStruct->Speed);
 80042ba:	683b      	ldr	r3, [r7, #0]
 80042bc:	689b      	ldr	r3, [r3, #8]
 80042be:	461a      	mov	r2, r3
 80042c0:	69b9      	ldr	r1, [r7, #24]
 80042c2:	6878      	ldr	r0, [r7, #4]
 80042c4:	f7ff ff29 	bl	800411a <LL_GPIO_SetPinSpeed>

        /* Output mode configuration*/
        LL_GPIO_SetPinOutputType(GPIOx, currentpin, GPIO_InitStruct->OutputType);
 80042c8:	683b      	ldr	r3, [r7, #0]
 80042ca:	68db      	ldr	r3, [r3, #12]
 80042cc:	461a      	mov	r2, r3
 80042ce:	69b9      	ldr	r1, [r7, #24]
 80042d0:	6878      	ldr	r0, [r7, #4]
 80042d2:	f7ff ff54 	bl	800417e <LL_GPIO_SetPinOutputType>
      }
    }
    pinpos++;
 80042d6:	69fb      	ldr	r3, [r7, #28]
 80042d8:	3301      	adds	r3, #1
 80042da:	61fb      	str	r3, [r7, #28]
  while ((pinmask  >> pinpos) != 0u)
 80042dc:	697a      	ldr	r2, [r7, #20]
 80042de:	69fb      	ldr	r3, [r7, #28]
 80042e0:	fa22 f303 	lsr.w	r3, r2, r3
 80042e4:	2b00      	cmp	r3, #0
 80042e6:	d1b4      	bne.n	8004252 <LL_GPIO_Init+0x2c>
  }
  return (SUCCESS);
 80042e8:	2300      	movs	r3, #0
}
 80042ea:	4618      	mov	r0, r3
 80042ec:	3720      	adds	r7, #32
 80042ee:	46bd      	mov	sp, r7
 80042f0:	bd80      	pop	{r7, pc}
	...

080042f4 <LL_RCC_HSE_GetPrediv2>:
{
 80042f4:	b480      	push	{r7}
 80042f6:	af00      	add	r7, sp, #0
  return (uint32_t)(READ_BIT(RCC->CFGR2, RCC_CFGR2_PREDIV2));
 80042f8:	4b03      	ldr	r3, [pc, #12]	@ (8004308 <LL_RCC_HSE_GetPrediv2+0x14>)
 80042fa:	6adb      	ldr	r3, [r3, #44]	@ 0x2c
 80042fc:	f003 03f0 	and.w	r3, r3, #240	@ 0xf0
}
 8004300:	4618      	mov	r0, r3
 8004302:	46bd      	mov	sp, r7
 8004304:	bc80      	pop	{r7}
 8004306:	4770      	bx	lr
 8004308:	40021000 	.word	0x40021000

0800430c <LL_RCC_GetSysClkSource>:
{
 800430c:	b480      	push	{r7}
 800430e:	af00      	add	r7, sp, #0
  return (uint32_t)(READ_BIT(RCC->CFGR, RCC_CFGR_SWS));
 8004310:	4b03      	ldr	r3, [pc, #12]	@ (8004320 <LL_RCC_GetSysClkSource+0x14>)
 8004312:	685b      	ldr	r3, [r3, #4]
 8004314:	f003 030c 	and.w	r3, r3, #12
}
 8004318:	4618      	mov	r0, r3
 800431a:	46bd      	mov	sp, r7
 800431c:	bc80      	pop	{r7}
 800431e:	4770      	bx	lr
 8004320:	40021000 	.word	0x40021000

08004324 <LL_RCC_GetAHBPrescaler>:
{
 8004324:	b480      	push	{r7}
 8004326:	af00      	add	r7, sp, #0
  return (uint32_t)(READ_BIT(RCC->CFGR, RCC_CFGR_HPRE));
 8004328:	4b03      	ldr	r3, [pc, #12]	@ (8004338 <LL_RCC_GetAHBPrescaler+0x14>)
 800432a:	685b      	ldr	r3, [r3, #4]
 800432c:	f003 03f0 	and.w	r3, r3, #240	@ 0xf0
}
 8004330:	4618      	mov	r0, r3
 8004332:	46bd      	mov	sp, r7
 8004334:	bc80      	pop	{r7}
 8004336:	4770      	bx	lr
 8004338:	40021000 	.word	0x40021000

0800433c <LL_RCC_GetAPB1Prescaler>:
{
 800433c:	b480      	push	{r7}
 800433e:	af00      	add	r7, sp, #0
  return (uint32_t)(READ_BIT(RCC->CFGR, RCC_CFGR_PPRE1));
 8004340:	4b03      	ldr	r3, [pc, #12]	@ (8004350 <LL_RCC_GetAPB1Prescaler+0x14>)
 8004342:	685b      	ldr	r3, [r3, #4]
 8004344:	f403 63e0 	and.w	r3, r3, #1792	@ 0x700
}
 8004348:	4618      	mov	r0, r3
 800434a:	46bd      	mov	sp, r7
 800434c:	bc80      	pop	{r7}
 800434e:	4770      	bx	lr
 8004350:	40021000 	.word	0x40021000

08004354 <LL_RCC_GetAPB2Prescaler>:
{
 8004354:	b480      	push	{r7}
 8004356:	af00      	add	r7, sp, #0
  return (uint32_t)(READ_BIT(RCC->CFGR, RCC_CFGR_PPRE2));
 8004358:	4b03      	ldr	r3, [pc, #12]	@ (8004368 <LL_RCC_GetAPB2Prescaler+0x14>)
 800435a:	685b      	ldr	r3, [r3, #4]
 800435c:	f403 5360 	and.w	r3, r3, #14336	@ 0x3800
}
 8004360:	4618      	mov	r0, r3
 8004362:	46bd      	mov	sp, r7
 8004364:	bc80      	pop	{r7}
 8004366:	4770      	bx	lr
 8004368:	40021000 	.word	0x40021000

0800436c <LL_RCC_PLL_GetMainSource>:
  *         @arg @ref LL_RCC_PLLSOURCE_PLL2 (*)
  *
  *         (*) value not defined in all devices
  */
__STATIC_INLINE uint32_t LL_RCC_PLL_GetMainSource(void)
{
 800436c:	b480      	push	{r7}
 800436e:	b083      	sub	sp, #12
 8004370:	af00      	add	r7, sp, #0
#if defined(RCC_CFGR2_PREDIV1SRC)
  uint32_t pllsrc = READ_BIT(RCC->CFGR, RCC_CFGR_PLLSRC);
 8004372:	4b09      	ldr	r3, [pc, #36]	@ (8004398 <LL_RCC_PLL_GetMainSource+0x2c>)
 8004374:	685b      	ldr	r3, [r3, #4]
 8004376:	f403 3380 	and.w	r3, r3, #65536	@ 0x10000
 800437a:	607b      	str	r3, [r7, #4]
  uint32_t predivsrc = (uint32_t)(READ_BIT(RCC->CFGR2, RCC_CFGR2_PREDIV1SRC) << 4U);
 800437c:	4b06      	ldr	r3, [pc, #24]	@ (8004398 <LL_RCC_PLL_GetMainSource+0x2c>)
 800437e:	6adb      	ldr	r3, [r3, #44]	@ 0x2c
 8004380:	011b      	lsls	r3, r3, #4
 8004382:	f403 1380 	and.w	r3, r3, #1048576	@ 0x100000
 8004386:	603b      	str	r3, [r7, #0]
  return (uint32_t)(pllsrc | predivsrc);
 8004388:	687a      	ldr	r2, [r7, #4]
 800438a:	683b      	ldr	r3, [r7, #0]
 800438c:	4313      	orrs	r3, r2
#else
  return (uint32_t)(READ_BIT(RCC->CFGR, RCC_CFGR_PLLSRC));
#endif /*RCC_CFGR2_PREDIV1SRC*/
}
 800438e:	4618      	mov	r0, r3
 8004390:	370c      	adds	r7, #12
 8004392:	46bd      	mov	sp, r7
 8004394:	bc80      	pop	{r7}
 8004396:	4770      	bx	lr
 8004398:	40021000 	.word	0x40021000

0800439c <LL_RCC_PLL_GetMultiplicator>:
  *         @arg @ref LL_RCC_PLL_MUL_16 (*)
  *
  *         (*) value not defined in all devices
  */
__STATIC_INLINE uint32_t LL_RCC_PLL_GetMultiplicator(void)
{
 800439c:	b480      	push	{r7}
 800439e:	af00      	add	r7, sp, #0
  return (uint32_t)(READ_BIT(RCC->CFGR, RCC_CFGR_PLLMULL));
 80043a0:	4b03      	ldr	r3, [pc, #12]	@ (80043b0 <LL_RCC_PLL_GetMultiplicator+0x14>)
 80043a2:	685b      	ldr	r3, [r3, #4]
 80043a4:	f403 1370 	and.w	r3, r3, #3932160	@ 0x3c0000
}
 80043a8:	4618      	mov	r0, r3
 80043aa:	46bd      	mov	sp, r7
 80043ac:	bc80      	pop	{r7}
 80043ae:	4770      	bx	lr
 80043b0:	40021000 	.word	0x40021000

080043b4 <LL_RCC_PLL_GetPrediv>:
  *         @arg @ref LL_RCC_PREDIV_DIV_16 (*)
  *
  *         (*) value not defined in all devices
  */
__STATIC_INLINE uint32_t LL_RCC_PLL_GetPrediv(void)
{
 80043b4:	b480      	push	{r7}
 80043b6:	af00      	add	r7, sp, #0
#if defined(RCC_CFGR2_PREDIV1)
  return (uint32_t)(READ_BIT(RCC->CFGR2, RCC_CFGR2_PREDIV1));
 80043b8:	4b03      	ldr	r3, [pc, #12]	@ (80043c8 <LL_RCC_PLL_GetPrediv+0x14>)
 80043ba:	6adb      	ldr	r3, [r3, #44]	@ 0x2c
 80043bc:	f003 030f 	and.w	r3, r3, #15
#else
  return (uint32_t)(READ_BIT(RCC->CFGR, RCC_CFGR_PLLXTPRE) >> RCC_CFGR_PLLXTPRE_Pos);
#endif /*RCC_CFGR2_PREDIV1*/
}
 80043c0:	4618      	mov	r0, r3
 80043c2:	46bd      	mov	sp, r7
 80043c4:	bc80      	pop	{r7}
 80043c6:	4770      	bx	lr
 80043c8:	40021000 	.word	0x40021000

080043cc <LL_RCC_PLL2_GetMultiplicator>:
  *         @arg @ref LL_RCC_PLL2_MUL_14
  *         @arg @ref LL_RCC_PLL2_MUL_16
  *         @arg @ref LL_RCC_PLL2_MUL_20
  */
__STATIC_INLINE uint32_t LL_RCC_PLL2_GetMultiplicator(void)
{
 80043cc:	b480      	push	{r7}
 80043ce:	af00      	add	r7, sp, #0
  return (uint32_t)(READ_BIT(RCC->CFGR2, RCC_CFGR2_PLL2MUL));
 80043d0:	4b03      	ldr	r3, [pc, #12]	@ (80043e0 <LL_RCC_PLL2_GetMultiplicator+0x14>)
 80043d2:	6adb      	ldr	r3, [r3, #44]	@ 0x2c
 80043d4:	f403 6370 	and.w	r3, r3, #3840	@ 0xf00
}
 80043d8:	4618      	mov	r0, r3
 80043da:	46bd      	mov	sp, r7
 80043dc:	bc80      	pop	{r7}
 80043de:	4770      	bx	lr
 80043e0:	40021000 	.word	0x40021000

080043e4 <LL_RCC_GetSystemClocksFreq>:
  *         configuration based on this function will be incorrect.
  * @param  RCC_Clocks pointer to a @ref LL_RCC_ClocksTypeDef structure which will hold the clocks frequencies
  * @retval None
  */
void LL_RCC_GetSystemClocksFreq(LL_RCC_ClocksTypeDef *RCC_Clocks)
{
 80043e4:	b580      	push	{r7, lr}
 80043e6:	b082      	sub	sp, #8
 80043e8:	af00      	add	r7, sp, #0
 80043ea:	6078      	str	r0, [r7, #4]
  /* Get SYSCLK frequency */
  RCC_Clocks->SYSCLK_Frequency = RCC_GetSystemClockFreq();
 80043ec:	f000 f820 	bl	8004430 <RCC_GetSystemClockFreq>
 80043f0:	4602      	mov	r2, r0
 80043f2:	687b      	ldr	r3, [r7, #4]
 80043f4:	601a      	str	r2, [r3, #0]

  /* HCLK clock frequency */
  RCC_Clocks->HCLK_Frequency   = RCC_GetHCLKClockFreq(RCC_Clocks->SYSCLK_Frequency);
 80043f6:	687b      	ldr	r3, [r7, #4]
 80043f8:	681b      	ldr	r3, [r3, #0]
 80043fa:	4618      	mov	r0, r3
 80043fc:	f000 f83e 	bl	800447c <RCC_GetHCLKClockFreq>
 8004400:	4602      	mov	r2, r0
 8004402:	687b      	ldr	r3, [r7, #4]
 8004404:	605a      	str	r2, [r3, #4]

  /* PCLK1 clock frequency */
  RCC_Clocks->PCLK1_Frequency  = RCC_GetPCLK1ClockFreq(RCC_Clocks->HCLK_Frequency);
 8004406:	687b      	ldr	r3, [r7, #4]
 8004408:	685b      	ldr	r3, [r3, #4]
 800440a:	4618      	mov	r0, r3
 800440c:	f000 f84c 	bl	80044a8 <RCC_GetPCLK1ClockFreq>
 8004410:	4602      	mov	r2, r0
 8004412:	687b      	ldr	r3, [r7, #4]
 8004414:	609a      	str	r2, [r3, #8]

  /* PCLK2 clock frequency */
  RCC_Clocks->PCLK2_Frequency  = RCC_GetPCLK2ClockFreq(RCC_Clocks->HCLK_Frequency);
 8004416:	687b      	ldr	r3, [r7, #4]
 8004418:	685b      	ldr	r3, [r3, #4]
 800441a:	4618      	mov	r0, r3
 800441c:	f000 f858 	bl	80044d0 <RCC_GetPCLK2ClockFreq>
 8004420:	4602      	mov	r2, r0
 8004422:	687b      	ldr	r3, [r7, #4]
 8004424:	60da      	str	r2, [r3, #12]
}
 8004426:	bf00      	nop
 8004428:	3708      	adds	r7, #8
 800442a:	46bd      	mov	sp, r7
 800442c:	bd80      	pop	{r7, pc}
	...

08004430 <RCC_GetSystemClockFreq>:
/**
  * @brief  Return SYSTEM clock frequency
  * @retval SYSTEM clock frequency (in Hz)
  */
uint32_t RCC_GetSystemClockFreq(void)
{
 8004430:	b580      	push	{r7, lr}
 8004432:	b082      	sub	sp, #8
 8004434:	af00      	add	r7, sp, #0
  uint32_t frequency = 0U;
 8004436:	2300      	movs	r3, #0
 8004438:	607b      	str	r3, [r7, #4]

  /* Get SYSCLK source -------------------------------------------------------*/
  switch (LL_RCC_GetSysClkSource())
 800443a:	f7ff ff67 	bl	800430c <LL_RCC_GetSysClkSource>
 800443e:	4603      	mov	r3, r0
 8004440:	2b08      	cmp	r3, #8
 8004442:	d00c      	beq.n	800445e <RCC_GetSystemClockFreq+0x2e>
 8004444:	2b08      	cmp	r3, #8
 8004446:	d80e      	bhi.n	8004466 <RCC_GetSystemClockFreq+0x36>
 8004448:	2b00      	cmp	r3, #0
 800444a:	d002      	beq.n	8004452 <RCC_GetSystemClockFreq+0x22>
 800444c:	2b04      	cmp	r3, #4
 800444e:	d003      	beq.n	8004458 <RCC_GetSystemClockFreq+0x28>
 8004450:	e009      	b.n	8004466 <RCC_GetSystemClockFreq+0x36>
  {
    case LL_RCC_SYS_CLKSOURCE_STATUS_HSI:  /* HSI used as system clock  source */
      frequency = HSI_VALUE;
 8004452:	4b09      	ldr	r3, [pc, #36]	@ (8004478 <RCC_GetSystemClockFreq+0x48>)
 8004454:	607b      	str	r3, [r7, #4]
      break;
 8004456:	e009      	b.n	800446c <RCC_GetSystemClockFreq+0x3c>

    case LL_RCC_SYS_CLKSOURCE_STATUS_HSE:  /* HSE used as system clock  source */
      frequency = HSE_VALUE;
 8004458:	4b07      	ldr	r3, [pc, #28]	@ (8004478 <RCC_GetSystemClockFreq+0x48>)
 800445a:	607b      	str	r3, [r7, #4]
      break;
 800445c:	e006      	b.n	800446c <RCC_GetSystemClockFreq+0x3c>

    case LL_RCC_SYS_CLKSOURCE_STATUS_PLL:  /* PLL used as system clock  source */
      frequency = RCC_PLL_GetFreqDomain_SYS();
 800445e:	f000 f84b 	bl	80044f8 <RCC_PLL_GetFreqDomain_SYS>
 8004462:	6078      	str	r0, [r7, #4]
      break;
 8004464:	e002      	b.n	800446c <RCC_GetSystemClockFreq+0x3c>

    default:
      frequency = HSI_VALUE;
 8004466:	4b04      	ldr	r3, [pc, #16]	@ (8004478 <RCC_GetSystemClockFreq+0x48>)
 8004468:	607b      	str	r3, [r7, #4]
      break;
 800446a:	bf00      	nop
  }

  return frequency;
 800446c:	687b      	ldr	r3, [r7, #4]
}
 800446e:	4618      	mov	r0, r3
 8004470:	3708      	adds	r7, #8
 8004472:	46bd      	mov	sp, r7
 8004474:	bd80      	pop	{r7, pc}
 8004476:	bf00      	nop
 8004478:	007a1200 	.word	0x007a1200

0800447c <RCC_GetHCLKClockFreq>:
  * @brief  Return HCLK clock frequency
  * @param  SYSCLK_Frequency SYSCLK clock frequency
  * @retval HCLK clock frequency (in Hz)
  */
uint32_t RCC_GetHCLKClockFreq(uint32_t SYSCLK_Frequency)
{
 800447c:	b580      	push	{r7, lr}
 800447e:	b082      	sub	sp, #8
 8004480:	af00      	add	r7, sp, #0
 8004482:	6078      	str	r0, [r7, #4]
  /* HCLK clock frequency */
  return __LL_RCC_CALC_HCLK_FREQ(SYSCLK_Frequency, LL_RCC_GetAHBPrescaler());
 8004484:	f7ff ff4e 	bl	8004324 <LL_RCC_GetAHBPrescaler>
 8004488:	4603      	mov	r3, r0
 800448a:	091b      	lsrs	r3, r3, #4
 800448c:	f003 030f 	and.w	r3, r3, #15
 8004490:	4a04      	ldr	r2, [pc, #16]	@ (80044a4 <RCC_GetHCLKClockFreq+0x28>)
 8004492:	5cd3      	ldrb	r3, [r2, r3]
 8004494:	461a      	mov	r2, r3
 8004496:	687b      	ldr	r3, [r7, #4]
 8004498:	40d3      	lsrs	r3, r2
}
 800449a:	4618      	mov	r0, r3
 800449c:	3708      	adds	r7, #8
 800449e:	46bd      	mov	sp, r7
 80044a0:	bd80      	pop	{r7, pc}
 80044a2:	bf00      	nop
 80044a4:	08007850 	.word	0x08007850

080044a8 <RCC_GetPCLK1ClockFreq>:
  * @brief  Return PCLK1 clock frequency
  * @param  HCLK_Frequency HCLK clock frequency
  * @retval PCLK1 clock frequency (in Hz)
  */
uint32_t RCC_GetPCLK1ClockFreq(uint32_t HCLK_Frequency)
{
 80044a8:	b580      	push	{r7, lr}
 80044aa:	b082      	sub	sp, #8
 80044ac:	af00      	add	r7, sp, #0
 80044ae:	6078      	str	r0, [r7, #4]
  /* PCLK1 clock frequency */
  return __LL_RCC_CALC_PCLK1_FREQ(HCLK_Frequency, LL_RCC_GetAPB1Prescaler());
 80044b0:	f7ff ff44 	bl	800433c <LL_RCC_GetAPB1Prescaler>
 80044b4:	4603      	mov	r3, r0
 80044b6:	0a1b      	lsrs	r3, r3, #8
 80044b8:	4a04      	ldr	r2, [pc, #16]	@ (80044cc <RCC_GetPCLK1ClockFreq+0x24>)
 80044ba:	5cd3      	ldrb	r3, [r2, r3]
 80044bc:	461a      	mov	r2, r3
 80044be:	687b      	ldr	r3, [r7, #4]
 80044c0:	40d3      	lsrs	r3, r2
}
 80044c2:	4618      	mov	r0, r3
 80044c4:	3708      	adds	r7, #8
 80044c6:	46bd      	mov	sp, r7
 80044c8:	bd80      	pop	{r7, pc}
 80044ca:	bf00      	nop
 80044cc:	08007860 	.word	0x08007860

080044d0 <RCC_GetPCLK2ClockFreq>:
  * @brief  Return PCLK2 clock frequency
  * @param  HCLK_Frequency HCLK clock frequency
  * @retval PCLK2 clock frequency (in Hz)
  */
uint32_t RCC_GetPCLK2ClockFreq(uint32_t HCLK_Frequency)
{
 80044d0:	b580      	push	{r7, lr}
 80044d2:	b082      	sub	sp, #8
 80044d4:	af00      	add	r7, sp, #0
 80044d6:	6078      	str	r0, [r7, #4]
  /* PCLK2 clock frequency */
  return __LL_RCC_CALC_PCLK2_FREQ(HCLK_Frequency, LL_RCC_GetAPB2Prescaler());
 80044d8:	f7ff ff3c 	bl	8004354 <LL_RCC_GetAPB2Prescaler>
 80044dc:	4603      	mov	r3, r0
 80044de:	0adb      	lsrs	r3, r3, #11
 80044e0:	4a04      	ldr	r2, [pc, #16]	@ (80044f4 <RCC_GetPCLK2ClockFreq+0x24>)
 80044e2:	5cd3      	ldrb	r3, [r2, r3]
 80044e4:	461a      	mov	r2, r3
 80044e6:	687b      	ldr	r3, [r7, #4]
 80044e8:	40d3      	lsrs	r3, r2
}
 80044ea:	4618      	mov	r0, r3
 80044ec:	3708      	adds	r7, #8
 80044ee:	46bd      	mov	sp, r7
 80044f0:	bd80      	pop	{r7, pc}
 80044f2:	bf00      	nop
 80044f4:	08007860 	.word	0x08007860

080044f8 <RCC_PLL_GetFreqDomain_SYS>:
/**
  * @brief  Return PLL clock frequency used for system domain
  * @retval PLL clock frequency (in Hz)
  */
uint32_t RCC_PLL_GetFreqDomain_SYS(void)
{
 80044f8:	b590      	push	{r4, r7, lr}
 80044fa:	b083      	sub	sp, #12
 80044fc:	af00      	add	r7, sp, #0
  uint32_t pllinputfreq = 0U, pllsource = 0U;
 80044fe:	2300      	movs	r3, #0
 8004500:	607b      	str	r3, [r7, #4]
 8004502:	2300      	movs	r3, #0
 8004504:	603b      	str	r3, [r7, #0]

  /* PLL_VCO = (HSE_VALUE, HSI_VALUE or PLL2 / PLL Predivider) * PLL Multiplicator */

  /* Get PLL source */
  pllsource = LL_RCC_PLL_GetMainSource();
 8004506:	f7ff ff31 	bl	800436c <LL_RCC_PLL_GetMainSource>
 800450a:	6038      	str	r0, [r7, #0]

  switch (pllsource)
 800450c:	683b      	ldr	r3, [r7, #0]
 800450e:	f5b3 1f88 	cmp.w	r3, #1114112	@ 0x110000
 8004512:	d017      	beq.n	8004544 <RCC_PLL_GetFreqDomain_SYS+0x4c>
 8004514:	683b      	ldr	r3, [r7, #0]
 8004516:	f5b3 1f88 	cmp.w	r3, #1114112	@ 0x110000
 800451a:	d81e      	bhi.n	800455a <RCC_PLL_GetFreqDomain_SYS+0x62>
 800451c:	683b      	ldr	r3, [r7, #0]
 800451e:	2b00      	cmp	r3, #0
 8004520:	d004      	beq.n	800452c <RCC_PLL_GetFreqDomain_SYS+0x34>
 8004522:	683b      	ldr	r3, [r7, #0]
 8004524:	f5b3 3f80 	cmp.w	r3, #65536	@ 0x10000
 8004528:	d003      	beq.n	8004532 <RCC_PLL_GetFreqDomain_SYS+0x3a>
 800452a:	e016      	b.n	800455a <RCC_PLL_GetFreqDomain_SYS+0x62>
  {
    case LL_RCC_PLLSOURCE_HSI_DIV_2: /* HSI used as PLL clock source */
      pllinputfreq = HSI_VALUE / 2U;
 800452c:	4b1a      	ldr	r3, [pc, #104]	@ (8004598 <RCC_PLL_GetFreqDomain_SYS+0xa0>)
 800452e:	607b      	str	r3, [r7, #4]
      break;
 8004530:	e016      	b.n	8004560 <RCC_PLL_GetFreqDomain_SYS+0x68>

    case LL_RCC_PLLSOURCE_HSE:       /* HSE used as PLL clock source */
      pllinputfreq = HSE_VALUE / (LL_RCC_PLL_GetPrediv() + 1U);
 8004532:	f7ff ff3f 	bl	80043b4 <LL_RCC_PLL_GetPrediv>
 8004536:	4603      	mov	r3, r0
 8004538:	3301      	adds	r3, #1
 800453a:	4a18      	ldr	r2, [pc, #96]	@ (800459c <RCC_PLL_GetFreqDomain_SYS+0xa4>)
 800453c:	fbb2 f3f3 	udiv	r3, r2, r3
 8004540:	607b      	str	r3, [r7, #4]
      break;
 8004542:	e00d      	b.n	8004560 <RCC_PLL_GetFreqDomain_SYS+0x68>

#if defined(RCC_PLL2_SUPPORT)
    case LL_RCC_PLLSOURCE_PLL2:       /* PLL2 used as PLL clock source */
      pllinputfreq = RCC_PLL2_GetFreqClockFreq() / (LL_RCC_PLL_GetPrediv() + 1U);
 8004544:	f000 f82c 	bl	80045a0 <RCC_PLL2_GetFreqClockFreq>
 8004548:	4604      	mov	r4, r0
 800454a:	f7ff ff33 	bl	80043b4 <LL_RCC_PLL_GetPrediv>
 800454e:	4603      	mov	r3, r0
 8004550:	3301      	adds	r3, #1
 8004552:	fbb4 f3f3 	udiv	r3, r4, r3
 8004556:	607b      	str	r3, [r7, #4]
      break;
 8004558:	e002      	b.n	8004560 <RCC_PLL_GetFreqDomain_SYS+0x68>
#endif /* RCC_PLL2_SUPPORT */

    default:
      pllinputfreq = HSI_VALUE / 2U;
 800455a:	4b0f      	ldr	r3, [pc, #60]	@ (8004598 <RCC_PLL_GetFreqDomain_SYS+0xa0>)
 800455c:	607b      	str	r3, [r7, #4]
      break;
 800455e:	bf00      	nop
  }
  return __LL_RCC_CALC_PLLCLK_FREQ(pllinputfreq, LL_RCC_PLL_GetMultiplicator());
 8004560:	f7ff ff1c 	bl	800439c <LL_RCC_PLL_GetMultiplicator>
 8004564:	4603      	mov	r3, r0
 8004566:	f5b3 1f50 	cmp.w	r3, #3407872	@ 0x340000
 800456a:	d00a      	beq.n	8004582 <RCC_PLL_GetFreqDomain_SYS+0x8a>
 800456c:	f7ff ff16 	bl	800439c <LL_RCC_PLL_GetMultiplicator>
 8004570:	4603      	mov	r3, r0
 8004572:	0c9b      	lsrs	r3, r3, #18
 8004574:	f003 030f 	and.w	r3, r3, #15
 8004578:	3302      	adds	r3, #2
 800457a:	687a      	ldr	r2, [r7, #4]
 800457c:	fb02 f303 	mul.w	r3, r2, r3
 8004580:	e006      	b.n	8004590 <RCC_PLL_GetFreqDomain_SYS+0x98>
 8004582:	687a      	ldr	r2, [r7, #4]
 8004584:	4613      	mov	r3, r2
 8004586:	005b      	lsls	r3, r3, #1
 8004588:	4413      	add	r3, r2
 800458a:	009b      	lsls	r3, r3, #2
 800458c:	4413      	add	r3, r2
 800458e:	085b      	lsrs	r3, r3, #1
}
 8004590:	4618      	mov	r0, r3
 8004592:	370c      	adds	r7, #12
 8004594:	46bd      	mov	sp, r7
 8004596:	bd90      	pop	{r4, r7, pc}
 8004598:	003d0900 	.word	0x003d0900
 800459c:	007a1200 	.word	0x007a1200

080045a0 <RCC_PLL2_GetFreqClockFreq>:
/**
  * @brief  Return PLL clock frequency used for system domain
  * @retval PLL clock frequency (in Hz)
  */
uint32_t RCC_PLL2_GetFreqClockFreq(void)
{
 80045a0:	b598      	push	{r3, r4, r7, lr}
 80045a2:	af00      	add	r7, sp, #0
  return __LL_RCC_CALC_PLL2CLK_FREQ(HSE_VALUE, LL_RCC_PLL2_GetMultiplicator(), LL_RCC_HSE_GetPrediv2());
 80045a4:	f7ff ff12 	bl	80043cc <LL_RCC_PLL2_GetMultiplicator>
 80045a8:	4603      	mov	r3, r0
 80045aa:	0a1b      	lsrs	r3, r3, #8
 80045ac:	4a07      	ldr	r2, [pc, #28]	@ (80045cc <RCC_PLL2_GetFreqClockFreq+0x2c>)
 80045ae:	fb02 f303 	mul.w	r3, r2, r3
 80045b2:	f503 0474 	add.w	r4, r3, #15990784	@ 0xf40000
 80045b6:	f504 5410 	add.w	r4, r4, #9216	@ 0x2400
 80045ba:	f7ff fe9b 	bl	80042f4 <LL_RCC_HSE_GetPrediv2>
 80045be:	4603      	mov	r3, r0
 80045c0:	091b      	lsrs	r3, r3, #4
 80045c2:	3301      	adds	r3, #1
 80045c4:	fbb4 f3f3 	udiv	r3, r4, r3
}
 80045c8:	4618      	mov	r0, r3
 80045ca:	bd98      	pop	{r3, r4, r7, pc}
 80045cc:	007a1200 	.word	0x007a1200

080045d0 <LL_TIM_SetPrescaler>:
{
 80045d0:	b480      	push	{r7}
 80045d2:	b083      	sub	sp, #12
 80045d4:	af00      	add	r7, sp, #0
 80045d6:	6078      	str	r0, [r7, #4]
 80045d8:	6039      	str	r1, [r7, #0]
  WRITE_REG(TIMx->PSC, Prescaler);
 80045da:	687b      	ldr	r3, [r7, #4]
 80045dc:	683a      	ldr	r2, [r7, #0]
 80045de:	629a      	str	r2, [r3, #40]	@ 0x28
}
 80045e0:	bf00      	nop
 80045e2:	370c      	adds	r7, #12
 80045e4:	46bd      	mov	sp, r7
 80045e6:	bc80      	pop	{r7}
 80045e8:	4770      	bx	lr

080045ea <LL_TIM_SetAutoReload>:
{
 80045ea:	b480      	push	{r7}
 80045ec:	b083      	sub	sp, #12
 80045ee:	af00      	add	r7, sp, #0
 80045f0:	6078      	str	r0, [r7, #4]
 80045f2:	6039      	str	r1, [r7, #0]
  WRITE_REG(TIMx->ARR, AutoReload);
 80045f4:	687b      	ldr	r3, [r7, #4]
 80045f6:	683a      	ldr	r2, [r7, #0]
 80045f8:	62da      	str	r2, [r3, #44]	@ 0x2c
}
 80045fa:	bf00      	nop
 80045fc:	370c      	adds	r7, #12
 80045fe:	46bd      	mov	sp, r7
 8004600:	bc80      	pop	{r7}
 8004602:	4770      	bx	lr

08004604 <LL_TIM_SetRepetitionCounter>:
{
 8004604:	b480      	push	{r7}
 8004606:	b083      	sub	sp, #12
 8004608:	af00      	add	r7, sp, #0
 800460a:	6078      	str	r0, [r7, #4]
 800460c:	6039      	str	r1, [r7, #0]
  WRITE_REG(TIMx->RCR, RepetitionCounter);
 800460e:	687b      	ldr	r3, [r7, #4]
 8004610:	683a      	ldr	r2, [r7, #0]
 8004612:	631a      	str	r2, [r3, #48]	@ 0x30
}
 8004614:	bf00      	nop
 8004616:	370c      	adds	r7, #12
 8004618:	46bd      	mov	sp, r7
 800461a:	bc80      	pop	{r7}
 800461c:	4770      	bx	lr

0800461e <LL_TIM_OC_SetCompareCH1>:
{
 800461e:	b480      	push	{r7}
 8004620:	b083      	sub	sp, #12
 8004622:	af00      	add	r7, sp, #0
 8004624:	6078      	str	r0, [r7, #4]
 8004626:	6039      	str	r1, [r7, #0]
  WRITE_REG(TIMx->CCR1, CompareValue);
 8004628:	687b      	ldr	r3, [r7, #4]
 800462a:	683a      	ldr	r2, [r7, #0]
 800462c:	635a      	str	r2, [r3, #52]	@ 0x34
}
 800462e:	bf00      	nop
 8004630:	370c      	adds	r7, #12
 8004632:	46bd      	mov	sp, r7
 8004634:	bc80      	pop	{r7}
 8004636:	4770      	bx	lr

08004638 <LL_TIM_OC_SetCompareCH2>:
{
 8004638:	b480      	push	{r7}
 800463a:	b083      	sub	sp, #12
 800463c:	af00      	add	r7, sp, #0
 800463e:	6078      	str	r0, [r7, #4]
 8004640:	6039      	str	r1, [r7, #0]
  WRITE_REG(TIMx->CCR2, CompareValue);
 8004642:	687b      	ldr	r3, [r7, #4]
 8004644:	683a      	ldr	r2, [r7, #0]
 8004646:	639a      	str	r2, [r3, #56]	@ 0x38
}
 8004648:	bf00      	nop
 800464a:	370c      	adds	r7, #12
 800464c:	46bd      	mov	sp, r7
 800464e:	bc80      	pop	{r7}
 8004650:	4770      	bx	lr

08004652 <LL_TIM_OC_SetCompareCH3>:
{
 8004652:	b480      	push	{r7}
 8004654:	b083      	sub	sp, #12
 8004656:	af00      	add	r7, sp, #0
 8004658:	6078      	str	r0, [r7, #4]
 800465a:	6039      	str	r1, [r7, #0]
  WRITE_REG(TIMx->CCR3, CompareValue);
 800465c:	687b      	ldr	r3, [r7, #4]
 800465e:	683a      	ldr	r2, [r7, #0]
 8004660:	63da      	str	r2, [r3, #60]	@ 0x3c
}
 8004662:	bf00      	nop
 8004664:	370c      	adds	r7, #12
 8004666:	46bd      	mov	sp, r7
 8004668:	bc80      	pop	{r7}
 800466a:	4770      	bx	lr

0800466c <LL_TIM_OC_SetCompareCH4>:
{
 800466c:	b480      	push	{r7}
 800466e:	b083      	sub	sp, #12
 8004670:	af00      	add	r7, sp, #0
 8004672:	6078      	str	r0, [r7, #4]
 8004674:	6039      	str	r1, [r7, #0]
  WRITE_REG(TIMx->CCR4, CompareValue);
 8004676:	687b      	ldr	r3, [r7, #4]
 8004678:	683a      	ldr	r2, [r7, #0]
 800467a:	641a      	str	r2, [r3, #64]	@ 0x40
}
 800467c:	bf00      	nop
 800467e:	370c      	adds	r7, #12
 8004680:	46bd      	mov	sp, r7
 8004682:	bc80      	pop	{r7}
 8004684:	4770      	bx	lr

08004686 <LL_TIM_GenerateEvent_UPDATE>:
  * @rmtoll EGR          UG            LL_TIM_GenerateEvent_UPDATE
  * @param  TIMx Timer instance
  * @retval None
  */
__STATIC_INLINE void LL_TIM_GenerateEvent_UPDATE(TIM_TypeDef *TIMx)
{
 8004686:	b480      	push	{r7}
 8004688:	b083      	sub	sp, #12
 800468a:	af00      	add	r7, sp, #0
 800468c:	6078      	str	r0, [r7, #4]
  SET_BIT(TIMx->EGR, TIM_EGR_UG);
 800468e:	687b      	ldr	r3, [r7, #4]
 8004690:	695b      	ldr	r3, [r3, #20]
 8004692:	f043 0201 	orr.w	r2, r3, #1
 8004696:	687b      	ldr	r3, [r7, #4]
 8004698:	615a      	str	r2, [r3, #20]
}
 800469a:	bf00      	nop
 800469c:	370c      	adds	r7, #12
 800469e:	46bd      	mov	sp, r7
 80046a0:	bc80      	pop	{r7}
 80046a2:	4770      	bx	lr

080046a4 <LL_TIM_Init>:
  * @retval An ErrorStatus enumeration value:
  *          - SUCCESS: TIMx registers are de-initialized
  *          - ERROR: not applicable
  */
ErrorStatus LL_TIM_Init(TIM_TypeDef *TIMx, const LL_TIM_InitTypeDef *TIM_InitStruct)
{
 80046a4:	b580      	push	{r7, lr}
 80046a6:	b084      	sub	sp, #16
 80046a8:	af00      	add	r7, sp, #0
 80046aa:	6078      	str	r0, [r7, #4]
 80046ac:	6039      	str	r1, [r7, #0]
  /* Check the parameters */
  assert_param(IS_TIM_INSTANCE(TIMx));
  assert_param(IS_LL_TIM_COUNTERMODE(TIM_InitStruct->CounterMode));
  assert_param(IS_LL_TIM_CLOCKDIVISION(TIM_InitStruct->ClockDivision));

  tmpcr1 = LL_TIM_ReadReg(TIMx, CR1);
 80046ae:	687b      	ldr	r3, [r7, #4]
 80046b0:	681b      	ldr	r3, [r3, #0]
 80046b2:	60fb      	str	r3, [r7, #12]

  if (IS_TIM_COUNTER_MODE_SELECT_INSTANCE(TIMx))
 80046b4:	687b      	ldr	r3, [r7, #4]
 80046b6:	4a2b      	ldr	r2, [pc, #172]	@ (8004764 <LL_TIM_Init+0xc0>)
 80046b8:	4293      	cmp	r3, r2
 80046ba:	d00f      	beq.n	80046dc <LL_TIM_Init+0x38>
 80046bc:	687b      	ldr	r3, [r7, #4]
 80046be:	f1b3 4f80 	cmp.w	r3, #1073741824	@ 0x40000000
 80046c2:	d00b      	beq.n	80046dc <LL_TIM_Init+0x38>
 80046c4:	687b      	ldr	r3, [r7, #4]
 80046c6:	4a28      	ldr	r2, [pc, #160]	@ (8004768 <LL_TIM_Init+0xc4>)
 80046c8:	4293      	cmp	r3, r2
 80046ca:	d007      	beq.n	80046dc <LL_TIM_Init+0x38>
 80046cc:	687b      	ldr	r3, [r7, #4]
 80046ce:	4a27      	ldr	r2, [pc, #156]	@ (800476c <LL_TIM_Init+0xc8>)
 80046d0:	4293      	cmp	r3, r2
 80046d2:	d003      	beq.n	80046dc <LL_TIM_Init+0x38>
 80046d4:	687b      	ldr	r3, [r7, #4]
 80046d6:	4a26      	ldr	r2, [pc, #152]	@ (8004770 <LL_TIM_Init+0xcc>)
 80046d8:	4293      	cmp	r3, r2
 80046da:	d106      	bne.n	80046ea <LL_TIM_Init+0x46>
  {
    /* Select the Counter Mode */
    MODIFY_REG(tmpcr1, (TIM_CR1_DIR | TIM_CR1_CMS), TIM_InitStruct->CounterMode);
 80046dc:	68fb      	ldr	r3, [r7, #12]
 80046de:	f023 0270 	bic.w	r2, r3, #112	@ 0x70
 80046e2:	683b      	ldr	r3, [r7, #0]
 80046e4:	685b      	ldr	r3, [r3, #4]
 80046e6:	4313      	orrs	r3, r2
 80046e8:	60fb      	str	r3, [r7, #12]
  }

  if (IS_TIM_CLOCK_DIVISION_INSTANCE(TIMx))
 80046ea:	687b      	ldr	r3, [r7, #4]
 80046ec:	4a1d      	ldr	r2, [pc, #116]	@ (8004764 <LL_TIM_Init+0xc0>)
 80046ee:	4293      	cmp	r3, r2
 80046f0:	d00f      	beq.n	8004712 <LL_TIM_Init+0x6e>
 80046f2:	687b      	ldr	r3, [r7, #4]
 80046f4:	f1b3 4f80 	cmp.w	r3, #1073741824	@ 0x40000000
 80046f8:	d00b      	beq.n	8004712 <LL_TIM_Init+0x6e>
 80046fa:	687b      	ldr	r3, [r7, #4]
 80046fc:	4a1a      	ldr	r2, [pc, #104]	@ (8004768 <LL_TIM_Init+0xc4>)
 80046fe:	4293      	cmp	r3, r2
 8004700:	d007      	beq.n	8004712 <LL_TIM_Init+0x6e>
 8004702:	687b      	ldr	r3, [r7, #4]
 8004704:	4a19      	ldr	r2, [pc, #100]	@ (800476c <LL_TIM_Init+0xc8>)
 8004706:	4293      	cmp	r3, r2
 8004708:	d003      	beq.n	8004712 <LL_TIM_Init+0x6e>
 800470a:	687b      	ldr	r3, [r7, #4]
 800470c:	4a18      	ldr	r2, [pc, #96]	@ (8004770 <LL_TIM_Init+0xcc>)
 800470e:	4293      	cmp	r3, r2
 8004710:	d106      	bne.n	8004720 <LL_TIM_Init+0x7c>
  {
    /* Set the clock division */
    MODIFY_REG(tmpcr1, TIM_CR1_CKD, TIM_InitStruct->ClockDivision);
 8004712:	68fb      	ldr	r3, [r7, #12]
 8004714:	f423 7240 	bic.w	r2, r3, #768	@ 0x300
 8004718:	683b      	ldr	r3, [r7, #0]
 800471a:	68db      	ldr	r3, [r3, #12]
 800471c:	4313      	orrs	r3, r2
 800471e:	60fb      	str	r3, [r7, #12]
  }

  /* Write to TIMx CR1 */
  LL_TIM_WriteReg(TIMx, CR1, tmpcr1);
 8004720:	687b      	ldr	r3, [r7, #4]
 8004722:	68fa      	ldr	r2, [r7, #12]
 8004724:	601a      	str	r2, [r3, #0]

  /* Set the Autoreload value */
  LL_TIM_SetAutoReload(TIMx, TIM_InitStruct->Autoreload);
 8004726:	683b      	ldr	r3, [r7, #0]
 8004728:	689b      	ldr	r3, [r3, #8]
 800472a:	4619      	mov	r1, r3
 800472c:	6878      	ldr	r0, [r7, #4]
 800472e:	f7ff ff5c 	bl	80045ea <LL_TIM_SetAutoReload>

  /* Set the Prescaler value */
  LL_TIM_SetPrescaler(TIMx, TIM_InitStruct->Prescaler);
 8004732:	683b      	ldr	r3, [r7, #0]
 8004734:	881b      	ldrh	r3, [r3, #0]
 8004736:	4619      	mov	r1, r3
 8004738:	6878      	ldr	r0, [r7, #4]
 800473a:	f7ff ff49 	bl	80045d0 <LL_TIM_SetPrescaler>

  if (IS_TIM_REPETITION_COUNTER_INSTANCE(TIMx))
 800473e:	687b      	ldr	r3, [r7, #4]
 8004740:	4a08      	ldr	r2, [pc, #32]	@ (8004764 <LL_TIM_Init+0xc0>)
 8004742:	4293      	cmp	r3, r2
 8004744:	d105      	bne.n	8004752 <LL_TIM_Init+0xae>
  {
    /* Set the Repetition Counter value */
    LL_TIM_SetRepetitionCounter(TIMx, TIM_InitStruct->RepetitionCounter);
 8004746:	683b      	ldr	r3, [r7, #0]
 8004748:	691b      	ldr	r3, [r3, #16]
 800474a:	4619      	mov	r1, r3
 800474c:	6878      	ldr	r0, [r7, #4]
 800474e:	f7ff ff59 	bl	8004604 <LL_TIM_SetRepetitionCounter>
  }

  /* Generate an update event to reload the Prescaler
     and the repetition counter value (if applicable) immediately */
  LL_TIM_GenerateEvent_UPDATE(TIMx);
 8004752:	6878      	ldr	r0, [r7, #4]
 8004754:	f7ff ff97 	bl	8004686 <LL_TIM_GenerateEvent_UPDATE>

  return SUCCESS;
 8004758:	2300      	movs	r3, #0
}
 800475a:	4618      	mov	r0, r3
 800475c:	3710      	adds	r7, #16
 800475e:	46bd      	mov	sp, r7
 8004760:	bd80      	pop	{r7, pc}
 8004762:	bf00      	nop
 8004764:	40012c00 	.word	0x40012c00
 8004768:	40000400 	.word	0x40000400
 800476c:	40000800 	.word	0x40000800
 8004770:	40000c00 	.word	0x40000c00

08004774 <LL_TIM_OC_Init>:
  * @retval An ErrorStatus enumeration value:
  *          - SUCCESS: TIMx output channel is initialized
  *          - ERROR: TIMx output channel is not initialized
  */
ErrorStatus LL_TIM_OC_Init(TIM_TypeDef *TIMx, uint32_t Channel, const LL_TIM_OC_InitTypeDef *TIM_OC_InitStruct)
{
 8004774:	b580      	push	{r7, lr}
 8004776:	b086      	sub	sp, #24
 8004778:	af00      	add	r7, sp, #0
 800477a:	60f8      	str	r0, [r7, #12]
 800477c:	60b9      	str	r1, [r7, #8]
 800477e:	607a      	str	r2, [r7, #4]
  ErrorStatus result = ERROR;
 8004780:	2301      	movs	r3, #1
 8004782:	75fb      	strb	r3, [r7, #23]

  switch (Channel)
 8004784:	68bb      	ldr	r3, [r7, #8]
 8004786:	f5b3 5f80 	cmp.w	r3, #4096	@ 0x1000
 800478a:	d027      	beq.n	80047dc <LL_TIM_OC_Init+0x68>
 800478c:	68bb      	ldr	r3, [r7, #8]
 800478e:	f5b3 5f80 	cmp.w	r3, #4096	@ 0x1000
 8004792:	d82a      	bhi.n	80047ea <LL_TIM_OC_Init+0x76>
 8004794:	68bb      	ldr	r3, [r7, #8]
 8004796:	f5b3 7f80 	cmp.w	r3, #256	@ 0x100
 800479a:	d018      	beq.n	80047ce <LL_TIM_OC_Init+0x5a>
 800479c:	68bb      	ldr	r3, [r7, #8]
 800479e:	f5b3 7f80 	cmp.w	r3, #256	@ 0x100
 80047a2:	d822      	bhi.n	80047ea <LL_TIM_OC_Init+0x76>
 80047a4:	68bb      	ldr	r3, [r7, #8]
 80047a6:	2b01      	cmp	r3, #1
 80047a8:	d003      	beq.n	80047b2 <LL_TIM_OC_Init+0x3e>
 80047aa:	68bb      	ldr	r3, [r7, #8]
 80047ac:	2b10      	cmp	r3, #16
 80047ae:	d007      	beq.n	80047c0 <LL_TIM_OC_Init+0x4c>
      break;
    case LL_TIM_CHANNEL_CH4:
      result = OC4Config(TIMx, TIM_OC_InitStruct);
      break;
    default:
      break;
 80047b0:	e01b      	b.n	80047ea <LL_TIM_OC_Init+0x76>
      result = OC1Config(TIMx, TIM_OC_InitStruct);
 80047b2:	6879      	ldr	r1, [r7, #4]
 80047b4:	68f8      	ldr	r0, [r7, #12]
 80047b6:	f000 f81f 	bl	80047f8 <OC1Config>
 80047ba:	4603      	mov	r3, r0
 80047bc:	75fb      	strb	r3, [r7, #23]
      break;
 80047be:	e015      	b.n	80047ec <LL_TIM_OC_Init+0x78>
      result = OC2Config(TIMx, TIM_OC_InitStruct);
 80047c0:	6879      	ldr	r1, [r7, #4]
 80047c2:	68f8      	ldr	r0, [r7, #12]
 80047c4:	f000 f87e 	bl	80048c4 <OC2Config>
 80047c8:	4603      	mov	r3, r0
 80047ca:	75fb      	strb	r3, [r7, #23]
      break;
 80047cc:	e00e      	b.n	80047ec <LL_TIM_OC_Init+0x78>
      result = OC3Config(TIMx, TIM_OC_InitStruct);
 80047ce:	6879      	ldr	r1, [r7, #4]
 80047d0:	68f8      	ldr	r0, [r7, #12]
 80047d2:	f000 f8e1 	bl	8004998 <OC3Config>
 80047d6:	4603      	mov	r3, r0
 80047d8:	75fb      	strb	r3, [r7, #23]
      break;
 80047da:	e007      	b.n	80047ec <LL_TIM_OC_Init+0x78>
      result = OC4Config(TIMx, TIM_OC_InitStruct);
 80047dc:	6879      	ldr	r1, [r7, #4]
 80047de:	68f8      	ldr	r0, [r7, #12]
 80047e0:	f000 f944 	bl	8004a6c <OC4Config>
 80047e4:	4603      	mov	r3, r0
 80047e6:	75fb      	strb	r3, [r7, #23]
      break;
 80047e8:	e000      	b.n	80047ec <LL_TIM_OC_Init+0x78>
      break;
 80047ea:	bf00      	nop
  }

  return result;
 80047ec:	7dfb      	ldrb	r3, [r7, #23]
}
 80047ee:	4618      	mov	r0, r3
 80047f0:	3718      	adds	r7, #24
 80047f2:	46bd      	mov	sp, r7
 80047f4:	bd80      	pop	{r7, pc}
	...

080047f8 <OC1Config>:
  * @retval An ErrorStatus enumeration value:
  *          - SUCCESS: TIMx registers are de-initialized
  *          - ERROR: not applicable
  */
static ErrorStatus OC1Config(TIM_TypeDef *TIMx, const LL_TIM_OC_InitTypeDef *TIM_OCInitStruct)
{
 80047f8:	b580      	push	{r7, lr}
 80047fa:	b086      	sub	sp, #24
 80047fc:	af00      	add	r7, sp, #0
 80047fe:	6078      	str	r0, [r7, #4]
 8004800:	6039      	str	r1, [r7, #0]
  assert_param(IS_LL_TIM_OCMODE(TIM_OCInitStruct->OCMode));
  assert_param(IS_LL_TIM_OCSTATE(TIM_OCInitStruct->OCState));
  assert_param(IS_LL_TIM_OCPOLARITY(TIM_OCInitStruct->OCPolarity));

  /* Disable the Channel 1: Reset the CC1E Bit */
  CLEAR_BIT(TIMx->CCER, TIM_CCER_CC1E);
 8004802:	687b      	ldr	r3, [r7, #4]
 8004804:	6a1b      	ldr	r3, [r3, #32]
 8004806:	f023 0201 	bic.w	r2, r3, #1
 800480a:	687b      	ldr	r3, [r7, #4]
 800480c:	621a      	str	r2, [r3, #32]

  /* Get the TIMx CCER register value */
  tmpccer = LL_TIM_ReadReg(TIMx, CCER);
 800480e:	687b      	ldr	r3, [r7, #4]
 8004810:	6a1b      	ldr	r3, [r3, #32]
 8004812:	617b      	str	r3, [r7, #20]

  /* Get the TIMx CR2 register value */
  tmpcr2 = LL_TIM_ReadReg(TIMx, CR2);
 8004814:	687b      	ldr	r3, [r7, #4]
 8004816:	685b      	ldr	r3, [r3, #4]
 8004818:	613b      	str	r3, [r7, #16]

  /* Get the TIMx CCMR1 register value */
  tmpccmr1 = LL_TIM_ReadReg(TIMx, CCMR1);
 800481a:	687b      	ldr	r3, [r7, #4]
 800481c:	699b      	ldr	r3, [r3, #24]
 800481e:	60fb      	str	r3, [r7, #12]

  /* Reset Capture/Compare selection Bits */
  CLEAR_BIT(tmpccmr1, TIM_CCMR1_CC1S);
 8004820:	68fb      	ldr	r3, [r7, #12]
 8004822:	f023 0303 	bic.w	r3, r3, #3
 8004826:	60fb      	str	r3, [r7, #12]

  /* Set the Output Compare Mode */
  MODIFY_REG(tmpccmr1, TIM_CCMR1_OC1M, TIM_OCInitStruct->OCMode);
 8004828:	68fb      	ldr	r3, [r7, #12]
 800482a:	f023 0270 	bic.w	r2, r3, #112	@ 0x70
 800482e:	683b      	ldr	r3, [r7, #0]
 8004830:	681b      	ldr	r3, [r3, #0]
 8004832:	4313      	orrs	r3, r2
 8004834:	60fb      	str	r3, [r7, #12]

  /* Set the Output Compare Polarity */
  MODIFY_REG(tmpccer, TIM_CCER_CC1P, TIM_OCInitStruct->OCPolarity);
 8004836:	697b      	ldr	r3, [r7, #20]
 8004838:	f023 0202 	bic.w	r2, r3, #2
 800483c:	683b      	ldr	r3, [r7, #0]
 800483e:	691b      	ldr	r3, [r3, #16]
 8004840:	4313      	orrs	r3, r2
 8004842:	617b      	str	r3, [r7, #20]

  /* Set the Output State */
  MODIFY_REG(tmpccer, TIM_CCER_CC1E, TIM_OCInitStruct->OCState);
 8004844:	697b      	ldr	r3, [r7, #20]
 8004846:	f023 0201 	bic.w	r2, r3, #1
 800484a:	683b      	ldr	r3, [r7, #0]
 800484c:	685b      	ldr	r3, [r3, #4]
 800484e:	4313      	orrs	r3, r2
 8004850:	617b      	str	r3, [r7, #20]

  if (IS_TIM_BREAK_INSTANCE(TIMx))
 8004852:	687b      	ldr	r3, [r7, #4]
 8004854:	4a1a      	ldr	r2, [pc, #104]	@ (80048c0 <OC1Config+0xc8>)
 8004856:	4293      	cmp	r3, r2
 8004858:	d11e      	bne.n	8004898 <OC1Config+0xa0>
    assert_param(IS_LL_TIM_OCSTATE(TIM_OCInitStruct->OCNState));
    assert_param(IS_LL_TIM_OCPOLARITY(TIM_OCInitStruct->OCNPolarity));
    assert_param(IS_LL_TIM_OCIDLESTATE(TIM_OCInitStruct->OCNIdleState));

    /* Set the complementary output Polarity */
    MODIFY_REG(tmpccer, TIM_CCER_CC1NP, TIM_OCInitStruct->OCNPolarity << 2U);
 800485a:	697b      	ldr	r3, [r7, #20]
 800485c:	f023 0208 	bic.w	r2, r3, #8
 8004860:	683b      	ldr	r3, [r7, #0]
 8004862:	695b      	ldr	r3, [r3, #20]
 8004864:	009b      	lsls	r3, r3, #2
 8004866:	4313      	orrs	r3, r2
 8004868:	617b      	str	r3, [r7, #20]

    /* Set the complementary output State */
    MODIFY_REG(tmpccer, TIM_CCER_CC1NE, TIM_OCInitStruct->OCNState << 2U);
 800486a:	697b      	ldr	r3, [r7, #20]
 800486c:	f023 0204 	bic.w	r2, r3, #4
 8004870:	683b      	ldr	r3, [r7, #0]
 8004872:	689b      	ldr	r3, [r3, #8]
 8004874:	009b      	lsls	r3, r3, #2
 8004876:	4313      	orrs	r3, r2
 8004878:	617b      	str	r3, [r7, #20]

    /* Set the Output Idle state */
    MODIFY_REG(tmpcr2, TIM_CR2_OIS1, TIM_OCInitStruct->OCIdleState);
 800487a:	693b      	ldr	r3, [r7, #16]
 800487c:	f423 7280 	bic.w	r2, r3, #256	@ 0x100
 8004880:	683b      	ldr	r3, [r7, #0]
 8004882:	699b      	ldr	r3, [r3, #24]
 8004884:	4313      	orrs	r3, r2
 8004886:	613b      	str	r3, [r7, #16]

    /* Set the complementary output Idle state */
    MODIFY_REG(tmpcr2, TIM_CR2_OIS1N, TIM_OCInitStruct->OCNIdleState << 1U);
 8004888:	693b      	ldr	r3, [r7, #16]
 800488a:	f423 7200 	bic.w	r2, r3, #512	@ 0x200
 800488e:	683b      	ldr	r3, [r7, #0]
 8004890:	69db      	ldr	r3, [r3, #28]
 8004892:	005b      	lsls	r3, r3, #1
 8004894:	4313      	orrs	r3, r2
 8004896:	613b      	str	r3, [r7, #16]
  }

  /* Write to TIMx CR2 */
  LL_TIM_WriteReg(TIMx, CR2, tmpcr2);
 8004898:	687b      	ldr	r3, [r7, #4]
 800489a:	693a      	ldr	r2, [r7, #16]
 800489c:	605a      	str	r2, [r3, #4]

  /* Write to TIMx CCMR1 */
  LL_TIM_WriteReg(TIMx, CCMR1, tmpccmr1);
 800489e:	687b      	ldr	r3, [r7, #4]
 80048a0:	68fa      	ldr	r2, [r7, #12]
 80048a2:	619a      	str	r2, [r3, #24]

  /* Set the Capture Compare Register value */
  LL_TIM_OC_SetCompareCH1(TIMx, TIM_OCInitStruct->CompareValue);
 80048a4:	683b      	ldr	r3, [r7, #0]
 80048a6:	68db      	ldr	r3, [r3, #12]
 80048a8:	4619      	mov	r1, r3
 80048aa:	6878      	ldr	r0, [r7, #4]
 80048ac:	f7ff feb7 	bl	800461e <LL_TIM_OC_SetCompareCH1>

  /* Write to TIMx CCER */
  LL_TIM_WriteReg(TIMx, CCER, tmpccer);
 80048b0:	687b      	ldr	r3, [r7, #4]
 80048b2:	697a      	ldr	r2, [r7, #20]
 80048b4:	621a      	str	r2, [r3, #32]

  return SUCCESS;
 80048b6:	2300      	movs	r3, #0
}
 80048b8:	4618      	mov	r0, r3
 80048ba:	3718      	adds	r7, #24
 80048bc:	46bd      	mov	sp, r7
 80048be:	bd80      	pop	{r7, pc}
 80048c0:	40012c00 	.word	0x40012c00

080048c4 <OC2Config>:
  * @retval An ErrorStatus enumeration value:
  *          - SUCCESS: TIMx registers are de-initialized
  *          - ERROR: not applicable
  */
static ErrorStatus OC2Config(TIM_TypeDef *TIMx, const LL_TIM_OC_InitTypeDef *TIM_OCInitStruct)
{
 80048c4:	b580      	push	{r7, lr}
 80048c6:	b086      	sub	sp, #24
 80048c8:	af00      	add	r7, sp, #0
 80048ca:	6078      	str	r0, [r7, #4]
 80048cc:	6039      	str	r1, [r7, #0]
  assert_param(IS_LL_TIM_OCMODE(TIM_OCInitStruct->OCMode));
  assert_param(IS_LL_TIM_OCSTATE(TIM_OCInitStruct->OCState));
  assert_param(IS_LL_TIM_OCPOLARITY(TIM_OCInitStruct->OCPolarity));

  /* Disable the Channel 2: Reset the CC2E Bit */
  CLEAR_BIT(TIMx->CCER, TIM_CCER_CC2E);
 80048ce:	687b      	ldr	r3, [r7, #4]
 80048d0:	6a1b      	ldr	r3, [r3, #32]
 80048d2:	f023 0210 	bic.w	r2, r3, #16
 80048d6:	687b      	ldr	r3, [r7, #4]
 80048d8:	621a      	str	r2, [r3, #32]

  /* Get the TIMx CCER register value */
  tmpccer =  LL_TIM_ReadReg(TIMx, CCER);
 80048da:	687b      	ldr	r3, [r7, #4]
 80048dc:	6a1b      	ldr	r3, [r3, #32]
 80048de:	617b      	str	r3, [r7, #20]

  /* Get the TIMx CR2 register value */
  tmpcr2 = LL_TIM_ReadReg(TIMx, CR2);
 80048e0:	687b      	ldr	r3, [r7, #4]
 80048e2:	685b      	ldr	r3, [r3, #4]
 80048e4:	613b      	str	r3, [r7, #16]

  /* Get the TIMx CCMR1 register value */
  tmpccmr1 = LL_TIM_ReadReg(TIMx, CCMR1);
 80048e6:	687b      	ldr	r3, [r7, #4]
 80048e8:	699b      	ldr	r3, [r3, #24]
 80048ea:	60fb      	str	r3, [r7, #12]

  /* Reset Capture/Compare selection Bits */
  CLEAR_BIT(tmpccmr1, TIM_CCMR1_CC2S);
 80048ec:	68fb      	ldr	r3, [r7, #12]
 80048ee:	f423 7340 	bic.w	r3, r3, #768	@ 0x300
 80048f2:	60fb      	str	r3, [r7, #12]

  /* Select the Output Compare Mode */
  MODIFY_REG(tmpccmr1, TIM_CCMR1_OC2M, TIM_OCInitStruct->OCMode << 8U);
 80048f4:	68fb      	ldr	r3, [r7, #12]
 80048f6:	f423 42e0 	bic.w	r2, r3, #28672	@ 0x7000
 80048fa:	683b      	ldr	r3, [r7, #0]
 80048fc:	681b      	ldr	r3, [r3, #0]
 80048fe:	021b      	lsls	r3, r3, #8
 8004900:	4313      	orrs	r3, r2
 8004902:	60fb      	str	r3, [r7, #12]

  /* Set the Output Compare Polarity */
  MODIFY_REG(tmpccer, TIM_CCER_CC2P, TIM_OCInitStruct->OCPolarity << 4U);
 8004904:	697b      	ldr	r3, [r7, #20]
 8004906:	f023 0220 	bic.w	r2, r3, #32
 800490a:	683b      	ldr	r3, [r7, #0]
 800490c:	691b      	ldr	r3, [r3, #16]
 800490e:	011b      	lsls	r3, r3, #4
 8004910:	4313      	orrs	r3, r2
 8004912:	617b      	str	r3, [r7, #20]

  /* Set the Output State */
  MODIFY_REG(tmpccer, TIM_CCER_CC2E, TIM_OCInitStruct->OCState << 4U);
 8004914:	697b      	ldr	r3, [r7, #20]
 8004916:	f023 0210 	bic.w	r2, r3, #16
 800491a:	683b      	ldr	r3, [r7, #0]
 800491c:	685b      	ldr	r3, [r3, #4]
 800491e:	011b      	lsls	r3, r3, #4
 8004920:	4313      	orrs	r3, r2
 8004922:	617b      	str	r3, [r7, #20]

  if (IS_TIM_BREAK_INSTANCE(TIMx))
 8004924:	687b      	ldr	r3, [r7, #4]
 8004926:	4a1b      	ldr	r2, [pc, #108]	@ (8004994 <OC2Config+0xd0>)
 8004928:	4293      	cmp	r3, r2
 800492a:	d11f      	bne.n	800496c <OC2Config+0xa8>
    assert_param(IS_LL_TIM_OCSTATE(TIM_OCInitStruct->OCNState));
    assert_param(IS_LL_TIM_OCPOLARITY(TIM_OCInitStruct->OCNPolarity));
    assert_param(IS_LL_TIM_OCIDLESTATE(TIM_OCInitStruct->OCNIdleState));

    /* Set the complementary output Polarity */
    MODIFY_REG(tmpccer, TIM_CCER_CC2NP, TIM_OCInitStruct->OCNPolarity << 6U);
 800492c:	697b      	ldr	r3, [r7, #20]
 800492e:	f023 0280 	bic.w	r2, r3, #128	@ 0x80
 8004932:	683b      	ldr	r3, [r7, #0]
 8004934:	695b      	ldr	r3, [r3, #20]
 8004936:	019b      	lsls	r3, r3, #6
 8004938:	4313      	orrs	r3, r2
 800493a:	617b      	str	r3, [r7, #20]

    /* Set the complementary output State */
    MODIFY_REG(tmpccer, TIM_CCER_CC2NE, TIM_OCInitStruct->OCNState << 6U);
 800493c:	697b      	ldr	r3, [r7, #20]
 800493e:	f023 0240 	bic.w	r2, r3, #64	@ 0x40
 8004942:	683b      	ldr	r3, [r7, #0]
 8004944:	689b      	ldr	r3, [r3, #8]
 8004946:	019b      	lsls	r3, r3, #6
 8004948:	4313      	orrs	r3, r2
 800494a:	617b      	str	r3, [r7, #20]

    /* Set the Output Idle state */
    MODIFY_REG(tmpcr2, TIM_CR2_OIS2, TIM_OCInitStruct->OCIdleState << 2U);
 800494c:	693b      	ldr	r3, [r7, #16]
 800494e:	f423 6280 	bic.w	r2, r3, #1024	@ 0x400
 8004952:	683b      	ldr	r3, [r7, #0]
 8004954:	699b      	ldr	r3, [r3, #24]
 8004956:	009b      	lsls	r3, r3, #2
 8004958:	4313      	orrs	r3, r2
 800495a:	613b      	str	r3, [r7, #16]

    /* Set the complementary output Idle state */
    MODIFY_REG(tmpcr2, TIM_CR2_OIS2N, TIM_OCInitStruct->OCNIdleState << 3U);
 800495c:	693b      	ldr	r3, [r7, #16]
 800495e:	f423 6200 	bic.w	r2, r3, #2048	@ 0x800
 8004962:	683b      	ldr	r3, [r7, #0]
 8004964:	69db      	ldr	r3, [r3, #28]
 8004966:	00db      	lsls	r3, r3, #3
 8004968:	4313      	orrs	r3, r2
 800496a:	613b      	str	r3, [r7, #16]
  }

  /* Write to TIMx CR2 */
  LL_TIM_WriteReg(TIMx, CR2, tmpcr2);
 800496c:	687b      	ldr	r3, [r7, #4]
 800496e:	693a      	ldr	r2, [r7, #16]
 8004970:	605a      	str	r2, [r3, #4]

  /* Write to TIMx CCMR1 */
  LL_TIM_WriteReg(TIMx, CCMR1, tmpccmr1);
 8004972:	687b      	ldr	r3, [r7, #4]
 8004974:	68fa      	ldr	r2, [r7, #12]
 8004976:	619a      	str	r2, [r3, #24]

  /* Set the Capture Compare Register value */
  LL_TIM_OC_SetCompareCH2(TIMx, TIM_OCInitStruct->CompareValue);
 8004978:	683b      	ldr	r3, [r7, #0]
 800497a:	68db      	ldr	r3, [r3, #12]
 800497c:	4619      	mov	r1, r3
 800497e:	6878      	ldr	r0, [r7, #4]
 8004980:	f7ff fe5a 	bl	8004638 <LL_TIM_OC_SetCompareCH2>

  /* Write to TIMx CCER */
  LL_TIM_WriteReg(TIMx, CCER, tmpccer);
 8004984:	687b      	ldr	r3, [r7, #4]
 8004986:	697a      	ldr	r2, [r7, #20]
 8004988:	621a      	str	r2, [r3, #32]

  return SUCCESS;
 800498a:	2300      	movs	r3, #0
}
 800498c:	4618      	mov	r0, r3
 800498e:	3718      	adds	r7, #24
 8004990:	46bd      	mov	sp, r7
 8004992:	bd80      	pop	{r7, pc}
 8004994:	40012c00 	.word	0x40012c00

08004998 <OC3Config>:
  * @retval An ErrorStatus enumeration value:
  *          - SUCCESS: TIMx registers are de-initialized
  *          - ERROR: not applicable
  */
static ErrorStatus OC3Config(TIM_TypeDef *TIMx, const LL_TIM_OC_InitTypeDef *TIM_OCInitStruct)
{
 8004998:	b580      	push	{r7, lr}
 800499a:	b086      	sub	sp, #24
 800499c:	af00      	add	r7, sp, #0
 800499e:	6078      	str	r0, [r7, #4]
 80049a0:	6039      	str	r1, [r7, #0]
  assert_param(IS_LL_TIM_OCMODE(TIM_OCInitStruct->OCMode));
  assert_param(IS_LL_TIM_OCSTATE(TIM_OCInitStruct->OCState));
  assert_param(IS_LL_TIM_OCPOLARITY(TIM_OCInitStruct->OCPolarity));

  /* Disable the Channel 3: Reset the CC3E Bit */
  CLEAR_BIT(TIMx->CCER, TIM_CCER_CC3E);
 80049a2:	687b      	ldr	r3, [r7, #4]
 80049a4:	6a1b      	ldr	r3, [r3, #32]
 80049a6:	f423 7280 	bic.w	r2, r3, #256	@ 0x100
 80049aa:	687b      	ldr	r3, [r7, #4]
 80049ac:	621a      	str	r2, [r3, #32]

  /* Get the TIMx CCER register value */
  tmpccer =  LL_TIM_ReadReg(TIMx, CCER);
 80049ae:	687b      	ldr	r3, [r7, #4]
 80049b0:	6a1b      	ldr	r3, [r3, #32]
 80049b2:	617b      	str	r3, [r7, #20]

  /* Get the TIMx CR2 register value */
  tmpcr2 = LL_TIM_ReadReg(TIMx, CR2);
 80049b4:	687b      	ldr	r3, [r7, #4]
 80049b6:	685b      	ldr	r3, [r3, #4]
 80049b8:	613b      	str	r3, [r7, #16]

  /* Get the TIMx CCMR2 register value */
  tmpccmr2 = LL_TIM_ReadReg(TIMx, CCMR2);
 80049ba:	687b      	ldr	r3, [r7, #4]
 80049bc:	69db      	ldr	r3, [r3, #28]
 80049be:	60fb      	str	r3, [r7, #12]

  /* Reset Capture/Compare selection Bits */
  CLEAR_BIT(tmpccmr2, TIM_CCMR2_CC3S);
 80049c0:	68fb      	ldr	r3, [r7, #12]
 80049c2:	f023 0303 	bic.w	r3, r3, #3
 80049c6:	60fb      	str	r3, [r7, #12]

  /* Select the Output Compare Mode */
  MODIFY_REG(tmpccmr2, TIM_CCMR2_OC3M, TIM_OCInitStruct->OCMode);
 80049c8:	68fb      	ldr	r3, [r7, #12]
 80049ca:	f023 0270 	bic.w	r2, r3, #112	@ 0x70
 80049ce:	683b      	ldr	r3, [r7, #0]
 80049d0:	681b      	ldr	r3, [r3, #0]
 80049d2:	4313      	orrs	r3, r2
 80049d4:	60fb      	str	r3, [r7, #12]

  /* Set the Output Compare Polarity */
  MODIFY_REG(tmpccer, TIM_CCER_CC3P, TIM_OCInitStruct->OCPolarity << 8U);
 80049d6:	697b      	ldr	r3, [r7, #20]
 80049d8:	f423 7200 	bic.w	r2, r3, #512	@ 0x200
 80049dc:	683b      	ldr	r3, [r7, #0]
 80049de:	691b      	ldr	r3, [r3, #16]
 80049e0:	021b      	lsls	r3, r3, #8
 80049e2:	4313      	orrs	r3, r2
 80049e4:	617b      	str	r3, [r7, #20]

  /* Set the Output State */
  MODIFY_REG(tmpccer, TIM_CCER_CC3E, TIM_OCInitStruct->OCState << 8U);
 80049e6:	697b      	ldr	r3, [r7, #20]
 80049e8:	f423 7280 	bic.w	r2, r3, #256	@ 0x100
 80049ec:	683b      	ldr	r3, [r7, #0]
 80049ee:	685b      	ldr	r3, [r3, #4]
 80049f0:	021b      	lsls	r3, r3, #8
 80049f2:	4313      	orrs	r3, r2
 80049f4:	617b      	str	r3, [r7, #20]

  if (IS_TIM_BREAK_INSTANCE(TIMx))
 80049f6:	687b      	ldr	r3, [r7, #4]
 80049f8:	4a1b      	ldr	r2, [pc, #108]	@ (8004a68 <OC3Config+0xd0>)
 80049fa:	4293      	cmp	r3, r2
 80049fc:	d11f      	bne.n	8004a3e <OC3Config+0xa6>
    assert_param(IS_LL_TIM_OCSTATE(TIM_OCInitStruct->OCNState));
    assert_param(IS_LL_TIM_OCPOLARITY(TIM_OCInitStruct->OCNPolarity));
    assert_param(IS_LL_TIM_OCIDLESTATE(TIM_OCInitStruct->OCNIdleState));

    /* Set the complementary output Polarity */
    MODIFY_REG(tmpccer, TIM_CCER_CC3NP, TIM_OCInitStruct->OCNPolarity << 10U);
 80049fe:	697b      	ldr	r3, [r7, #20]
 8004a00:	f423 6200 	bic.w	r2, r3, #2048	@ 0x800
 8004a04:	683b      	ldr	r3, [r7, #0]
 8004a06:	695b      	ldr	r3, [r3, #20]
 8004a08:	029b      	lsls	r3, r3, #10
 8004a0a:	4313      	orrs	r3, r2
 8004a0c:	617b      	str	r3, [r7, #20]

    /* Set the complementary output State */
    MODIFY_REG(tmpccer, TIM_CCER_CC3NE, TIM_OCInitStruct->OCNState << 10U);
 8004a0e:	697b      	ldr	r3, [r7, #20]
 8004a10:	f423 6280 	bic.w	r2, r3, #1024	@ 0x400
 8004a14:	683b      	ldr	r3, [r7, #0]
 8004a16:	689b      	ldr	r3, [r3, #8]
 8004a18:	029b      	lsls	r3, r3, #10
 8004a1a:	4313      	orrs	r3, r2
 8004a1c:	617b      	str	r3, [r7, #20]

    /* Set the Output Idle state */
    MODIFY_REG(tmpcr2, TIM_CR2_OIS3, TIM_OCInitStruct->OCIdleState << 4U);
 8004a1e:	693b      	ldr	r3, [r7, #16]
 8004a20:	f423 5280 	bic.w	r2, r3, #4096	@ 0x1000
 8004a24:	683b      	ldr	r3, [r7, #0]
 8004a26:	699b      	ldr	r3, [r3, #24]
 8004a28:	011b      	lsls	r3, r3, #4
 8004a2a:	4313      	orrs	r3, r2
 8004a2c:	613b      	str	r3, [r7, #16]

    /* Set the complementary output Idle state */
    MODIFY_REG(tmpcr2, TIM_CR2_OIS3N, TIM_OCInitStruct->OCNIdleState << 5U);
 8004a2e:	693b      	ldr	r3, [r7, #16]
 8004a30:	f423 5200 	bic.w	r2, r3, #8192	@ 0x2000
 8004a34:	683b      	ldr	r3, [r7, #0]
 8004a36:	69db      	ldr	r3, [r3, #28]
 8004a38:	015b      	lsls	r3, r3, #5
 8004a3a:	4313      	orrs	r3, r2
 8004a3c:	613b      	str	r3, [r7, #16]
  }

  /* Write to TIMx CR2 */
  LL_TIM_WriteReg(TIMx, CR2, tmpcr2);
 8004a3e:	687b      	ldr	r3, [r7, #4]
 8004a40:	693a      	ldr	r2, [r7, #16]
 8004a42:	605a      	str	r2, [r3, #4]

  /* Write to TIMx CCMR2 */
  LL_TIM_WriteReg(TIMx, CCMR2, tmpccmr2);
 8004a44:	687b      	ldr	r3, [r7, #4]
 8004a46:	68fa      	ldr	r2, [r7, #12]
 8004a48:	61da      	str	r2, [r3, #28]

  /* Set the Capture Compare Register value */
  LL_TIM_OC_SetCompareCH3(TIMx, TIM_OCInitStruct->CompareValue);
 8004a4a:	683b      	ldr	r3, [r7, #0]
 8004a4c:	68db      	ldr	r3, [r3, #12]
 8004a4e:	4619      	mov	r1, r3
 8004a50:	6878      	ldr	r0, [r7, #4]
 8004a52:	f7ff fdfe 	bl	8004652 <LL_TIM_OC_SetCompareCH3>

  /* Write to TIMx CCER */
  LL_TIM_WriteReg(TIMx, CCER, tmpccer);
 8004a56:	687b      	ldr	r3, [r7, #4]
 8004a58:	697a      	ldr	r2, [r7, #20]
 8004a5a:	621a      	str	r2, [r3, #32]

  return SUCCESS;
 8004a5c:	2300      	movs	r3, #0
}
 8004a5e:	4618      	mov	r0, r3
 8004a60:	3718      	adds	r7, #24
 8004a62:	46bd      	mov	sp, r7
 8004a64:	bd80      	pop	{r7, pc}
 8004a66:	bf00      	nop
 8004a68:	40012c00 	.word	0x40012c00

08004a6c <OC4Config>:
  * @retval An ErrorStatus enumeration value:
  *          - SUCCESS: TIMx registers are de-initialized
  *          - ERROR: not applicable
  */
static ErrorStatus OC4Config(TIM_TypeDef *TIMx, const LL_TIM_OC_InitTypeDef *TIM_OCInitStruct)
{
 8004a6c:	b580      	push	{r7, lr}
 8004a6e:	b086      	sub	sp, #24
 8004a70:	af00      	add	r7, sp, #0
 8004a72:	6078      	str	r0, [r7, #4]
 8004a74:	6039      	str	r1, [r7, #0]
  assert_param(IS_LL_TIM_OCMODE(TIM_OCInitStruct->OCMode));
  assert_param(IS_LL_TIM_OCSTATE(TIM_OCInitStruct->OCState));
  assert_param(IS_LL_TIM_OCPOLARITY(TIM_OCInitStruct->OCPolarity));

  /* Disable the Channel 4: Reset the CC4E Bit */
  CLEAR_BIT(TIMx->CCER, TIM_CCER_CC4E);
 8004a76:	687b      	ldr	r3, [r7, #4]
 8004a78:	6a1b      	ldr	r3, [r3, #32]
 8004a7a:	f423 5280 	bic.w	r2, r3, #4096	@ 0x1000
 8004a7e:	687b      	ldr	r3, [r7, #4]
 8004a80:	621a      	str	r2, [r3, #32]

  /* Get the TIMx CCER register value */
  tmpccer = LL_TIM_ReadReg(TIMx, CCER);
 8004a82:	687b      	ldr	r3, [r7, #4]
 8004a84:	6a1b      	ldr	r3, [r3, #32]
 8004a86:	613b      	str	r3, [r7, #16]

  /* Get the TIMx CR2 register value */
  tmpcr2 =  LL_TIM_ReadReg(TIMx, CR2);
 8004a88:	687b      	ldr	r3, [r7, #4]
 8004a8a:	685b      	ldr	r3, [r3, #4]
 8004a8c:	617b      	str	r3, [r7, #20]

  /* Get the TIMx CCMR2 register value */
  tmpccmr2 = LL_TIM_ReadReg(TIMx, CCMR2);
 8004a8e:	687b      	ldr	r3, [r7, #4]
 8004a90:	69db      	ldr	r3, [r3, #28]
 8004a92:	60fb      	str	r3, [r7, #12]

  /* Reset Capture/Compare selection Bits */
  CLEAR_BIT(tmpccmr2, TIM_CCMR2_CC4S);
 8004a94:	68fb      	ldr	r3, [r7, #12]
 8004a96:	f423 7340 	bic.w	r3, r3, #768	@ 0x300
 8004a9a:	60fb      	str	r3, [r7, #12]

  /* Select the Output Compare Mode */
  MODIFY_REG(tmpccmr2, TIM_CCMR2_OC4M, TIM_OCInitStruct->OCMode << 8U);
 8004a9c:	68fb      	ldr	r3, [r7, #12]
 8004a9e:	f423 42e0 	bic.w	r2, r3, #28672	@ 0x7000
 8004aa2:	683b      	ldr	r3, [r7, #0]
 8004aa4:	681b      	ldr	r3, [r3, #0]
 8004aa6:	021b      	lsls	r3, r3, #8
 8004aa8:	4313      	orrs	r3, r2
 8004aaa:	60fb      	str	r3, [r7, #12]

  /* Set the Output Compare Polarity */
  MODIFY_REG(tmpccer, TIM_CCER_CC4P, TIM_OCInitStruct->OCPolarity << 12U);
 8004aac:	693b      	ldr	r3, [r7, #16]
 8004aae:	f423 5200 	bic.w	r2, r3, #8192	@ 0x2000
 8004ab2:	683b      	ldr	r3, [r7, #0]
 8004ab4:	691b      	ldr	r3, [r3, #16]
 8004ab6:	031b      	lsls	r3, r3, #12
 8004ab8:	4313      	orrs	r3, r2
 8004aba:	613b      	str	r3, [r7, #16]

  /* Set the Output State */
  MODIFY_REG(tmpccer, TIM_CCER_CC4E, TIM_OCInitStruct->OCState << 12U);
 8004abc:	693b      	ldr	r3, [r7, #16]
 8004abe:	f423 5280 	bic.w	r2, r3, #4096	@ 0x1000
 8004ac2:	683b      	ldr	r3, [r7, #0]
 8004ac4:	685b      	ldr	r3, [r3, #4]
 8004ac6:	031b      	lsls	r3, r3, #12
 8004ac8:	4313      	orrs	r3, r2
 8004aca:	613b      	str	r3, [r7, #16]

  if (IS_TIM_BREAK_INSTANCE(TIMx))
 8004acc:	687b      	ldr	r3, [r7, #4]
 8004ace:	4a0f      	ldr	r2, [pc, #60]	@ (8004b0c <OC4Config+0xa0>)
 8004ad0:	4293      	cmp	r3, r2
 8004ad2:	d107      	bne.n	8004ae4 <OC4Config+0x78>
  {
    assert_param(IS_LL_TIM_OCIDLESTATE(TIM_OCInitStruct->OCIdleState));

    /* Set the Output Idle state */
    MODIFY_REG(tmpcr2, TIM_CR2_OIS4, TIM_OCInitStruct->OCIdleState << 6U);
 8004ad4:	697b      	ldr	r3, [r7, #20]
 8004ad6:	f423 4280 	bic.w	r2, r3, #16384	@ 0x4000
 8004ada:	683b      	ldr	r3, [r7, #0]
 8004adc:	699b      	ldr	r3, [r3, #24]
 8004ade:	019b      	lsls	r3, r3, #6
 8004ae0:	4313      	orrs	r3, r2
 8004ae2:	617b      	str	r3, [r7, #20]
  }

  /* Write to TIMx CR2 */
  LL_TIM_WriteReg(TIMx, CR2, tmpcr2);
 8004ae4:	687b      	ldr	r3, [r7, #4]
 8004ae6:	697a      	ldr	r2, [r7, #20]
 8004ae8:	605a      	str	r2, [r3, #4]

  /* Write to TIMx CCMR2 */
  LL_TIM_WriteReg(TIMx, CCMR2, tmpccmr2);
 8004aea:	687b      	ldr	r3, [r7, #4]
 8004aec:	68fa      	ldr	r2, [r7, #12]
 8004aee:	61da      	str	r2, [r3, #28]

  /* Set the Capture Compare Register value */
  LL_TIM_OC_SetCompareCH4(TIMx, TIM_OCInitStruct->CompareValue);
 8004af0:	683b      	ldr	r3, [r7, #0]
 8004af2:	68db      	ldr	r3, [r3, #12]
 8004af4:	4619      	mov	r1, r3
 8004af6:	6878      	ldr	r0, [r7, #4]
 8004af8:	f7ff fdb8 	bl	800466c <LL_TIM_OC_SetCompareCH4>

  /* Write to TIMx CCER */
  LL_TIM_WriteReg(TIMx, CCER, tmpccer);
 8004afc:	687b      	ldr	r3, [r7, #4]
 8004afe:	693a      	ldr	r2, [r7, #16]
 8004b00:	621a      	str	r2, [r3, #32]

  return SUCCESS;
 8004b02:	2300      	movs	r3, #0
}
 8004b04:	4618      	mov	r0, r3
 8004b06:	3718      	adds	r7, #24
 8004b08:	46bd      	mov	sp, r7
 8004b0a:	bd80      	pop	{r7, pc}
 8004b0c:	40012c00 	.word	0x40012c00

08004b10 <LL_USART_IsEnabled>:
{
 8004b10:	b480      	push	{r7}
 8004b12:	b083      	sub	sp, #12
 8004b14:	af00      	add	r7, sp, #0
 8004b16:	6078      	str	r0, [r7, #4]
  return (READ_BIT(USARTx->CR1, USART_CR1_UE) == (USART_CR1_UE));
 8004b18:	687b      	ldr	r3, [r7, #4]
 8004b1a:	68db      	ldr	r3, [r3, #12]
 8004b1c:	f403 5300 	and.w	r3, r3, #8192	@ 0x2000
 8004b20:	f5b3 5f00 	cmp.w	r3, #8192	@ 0x2000
 8004b24:	bf0c      	ite	eq
 8004b26:	2301      	moveq	r3, #1
 8004b28:	2300      	movne	r3, #0
 8004b2a:	b2db      	uxtb	r3, r3
}
 8004b2c:	4618      	mov	r0, r3
 8004b2e:	370c      	adds	r7, #12
 8004b30:	46bd      	mov	sp, r7
 8004b32:	bc80      	pop	{r7}
 8004b34:	4770      	bx	lr

08004b36 <LL_USART_SetStopBitsLength>:
{
 8004b36:	b480      	push	{r7}
 8004b38:	b083      	sub	sp, #12
 8004b3a:	af00      	add	r7, sp, #0
 8004b3c:	6078      	str	r0, [r7, #4]
 8004b3e:	6039      	str	r1, [r7, #0]
  MODIFY_REG(USARTx->CR2, USART_CR2_STOP, StopBits);
 8004b40:	687b      	ldr	r3, [r7, #4]
 8004b42:	691b      	ldr	r3, [r3, #16]
 8004b44:	f423 5240 	bic.w	r2, r3, #12288	@ 0x3000
 8004b48:	683b      	ldr	r3, [r7, #0]
 8004b4a:	431a      	orrs	r2, r3
 8004b4c:	687b      	ldr	r3, [r7, #4]
 8004b4e:	611a      	str	r2, [r3, #16]
}
 8004b50:	bf00      	nop
 8004b52:	370c      	adds	r7, #12
 8004b54:	46bd      	mov	sp, r7
 8004b56:	bc80      	pop	{r7}
 8004b58:	4770      	bx	lr

08004b5a <LL_USART_SetHWFlowCtrl>:
{
 8004b5a:	b480      	push	{r7}
 8004b5c:	b083      	sub	sp, #12
 8004b5e:	af00      	add	r7, sp, #0
 8004b60:	6078      	str	r0, [r7, #4]
 8004b62:	6039      	str	r1, [r7, #0]
  MODIFY_REG(USARTx->CR3, USART_CR3_RTSE | USART_CR3_CTSE, HardwareFlowControl);
 8004b64:	687b      	ldr	r3, [r7, #4]
 8004b66:	695b      	ldr	r3, [r3, #20]
 8004b68:	f423 7240 	bic.w	r2, r3, #768	@ 0x300
 8004b6c:	683b      	ldr	r3, [r7, #0]
 8004b6e:	431a      	orrs	r2, r3
 8004b70:	687b      	ldr	r3, [r7, #4]
 8004b72:	615a      	str	r2, [r3, #20]
}
 8004b74:	bf00      	nop
 8004b76:	370c      	adds	r7, #12
 8004b78:	46bd      	mov	sp, r7
 8004b7a:	bc80      	pop	{r7}
 8004b7c:	4770      	bx	lr
	...

08004b80 <LL_USART_SetBaudRate>:
{
 8004b80:	b480      	push	{r7}
 8004b82:	b085      	sub	sp, #20
 8004b84:	af00      	add	r7, sp, #0
 8004b86:	60f8      	str	r0, [r7, #12]
 8004b88:	60b9      	str	r1, [r7, #8]
 8004b8a:	607a      	str	r2, [r7, #4]
  USARTx->BRR = (uint16_t)(__LL_USART_DIV_SAMPLING16(PeriphClk, BaudRate));
 8004b8c:	68ba      	ldr	r2, [r7, #8]
 8004b8e:	4613      	mov	r3, r2
 8004b90:	009b      	lsls	r3, r3, #2
 8004b92:	4413      	add	r3, r2
 8004b94:	009a      	lsls	r2, r3, #2
 8004b96:	441a      	add	r2, r3
 8004b98:	687b      	ldr	r3, [r7, #4]
 8004b9a:	009b      	lsls	r3, r3, #2
 8004b9c:	fbb2 f3f3 	udiv	r3, r2, r3
 8004ba0:	4a25      	ldr	r2, [pc, #148]	@ (8004c38 <LL_USART_SetBaudRate+0xb8>)
 8004ba2:	fba2 2303 	umull	r2, r3, r2, r3
 8004ba6:	095b      	lsrs	r3, r3, #5
 8004ba8:	b29b      	uxth	r3, r3
 8004baa:	011b      	lsls	r3, r3, #4
 8004bac:	b299      	uxth	r1, r3
 8004bae:	68ba      	ldr	r2, [r7, #8]
 8004bb0:	4613      	mov	r3, r2
 8004bb2:	009b      	lsls	r3, r3, #2
 8004bb4:	4413      	add	r3, r2
 8004bb6:	009a      	lsls	r2, r3, #2
 8004bb8:	441a      	add	r2, r3
 8004bba:	687b      	ldr	r3, [r7, #4]
 8004bbc:	009b      	lsls	r3, r3, #2
 8004bbe:	fbb2 f2f3 	udiv	r2, r2, r3
 8004bc2:	4b1d      	ldr	r3, [pc, #116]	@ (8004c38 <LL_USART_SetBaudRate+0xb8>)
 8004bc4:	fba3 0302 	umull	r0, r3, r3, r2
 8004bc8:	095b      	lsrs	r3, r3, #5
 8004bca:	2064      	movs	r0, #100	@ 0x64
 8004bcc:	fb00 f303 	mul.w	r3, r0, r3
 8004bd0:	1ad3      	subs	r3, r2, r3
 8004bd2:	011b      	lsls	r3, r3, #4
 8004bd4:	3332      	adds	r3, #50	@ 0x32
 8004bd6:	4a18      	ldr	r2, [pc, #96]	@ (8004c38 <LL_USART_SetBaudRate+0xb8>)
 8004bd8:	fba2 2303 	umull	r2, r3, r2, r3
 8004bdc:	095b      	lsrs	r3, r3, #5
 8004bde:	b29b      	uxth	r3, r3
 8004be0:	f003 03f0 	and.w	r3, r3, #240	@ 0xf0
 8004be4:	b29b      	uxth	r3, r3
 8004be6:	440b      	add	r3, r1
 8004be8:	b299      	uxth	r1, r3
 8004bea:	68ba      	ldr	r2, [r7, #8]
 8004bec:	4613      	mov	r3, r2
 8004bee:	009b      	lsls	r3, r3, #2
 8004bf0:	4413      	add	r3, r2
 8004bf2:	009a      	lsls	r2, r3, #2
 8004bf4:	441a      	add	r2, r3
 8004bf6:	687b      	ldr	r3, [r7, #4]
 8004bf8:	009b      	lsls	r3, r3, #2
 8004bfa:	fbb2 f2f3 	udiv	r2, r2, r3
 8004bfe:	4b0e      	ldr	r3, [pc, #56]	@ (8004c38 <LL_USART_SetBaudRate+0xb8>)
 8004c00:	fba3 0302 	umull	r0, r3, r3, r2
 8004c04:	095b      	lsrs	r3, r3, #5
 8004c06:	2064      	movs	r0, #100	@ 0x64
 8004c08:	fb00 f303 	mul.w	r3, r0, r3
 8004c0c:	1ad3      	subs	r3, r2, r3
 8004c0e:	011b      	lsls	r3, r3, #4
 8004c10:	3332      	adds	r3, #50	@ 0x32
 8004c12:	4a09      	ldr	r2, [pc, #36]	@ (8004c38 <LL_USART_SetBaudRate+0xb8>)
 8004c14:	fba2 2303 	umull	r2, r3, r2, r3
 8004c18:	095b      	lsrs	r3, r3, #5
 8004c1a:	b29b      	uxth	r3, r3
 8004c1c:	f003 030f 	and.w	r3, r3, #15
 8004c20:	b29b      	uxth	r3, r3
 8004c22:	440b      	add	r3, r1
 8004c24:	b29b      	uxth	r3, r3
 8004c26:	461a      	mov	r2, r3
 8004c28:	68fb      	ldr	r3, [r7, #12]
 8004c2a:	609a      	str	r2, [r3, #8]
}
 8004c2c:	bf00      	nop
 8004c2e:	3714      	adds	r7, #20
 8004c30:	46bd      	mov	sp, r7
 8004c32:	bc80      	pop	{r7}
 8004c34:	4770      	bx	lr
 8004c36:	bf00      	nop
 8004c38:	51eb851f 	.word	0x51eb851f

08004c3c <LL_USART_Init>:
  * @retval An ErrorStatus enumeration value:
  *          - SUCCESS: USART registers are initialized according to USART_InitStruct content
  *          - ERROR: Problem occurred during USART Registers initialization
  */
ErrorStatus LL_USART_Init(USART_TypeDef *USARTx, const LL_USART_InitTypeDef *USART_InitStruct)
{
 8004c3c:	b580      	push	{r7, lr}
 8004c3e:	b088      	sub	sp, #32
 8004c40:	af00      	add	r7, sp, #0
 8004c42:	6078      	str	r0, [r7, #4]
 8004c44:	6039      	str	r1, [r7, #0]
  ErrorStatus status = ERROR;
 8004c46:	2301      	movs	r3, #1
 8004c48:	77fb      	strb	r3, [r7, #31]
  uint32_t periphclk = LL_RCC_PERIPH_FREQUENCY_NO;
 8004c4a:	2300      	movs	r3, #0
 8004c4c:	61bb      	str	r3, [r7, #24]
  assert_param(IS_LL_USART_OVERSAMPLING(USART_InitStruct->OverSampling));
#endif /* USART_OverSampling_Feature */

  /* USART needs to be in disabled state, in order to be able to configure some bits in
     CRx registers */
  if (LL_USART_IsEnabled(USARTx) == 0U)
 8004c4e:	6878      	ldr	r0, [r7, #4]
 8004c50:	f7ff ff5e 	bl	8004b10 <LL_USART_IsEnabled>
 8004c54:	4603      	mov	r3, r0
 8004c56:	2b00      	cmp	r3, #0
 8004c58:	d153      	bne.n	8004d02 <LL_USART_Init+0xc6>
               (USART_CR1_M | USART_CR1_PCE | USART_CR1_PS |
                USART_CR1_TE | USART_CR1_RE | USART_CR1_OVER8),
               (USART_InitStruct->DataWidth | USART_InitStruct->Parity |
                USART_InitStruct->TransferDirection | USART_InitStruct->OverSampling));
#else
    MODIFY_REG(USARTx->CR1,
 8004c5a:	687b      	ldr	r3, [r7, #4]
 8004c5c:	68db      	ldr	r3, [r3, #12]
 8004c5e:	f423 53b0 	bic.w	r3, r3, #5632	@ 0x1600
 8004c62:	f023 030c 	bic.w	r3, r3, #12
 8004c66:	683a      	ldr	r2, [r7, #0]
 8004c68:	6851      	ldr	r1, [r2, #4]
 8004c6a:	683a      	ldr	r2, [r7, #0]
 8004c6c:	68d2      	ldr	r2, [r2, #12]
 8004c6e:	4311      	orrs	r1, r2
 8004c70:	683a      	ldr	r2, [r7, #0]
 8004c72:	6912      	ldr	r2, [r2, #16]
 8004c74:	430a      	orrs	r2, r1
 8004c76:	431a      	orrs	r2, r3
 8004c78:	687b      	ldr	r3, [r7, #4]
 8004c7a:	60da      	str	r2, [r3, #12]
    /*---------------------------- USART CR2 Configuration -----------------------
     * Configure USARTx CR2 (Stop bits) with parameters:
     * - Stop Bits:          USART_CR2_STOP bits according to USART_InitStruct->StopBits value.
     * - CLKEN, CPOL, CPHA and LBCL bits are to be configured using LL_USART_ClockInit().
     */
    LL_USART_SetStopBitsLength(USARTx, USART_InitStruct->StopBits);
 8004c7c:	683b      	ldr	r3, [r7, #0]
 8004c7e:	689b      	ldr	r3, [r3, #8]
 8004c80:	4619      	mov	r1, r3
 8004c82:	6878      	ldr	r0, [r7, #4]
 8004c84:	f7ff ff57 	bl	8004b36 <LL_USART_SetStopBitsLength>

    /*---------------------------- USART CR3 Configuration -----------------------
     * Configure USARTx CR3 (Hardware Flow Control) with parameters:
     * - HardwareFlowControl: USART_CR3_RTSE, USART_CR3_CTSE bits according to USART_InitStruct->HardwareFlowControl value.
     */
    LL_USART_SetHWFlowCtrl(USARTx, USART_InitStruct->HardwareFlowControl);
 8004c88:	683b      	ldr	r3, [r7, #0]
 8004c8a:	695b      	ldr	r3, [r3, #20]
 8004c8c:	4619      	mov	r1, r3
 8004c8e:	6878      	ldr	r0, [r7, #4]
 8004c90:	f7ff ff63 	bl	8004b5a <LL_USART_SetHWFlowCtrl>

    /*---------------------------- USART BRR Configuration -----------------------
     * Retrieve Clock frequency used for USART Peripheral
     */
    LL_RCC_GetSystemClocksFreq(&rcc_clocks);
 8004c94:	f107 0308 	add.w	r3, r7, #8
 8004c98:	4618      	mov	r0, r3
 8004c9a:	f7ff fba3 	bl	80043e4 <LL_RCC_GetSystemClocksFreq>
    if (USARTx == USART1)
 8004c9e:	687b      	ldr	r3, [r7, #4]
 8004ca0:	4a1a      	ldr	r2, [pc, #104]	@ (8004d0c <LL_USART_Init+0xd0>)
 8004ca2:	4293      	cmp	r3, r2
 8004ca4:	d102      	bne.n	8004cac <LL_USART_Init+0x70>
    {
      periphclk = rcc_clocks.PCLK2_Frequency;
 8004ca6:	697b      	ldr	r3, [r7, #20]
 8004ca8:	61bb      	str	r3, [r7, #24]
 8004caa:	e01a      	b.n	8004ce2 <LL_USART_Init+0xa6>
    }
    else if (USARTx == USART2)
 8004cac:	687b      	ldr	r3, [r7, #4]
 8004cae:	4a18      	ldr	r2, [pc, #96]	@ (8004d10 <LL_USART_Init+0xd4>)
 8004cb0:	4293      	cmp	r3, r2
 8004cb2:	d102      	bne.n	8004cba <LL_USART_Init+0x7e>
    {
      periphclk = rcc_clocks.PCLK1_Frequency;
 8004cb4:	693b      	ldr	r3, [r7, #16]
 8004cb6:	61bb      	str	r3, [r7, #24]
 8004cb8:	e013      	b.n	8004ce2 <LL_USART_Init+0xa6>
    }
#if defined(USART3)
    else if (USARTx == USART3)
 8004cba:	687b      	ldr	r3, [r7, #4]
 8004cbc:	4a15      	ldr	r2, [pc, #84]	@ (8004d14 <LL_USART_Init+0xd8>)
 8004cbe:	4293      	cmp	r3, r2
 8004cc0:	d102      	bne.n	8004cc8 <LL_USART_Init+0x8c>
    {
      periphclk = rcc_clocks.PCLK1_Frequency;
 8004cc2:	693b      	ldr	r3, [r7, #16]
 8004cc4:	61bb      	str	r3, [r7, #24]
 8004cc6:	e00c      	b.n	8004ce2 <LL_USART_Init+0xa6>
    }
#endif /* USART3 */
#if defined(UART4)
    else if (USARTx == UART4)
 8004cc8:	687b      	ldr	r3, [r7, #4]
 8004cca:	4a13      	ldr	r2, [pc, #76]	@ (8004d18 <LL_USART_Init+0xdc>)
 8004ccc:	4293      	cmp	r3, r2
 8004cce:	d102      	bne.n	8004cd6 <LL_USART_Init+0x9a>
    {
      periphclk = rcc_clocks.PCLK1_Frequency;
 8004cd0:	693b      	ldr	r3, [r7, #16]
 8004cd2:	61bb      	str	r3, [r7, #24]
 8004cd4:	e005      	b.n	8004ce2 <LL_USART_Init+0xa6>
    }
#endif /* UART4 */
#if defined(UART5)
    else if (USARTx == UART5)
 8004cd6:	687b      	ldr	r3, [r7, #4]
 8004cd8:	4a10      	ldr	r2, [pc, #64]	@ (8004d1c <LL_USART_Init+0xe0>)
 8004cda:	4293      	cmp	r3, r2
 8004cdc:	d101      	bne.n	8004ce2 <LL_USART_Init+0xa6>
    {
      periphclk = rcc_clocks.PCLK1_Frequency;
 8004cde:	693b      	ldr	r3, [r7, #16]
 8004ce0:	61bb      	str	r3, [r7, #24]

    /* Configure the USART Baud Rate :
       - valid baud rate value (different from 0) is required
       - Peripheral clock as returned by RCC service, should be valid (different from 0).
    */
    if ((periphclk != LL_RCC_PERIPH_FREQUENCY_NO)
 8004ce2:	69bb      	ldr	r3, [r7, #24]
 8004ce4:	2b00      	cmp	r3, #0
 8004ce6:	d00c      	beq.n	8004d02 <LL_USART_Init+0xc6>
        && (USART_InitStruct->BaudRate != 0U))
 8004ce8:	683b      	ldr	r3, [r7, #0]
 8004cea:	681b      	ldr	r3, [r3, #0]
 8004cec:	2b00      	cmp	r3, #0
 8004cee:	d008      	beq.n	8004d02 <LL_USART_Init+0xc6>
    {
      status = SUCCESS;
 8004cf0:	2300      	movs	r3, #0
 8004cf2:	77fb      	strb	r3, [r7, #31]
                           USART_InitStruct->OverSampling,
                           USART_InitStruct->BaudRate);
#else
      LL_USART_SetBaudRate(USARTx,
                           periphclk,
                           USART_InitStruct->BaudRate);
 8004cf4:	683b      	ldr	r3, [r7, #0]
 8004cf6:	681b      	ldr	r3, [r3, #0]
      LL_USART_SetBaudRate(USARTx,
 8004cf8:	461a      	mov	r2, r3
 8004cfa:	69b9      	ldr	r1, [r7, #24]
 8004cfc:	6878      	ldr	r0, [r7, #4]
 8004cfe:	f7ff ff3f 	bl	8004b80 <LL_USART_SetBaudRate>
      assert_param(IS_LL_USART_BRR_MIN(USARTx->BRR));
    }
  }
  /* Endif (=> USART not in Disabled state => return ERROR) */

  return (status);
 8004d02:	7ffb      	ldrb	r3, [r7, #31]
}
 8004d04:	4618      	mov	r0, r3
 8004d06:	3720      	adds	r7, #32
 8004d08:	46bd      	mov	sp, r7
 8004d0a:	bd80      	pop	{r7, pc}
 8004d0c:	40013800 	.word	0x40013800
 8004d10:	40004400 	.word	0x40004400
 8004d14:	40004800 	.word	0x40004800
 8004d18:	40004c00 	.word	0x40004c00
 8004d1c:	40005000 	.word	0x40005000

08004d20 <LL_InitTick>:
  *         configuration by calling this function, for a delay use rather osDelay RTOS service.
  * @param  Ticks Frequency of Ticks (Hz)
  * @retval None
  */
__STATIC_INLINE void LL_InitTick(uint32_t HCLKFrequency, uint32_t Ticks)
{
 8004d20:	b480      	push	{r7}
 8004d22:	b083      	sub	sp, #12
 8004d24:	af00      	add	r7, sp, #0
 8004d26:	6078      	str	r0, [r7, #4]
 8004d28:	6039      	str	r1, [r7, #0]
  /* Configure the SysTick to have interrupt in 1ms time base */
  SysTick->LOAD  = (uint32_t)((HCLKFrequency / Ticks) - 1UL);  /* set reload register */
 8004d2a:	687a      	ldr	r2, [r7, #4]
 8004d2c:	683b      	ldr	r3, [r7, #0]
 8004d2e:	fbb2 f3f3 	udiv	r3, r2, r3
 8004d32:	4a07      	ldr	r2, [pc, #28]	@ (8004d50 <LL_InitTick+0x30>)
 8004d34:	3b01      	subs	r3, #1
 8004d36:	6053      	str	r3, [r2, #4]
  SysTick->VAL   = 0UL;                                       /* Load the SysTick Counter Value */
 8004d38:	4b05      	ldr	r3, [pc, #20]	@ (8004d50 <LL_InitTick+0x30>)
 8004d3a:	2200      	movs	r2, #0
 8004d3c:	609a      	str	r2, [r3, #8]
  SysTick->CTRL  = SysTick_CTRL_CLKSOURCE_Msk |
 8004d3e:	4b04      	ldr	r3, [pc, #16]	@ (8004d50 <LL_InitTick+0x30>)
 8004d40:	2205      	movs	r2, #5
 8004d42:	601a      	str	r2, [r3, #0]
                   SysTick_CTRL_ENABLE_Msk;                   /* Enable the Systick Timer */
}
 8004d44:	bf00      	nop
 8004d46:	370c      	adds	r7, #12
 8004d48:	46bd      	mov	sp, r7
 8004d4a:	bc80      	pop	{r7}
 8004d4c:	4770      	bx	lr
 8004d4e:	bf00      	nop
 8004d50:	e000e010 	.word	0xe000e010

08004d54 <LL_Init1msTick>:
  * @param  HCLKFrequency HCLK frequency in Hz
  * @note   HCLK frequency can be calculated thanks to RCC helper macro or function @ref LL_RCC_GetSystemClocksFreq
  * @retval None
  */
void LL_Init1msTick(uint32_t HCLKFrequency)
{
 8004d54:	b580      	push	{r7, lr}
 8004d56:	b082      	sub	sp, #8
 8004d58:	af00      	add	r7, sp, #0
 8004d5a:	6078      	str	r0, [r7, #4]
  /* Use frequency provided in argument */
  LL_InitTick(HCLKFrequency, 1000U);
 8004d5c:	f44f 717a 	mov.w	r1, #1000	@ 0x3e8
 8004d60:	6878      	ldr	r0, [r7, #4]
 8004d62:	f7ff ffdd 	bl	8004d20 <LL_InitTick>
}
 8004d66:	bf00      	nop
 8004d68:	3708      	adds	r7, #8
 8004d6a:	46bd      	mov	sp, r7
 8004d6c:	bd80      	pop	{r7, pc}
	...

08004d70 <LL_mDelay>:
  *         will configure Systick to 1ms
  * @param  Delay specifies the delay time length, in milliseconds.
  * @retval None
  */
void LL_mDelay(uint32_t Delay)
{
 8004d70:	b480      	push	{r7}
 8004d72:	b085      	sub	sp, #20
 8004d74:	af00      	add	r7, sp, #0
 8004d76:	6078      	str	r0, [r7, #4]
  __IO uint32_t  tmp = SysTick->CTRL;  /* Clear the COUNTFLAG first */
 8004d78:	4b0e      	ldr	r3, [pc, #56]	@ (8004db4 <LL_mDelay+0x44>)
 8004d7a:	681b      	ldr	r3, [r3, #0]
 8004d7c:	60fb      	str	r3, [r7, #12]
  /* Add this code to indicate that local variable is not used */
  ((void)tmp);
 8004d7e:	68fb      	ldr	r3, [r7, #12]

  /* Add a period to guaranty minimum wait */
  if (Delay < LL_MAX_DELAY)
 8004d80:	687b      	ldr	r3, [r7, #4]
 8004d82:	f1b3 3fff 	cmp.w	r3, #4294967295
 8004d86:	d00c      	beq.n	8004da2 <LL_mDelay+0x32>
  {
    Delay++;
 8004d88:	687b      	ldr	r3, [r7, #4]
 8004d8a:	3301      	adds	r3, #1
 8004d8c:	607b      	str	r3, [r7, #4]
  }

  while (Delay)
 8004d8e:	e008      	b.n	8004da2 <LL_mDelay+0x32>
  {
    if ((SysTick->CTRL & SysTick_CTRL_COUNTFLAG_Msk) != 0U)
 8004d90:	4b08      	ldr	r3, [pc, #32]	@ (8004db4 <LL_mDelay+0x44>)
 8004d92:	681b      	ldr	r3, [r3, #0]
 8004d94:	f403 3380 	and.w	r3, r3, #65536	@ 0x10000
 8004d98:	2b00      	cmp	r3, #0
 8004d9a:	d002      	beq.n	8004da2 <LL_mDelay+0x32>
    {
      Delay--;
 8004d9c:	687b      	ldr	r3, [r7, #4]
 8004d9e:	3b01      	subs	r3, #1
 8004da0:	607b      	str	r3, [r7, #4]
  while (Delay)
 8004da2:	687b      	ldr	r3, [r7, #4]
 8004da4:	2b00      	cmp	r3, #0
 8004da6:	d1f3      	bne.n	8004d90 <LL_mDelay+0x20>
    }
  }
}
 8004da8:	bf00      	nop
 8004daa:	bf00      	nop
 8004dac:	3714      	adds	r7, #20
 8004dae:	46bd      	mov	sp, r7
 8004db0:	bc80      	pop	{r7}
 8004db2:	4770      	bx	lr
 8004db4:	e000e010 	.word	0xe000e010

08004db8 <LL_SetSystemCoreClock>:
  * @note   Variable can be calculated also through SystemCoreClockUpdate function.
  * @param  HCLKFrequency HCLK frequency in Hz (can be calculated thanks to RCC helper macro)
  * @retval None
  */
void LL_SetSystemCoreClock(uint32_t HCLKFrequency)
{
 8004db8:	b480      	push	{r7}
 8004dba:	b083      	sub	sp, #12
 8004dbc:	af00      	add	r7, sp, #0
 8004dbe:	6078      	str	r0, [r7, #4]
  /* HCLK clock frequency */
  SystemCoreClock = HCLKFrequency;
 8004dc0:	4a03      	ldr	r2, [pc, #12]	@ (8004dd0 <LL_SetSystemCoreClock+0x18>)
 8004dc2:	687b      	ldr	r3, [r7, #4]
 8004dc4:	6013      	str	r3, [r2, #0]
}
 8004dc6:	bf00      	nop
 8004dc8:	370c      	adds	r7, #12
 8004dca:	46bd      	mov	sp, r7
 8004dcc:	bc80      	pop	{r7}
 8004dce:	4770      	bx	lr
 8004dd0:	20001fe0 	.word	0x20001fe0

08004dd4 <__sflush_r>:
 8004dd4:	f9b1 200c 	ldrsh.w	r2, [r1, #12]
 8004dd8:	b5f8      	push	{r3, r4, r5, r6, r7, lr}
 8004dda:	0716      	lsls	r6, r2, #28
 8004ddc:	4605      	mov	r5, r0
 8004dde:	460c      	mov	r4, r1
 8004de0:	d454      	bmi.n	8004e8c <__sflush_r+0xb8>
 8004de2:	684b      	ldr	r3, [r1, #4]
 8004de4:	2b00      	cmp	r3, #0
 8004de6:	dc02      	bgt.n	8004dee <__sflush_r+0x1a>
 8004de8:	6c0b      	ldr	r3, [r1, #64]	@ 0x40
 8004dea:	2b00      	cmp	r3, #0
 8004dec:	dd48      	ble.n	8004e80 <__sflush_r+0xac>
 8004dee:	6ae6      	ldr	r6, [r4, #44]	@ 0x2c
 8004df0:	2e00      	cmp	r6, #0
 8004df2:	d045      	beq.n	8004e80 <__sflush_r+0xac>
 8004df4:	2300      	movs	r3, #0
 8004df6:	f412 5280 	ands.w	r2, r2, #4096	@ 0x1000
 8004dfa:	682f      	ldr	r7, [r5, #0]
 8004dfc:	6a21      	ldr	r1, [r4, #32]
 8004dfe:	602b      	str	r3, [r5, #0]
 8004e00:	d030      	beq.n	8004e64 <__sflush_r+0x90>
 8004e02:	6d62      	ldr	r2, [r4, #84]	@ 0x54
 8004e04:	89a3      	ldrh	r3, [r4, #12]
 8004e06:	0759      	lsls	r1, r3, #29
 8004e08:	d505      	bpl.n	8004e16 <__sflush_r+0x42>
 8004e0a:	6863      	ldr	r3, [r4, #4]
 8004e0c:	1ad2      	subs	r2, r2, r3
 8004e0e:	6b63      	ldr	r3, [r4, #52]	@ 0x34
 8004e10:	b10b      	cbz	r3, 8004e16 <__sflush_r+0x42>
 8004e12:	6c23      	ldr	r3, [r4, #64]	@ 0x40
 8004e14:	1ad2      	subs	r2, r2, r3
 8004e16:	2300      	movs	r3, #0
 8004e18:	4628      	mov	r0, r5
 8004e1a:	6ae6      	ldr	r6, [r4, #44]	@ 0x2c
 8004e1c:	6a21      	ldr	r1, [r4, #32]
 8004e1e:	47b0      	blx	r6
 8004e20:	1c43      	adds	r3, r0, #1
 8004e22:	89a3      	ldrh	r3, [r4, #12]
 8004e24:	d106      	bne.n	8004e34 <__sflush_r+0x60>
 8004e26:	6829      	ldr	r1, [r5, #0]
 8004e28:	291d      	cmp	r1, #29
 8004e2a:	d82b      	bhi.n	8004e84 <__sflush_r+0xb0>
 8004e2c:	4a28      	ldr	r2, [pc, #160]	@ (8004ed0 <__sflush_r+0xfc>)
 8004e2e:	410a      	asrs	r2, r1
 8004e30:	07d6      	lsls	r6, r2, #31
 8004e32:	d427      	bmi.n	8004e84 <__sflush_r+0xb0>
 8004e34:	2200      	movs	r2, #0
 8004e36:	6062      	str	r2, [r4, #4]
 8004e38:	6922      	ldr	r2, [r4, #16]
 8004e3a:	04d9      	lsls	r1, r3, #19
 8004e3c:	6022      	str	r2, [r4, #0]
 8004e3e:	d504      	bpl.n	8004e4a <__sflush_r+0x76>
 8004e40:	1c42      	adds	r2, r0, #1
 8004e42:	d101      	bne.n	8004e48 <__sflush_r+0x74>
 8004e44:	682b      	ldr	r3, [r5, #0]
 8004e46:	b903      	cbnz	r3, 8004e4a <__sflush_r+0x76>
 8004e48:	6560      	str	r0, [r4, #84]	@ 0x54
 8004e4a:	6b61      	ldr	r1, [r4, #52]	@ 0x34
 8004e4c:	602f      	str	r7, [r5, #0]
 8004e4e:	b1b9      	cbz	r1, 8004e80 <__sflush_r+0xac>
 8004e50:	f104 0344 	add.w	r3, r4, #68	@ 0x44
 8004e54:	4299      	cmp	r1, r3
 8004e56:	d002      	beq.n	8004e5e <__sflush_r+0x8a>
 8004e58:	4628      	mov	r0, r5
 8004e5a:	f000 fb85 	bl	8005568 <_free_r>
 8004e5e:	2300      	movs	r3, #0
 8004e60:	6363      	str	r3, [r4, #52]	@ 0x34
 8004e62:	e00d      	b.n	8004e80 <__sflush_r+0xac>
 8004e64:	2301      	movs	r3, #1
 8004e66:	4628      	mov	r0, r5
 8004e68:	47b0      	blx	r6
 8004e6a:	4602      	mov	r2, r0
 8004e6c:	1c50      	adds	r0, r2, #1
 8004e6e:	d1c9      	bne.n	8004e04 <__sflush_r+0x30>
 8004e70:	682b      	ldr	r3, [r5, #0]
 8004e72:	2b00      	cmp	r3, #0
 8004e74:	d0c6      	beq.n	8004e04 <__sflush_r+0x30>
 8004e76:	2b1d      	cmp	r3, #29
 8004e78:	d001      	beq.n	8004e7e <__sflush_r+0xaa>
 8004e7a:	2b16      	cmp	r3, #22
 8004e7c:	d11d      	bne.n	8004eba <__sflush_r+0xe6>
 8004e7e:	602f      	str	r7, [r5, #0]
 8004e80:	2000      	movs	r0, #0
 8004e82:	e021      	b.n	8004ec8 <__sflush_r+0xf4>
 8004e84:	f043 0340 	orr.w	r3, r3, #64	@ 0x40
 8004e88:	b21b      	sxth	r3, r3
 8004e8a:	e01a      	b.n	8004ec2 <__sflush_r+0xee>
 8004e8c:	690f      	ldr	r7, [r1, #16]
 8004e8e:	2f00      	cmp	r7, #0
 8004e90:	d0f6      	beq.n	8004e80 <__sflush_r+0xac>
 8004e92:	0793      	lsls	r3, r2, #30
 8004e94:	bf18      	it	ne
 8004e96:	2300      	movne	r3, #0
 8004e98:	680e      	ldr	r6, [r1, #0]
 8004e9a:	bf08      	it	eq
 8004e9c:	694b      	ldreq	r3, [r1, #20]
 8004e9e:	1bf6      	subs	r6, r6, r7
 8004ea0:	600f      	str	r7, [r1, #0]
 8004ea2:	608b      	str	r3, [r1, #8]
 8004ea4:	2e00      	cmp	r6, #0
 8004ea6:	ddeb      	ble.n	8004e80 <__sflush_r+0xac>
 8004ea8:	4633      	mov	r3, r6
 8004eaa:	463a      	mov	r2, r7
 8004eac:	4628      	mov	r0, r5
 8004eae:	6a21      	ldr	r1, [r4, #32]
 8004eb0:	f8d4 c028 	ldr.w	ip, [r4, #40]	@ 0x28
 8004eb4:	47e0      	blx	ip
 8004eb6:	2800      	cmp	r0, #0
 8004eb8:	dc07      	bgt.n	8004eca <__sflush_r+0xf6>
 8004eba:	f9b4 300c 	ldrsh.w	r3, [r4, #12]
 8004ebe:	f043 0340 	orr.w	r3, r3, #64	@ 0x40
 8004ec2:	f04f 30ff 	mov.w	r0, #4294967295
 8004ec6:	81a3      	strh	r3, [r4, #12]
 8004ec8:	bdf8      	pop	{r3, r4, r5, r6, r7, pc}
 8004eca:	4407      	add	r7, r0
 8004ecc:	1a36      	subs	r6, r6, r0
 8004ece:	e7e9      	b.n	8004ea4 <__sflush_r+0xd0>
 8004ed0:	dfbffffe 	.word	0xdfbffffe

08004ed4 <_fflush_r>:
 8004ed4:	b538      	push	{r3, r4, r5, lr}
 8004ed6:	690b      	ldr	r3, [r1, #16]
 8004ed8:	4605      	mov	r5, r0
 8004eda:	460c      	mov	r4, r1
 8004edc:	b913      	cbnz	r3, 8004ee4 <_fflush_r+0x10>
 8004ede:	2500      	movs	r5, #0
 8004ee0:	4628      	mov	r0, r5
 8004ee2:	bd38      	pop	{r3, r4, r5, pc}
 8004ee4:	b118      	cbz	r0, 8004eee <_fflush_r+0x1a>
 8004ee6:	6a03      	ldr	r3, [r0, #32]
 8004ee8:	b90b      	cbnz	r3, 8004eee <_fflush_r+0x1a>
 8004eea:	f000 f8bb 	bl	8005064 <__sinit>
 8004eee:	f9b4 300c 	ldrsh.w	r3, [r4, #12]
 8004ef2:	2b00      	cmp	r3, #0
 8004ef4:	d0f3      	beq.n	8004ede <_fflush_r+0xa>
 8004ef6:	6e62      	ldr	r2, [r4, #100]	@ 0x64
 8004ef8:	07d0      	lsls	r0, r2, #31
 8004efa:	d404      	bmi.n	8004f06 <_fflush_r+0x32>
 8004efc:	0599      	lsls	r1, r3, #22
 8004efe:	d402      	bmi.n	8004f06 <_fflush_r+0x32>
 8004f00:	6da0      	ldr	r0, [r4, #88]	@ 0x58
 8004f02:	f000 fb20 	bl	8005546 <__retarget_lock_acquire_recursive>
 8004f06:	4628      	mov	r0, r5
 8004f08:	4621      	mov	r1, r4
 8004f0a:	f7ff ff63 	bl	8004dd4 <__sflush_r>
 8004f0e:	6e63      	ldr	r3, [r4, #100]	@ 0x64
 8004f10:	4605      	mov	r5, r0
 8004f12:	07da      	lsls	r2, r3, #31
 8004f14:	d4e4      	bmi.n	8004ee0 <_fflush_r+0xc>
 8004f16:	89a3      	ldrh	r3, [r4, #12]
 8004f18:	059b      	lsls	r3, r3, #22
 8004f1a:	d4e1      	bmi.n	8004ee0 <_fflush_r+0xc>
 8004f1c:	6da0      	ldr	r0, [r4, #88]	@ 0x58
 8004f1e:	f000 fb13 	bl	8005548 <__retarget_lock_release_recursive>
 8004f22:	e7dd      	b.n	8004ee0 <_fflush_r+0xc>

08004f24 <fflush>:
 8004f24:	4601      	mov	r1, r0
 8004f26:	b920      	cbnz	r0, 8004f32 <fflush+0xe>
 8004f28:	4a04      	ldr	r2, [pc, #16]	@ (8004f3c <fflush+0x18>)
 8004f2a:	4905      	ldr	r1, [pc, #20]	@ (8004f40 <fflush+0x1c>)
 8004f2c:	4805      	ldr	r0, [pc, #20]	@ (8004f44 <fflush+0x20>)
 8004f2e:	f000 b8b1 	b.w	8005094 <_fwalk_sglue>
 8004f32:	4b05      	ldr	r3, [pc, #20]	@ (8004f48 <fflush+0x24>)
 8004f34:	6818      	ldr	r0, [r3, #0]
 8004f36:	f7ff bfcd 	b.w	8004ed4 <_fflush_r>
 8004f3a:	bf00      	nop
 8004f3c:	20001fe4 	.word	0x20001fe4
 8004f40:	08004ed5 	.word	0x08004ed5
 8004f44:	20001ff4 	.word	0x20001ff4
 8004f48:	20001ff0 	.word	0x20001ff0

08004f4c <std>:
 8004f4c:	2300      	movs	r3, #0
 8004f4e:	b510      	push	{r4, lr}
 8004f50:	4604      	mov	r4, r0
 8004f52:	e9c0 3300 	strd	r3, r3, [r0]
 8004f56:	e9c0 3304 	strd	r3, r3, [r0, #16]
 8004f5a:	6083      	str	r3, [r0, #8]
 8004f5c:	8181      	strh	r1, [r0, #12]
 8004f5e:	6643      	str	r3, [r0, #100]	@ 0x64
 8004f60:	81c2      	strh	r2, [r0, #14]
 8004f62:	6183      	str	r3, [r0, #24]
 8004f64:	4619      	mov	r1, r3
 8004f66:	2208      	movs	r2, #8
 8004f68:	305c      	adds	r0, #92	@ 0x5c
 8004f6a:	f000 fa61 	bl	8005430 <memset>
 8004f6e:	4b0d      	ldr	r3, [pc, #52]	@ (8004fa4 <std+0x58>)
 8004f70:	6224      	str	r4, [r4, #32]
 8004f72:	6263      	str	r3, [r4, #36]	@ 0x24
 8004f74:	4b0c      	ldr	r3, [pc, #48]	@ (8004fa8 <std+0x5c>)
 8004f76:	62a3      	str	r3, [r4, #40]	@ 0x28
 8004f78:	4b0c      	ldr	r3, [pc, #48]	@ (8004fac <std+0x60>)
 8004f7a:	62e3      	str	r3, [r4, #44]	@ 0x2c
 8004f7c:	4b0c      	ldr	r3, [pc, #48]	@ (8004fb0 <std+0x64>)
 8004f7e:	6323      	str	r3, [r4, #48]	@ 0x30
 8004f80:	4b0c      	ldr	r3, [pc, #48]	@ (8004fb4 <std+0x68>)
 8004f82:	429c      	cmp	r4, r3
 8004f84:	d006      	beq.n	8004f94 <std+0x48>
 8004f86:	f103 0268 	add.w	r2, r3, #104	@ 0x68
 8004f8a:	4294      	cmp	r4, r2
 8004f8c:	d002      	beq.n	8004f94 <std+0x48>
 8004f8e:	33d0      	adds	r3, #208	@ 0xd0
 8004f90:	429c      	cmp	r4, r3
 8004f92:	d105      	bne.n	8004fa0 <std+0x54>
 8004f94:	f104 0058 	add.w	r0, r4, #88	@ 0x58
 8004f98:	e8bd 4010 	ldmia.w	sp!, {r4, lr}
 8004f9c:	f000 bad2 	b.w	8005544 <__retarget_lock_init_recursive>
 8004fa0:	bd10      	pop	{r4, pc}
 8004fa2:	bf00      	nop
 8004fa4:	0800527d 	.word	0x0800527d
 8004fa8:	080052a3 	.word	0x080052a3
 8004fac:	080052db 	.word	0x080052db
 8004fb0:	080052ff 	.word	0x080052ff
 8004fb4:	20005668 	.word	0x20005668

08004fb8 <stdio_exit_handler>:
 8004fb8:	4a02      	ldr	r2, [pc, #8]	@ (8004fc4 <stdio_exit_handler+0xc>)
 8004fba:	4903      	ldr	r1, [pc, #12]	@ (8004fc8 <stdio_exit_handler+0x10>)
 8004fbc:	4803      	ldr	r0, [pc, #12]	@ (8004fcc <stdio_exit_handler+0x14>)
 8004fbe:	f000 b869 	b.w	8005094 <_fwalk_sglue>
 8004fc2:	bf00      	nop
 8004fc4:	20001fe4 	.word	0x20001fe4
 8004fc8:	08004ed5 	.word	0x08004ed5
 8004fcc:	20001ff4 	.word	0x20001ff4

08004fd0 <cleanup_stdio>:
 8004fd0:	6841      	ldr	r1, [r0, #4]
 8004fd2:	4b0c      	ldr	r3, [pc, #48]	@ (8005004 <cleanup_stdio+0x34>)
 8004fd4:	b510      	push	{r4, lr}
 8004fd6:	4299      	cmp	r1, r3
 8004fd8:	4604      	mov	r4, r0
 8004fda:	d001      	beq.n	8004fe0 <cleanup_stdio+0x10>
 8004fdc:	f7ff ff7a 	bl	8004ed4 <_fflush_r>
 8004fe0:	68a1      	ldr	r1, [r4, #8]
 8004fe2:	4b09      	ldr	r3, [pc, #36]	@ (8005008 <cleanup_stdio+0x38>)
 8004fe4:	4299      	cmp	r1, r3
 8004fe6:	d002      	beq.n	8004fee <cleanup_stdio+0x1e>
 8004fe8:	4620      	mov	r0, r4
 8004fea:	f7ff ff73 	bl	8004ed4 <_fflush_r>
 8004fee:	68e1      	ldr	r1, [r4, #12]
 8004ff0:	4b06      	ldr	r3, [pc, #24]	@ (800500c <cleanup_stdio+0x3c>)
 8004ff2:	4299      	cmp	r1, r3
 8004ff4:	d004      	beq.n	8005000 <cleanup_stdio+0x30>
 8004ff6:	4620      	mov	r0, r4
 8004ff8:	e8bd 4010 	ldmia.w	sp!, {r4, lr}
 8004ffc:	f7ff bf6a 	b.w	8004ed4 <_fflush_r>
 8005000:	bd10      	pop	{r4, pc}
 8005002:	bf00      	nop
 8005004:	20005668 	.word	0x20005668
 8005008:	200056d0 	.word	0x200056d0
 800500c:	20005738 	.word	0x20005738

08005010 <global_stdio_init.part.0>:
 8005010:	b510      	push	{r4, lr}
 8005012:	4b0b      	ldr	r3, [pc, #44]	@ (8005040 <global_stdio_init.part.0+0x30>)
 8005014:	4c0b      	ldr	r4, [pc, #44]	@ (8005044 <global_stdio_init.part.0+0x34>)
 8005016:	4a0c      	ldr	r2, [pc, #48]	@ (8005048 <global_stdio_init.part.0+0x38>)
 8005018:	4620      	mov	r0, r4
 800501a:	601a      	str	r2, [r3, #0]
 800501c:	2104      	movs	r1, #4
 800501e:	2200      	movs	r2, #0
 8005020:	f7ff ff94 	bl	8004f4c <std>
 8005024:	f104 0068 	add.w	r0, r4, #104	@ 0x68
 8005028:	2201      	movs	r2, #1
 800502a:	2109      	movs	r1, #9
 800502c:	f7ff ff8e 	bl	8004f4c <std>
 8005030:	f104 00d0 	add.w	r0, r4, #208	@ 0xd0
 8005034:	2202      	movs	r2, #2
 8005036:	e8bd 4010 	ldmia.w	sp!, {r4, lr}
 800503a:	2112      	movs	r1, #18
 800503c:	f7ff bf86 	b.w	8004f4c <std>
 8005040:	200057a0 	.word	0x200057a0
 8005044:	20005668 	.word	0x20005668
 8005048:	08004fb9 	.word	0x08004fb9

0800504c <__sfp_lock_acquire>:
 800504c:	4801      	ldr	r0, [pc, #4]	@ (8005054 <__sfp_lock_acquire+0x8>)
 800504e:	f000 ba7a 	b.w	8005546 <__retarget_lock_acquire_recursive>
 8005052:	bf00      	nop
 8005054:	200057a9 	.word	0x200057a9

08005058 <__sfp_lock_release>:
 8005058:	4801      	ldr	r0, [pc, #4]	@ (8005060 <__sfp_lock_release+0x8>)
 800505a:	f000 ba75 	b.w	8005548 <__retarget_lock_release_recursive>
 800505e:	bf00      	nop
 8005060:	200057a9 	.word	0x200057a9

08005064 <__sinit>:
 8005064:	b510      	push	{r4, lr}
 8005066:	4604      	mov	r4, r0
 8005068:	f7ff fff0 	bl	800504c <__sfp_lock_acquire>
 800506c:	6a23      	ldr	r3, [r4, #32]
 800506e:	b11b      	cbz	r3, 8005078 <__sinit+0x14>
 8005070:	e8bd 4010 	ldmia.w	sp!, {r4, lr}
 8005074:	f7ff bff0 	b.w	8005058 <__sfp_lock_release>
 8005078:	4b04      	ldr	r3, [pc, #16]	@ (800508c <__sinit+0x28>)
 800507a:	6223      	str	r3, [r4, #32]
 800507c:	4b04      	ldr	r3, [pc, #16]	@ (8005090 <__sinit+0x2c>)
 800507e:	681b      	ldr	r3, [r3, #0]
 8005080:	2b00      	cmp	r3, #0
 8005082:	d1f5      	bne.n	8005070 <__sinit+0xc>
 8005084:	f7ff ffc4 	bl	8005010 <global_stdio_init.part.0>
 8005088:	e7f2      	b.n	8005070 <__sinit+0xc>
 800508a:	bf00      	nop
 800508c:	08004fd1 	.word	0x08004fd1
 8005090:	200057a0 	.word	0x200057a0

08005094 <_fwalk_sglue>:
 8005094:	e92d 43f8 	stmdb	sp!, {r3, r4, r5, r6, r7, r8, r9, lr}
 8005098:	4607      	mov	r7, r0
 800509a:	4688      	mov	r8, r1
 800509c:	4614      	mov	r4, r2
 800509e:	2600      	movs	r6, #0
 80050a0:	e9d4 9501 	ldrd	r9, r5, [r4, #4]
 80050a4:	f1b9 0901 	subs.w	r9, r9, #1
 80050a8:	d505      	bpl.n	80050b6 <_fwalk_sglue+0x22>
 80050aa:	6824      	ldr	r4, [r4, #0]
 80050ac:	2c00      	cmp	r4, #0
 80050ae:	d1f7      	bne.n	80050a0 <_fwalk_sglue+0xc>
 80050b0:	4630      	mov	r0, r6
 80050b2:	e8bd 83f8 	ldmia.w	sp!, {r3, r4, r5, r6, r7, r8, r9, pc}
 80050b6:	89ab      	ldrh	r3, [r5, #12]
 80050b8:	2b01      	cmp	r3, #1
 80050ba:	d907      	bls.n	80050cc <_fwalk_sglue+0x38>
 80050bc:	f9b5 300e 	ldrsh.w	r3, [r5, #14]
 80050c0:	3301      	adds	r3, #1
 80050c2:	d003      	beq.n	80050cc <_fwalk_sglue+0x38>
 80050c4:	4629      	mov	r1, r5
 80050c6:	4638      	mov	r0, r7
 80050c8:	47c0      	blx	r8
 80050ca:	4306      	orrs	r6, r0
 80050cc:	3568      	adds	r5, #104	@ 0x68
 80050ce:	e7e9      	b.n	80050a4 <_fwalk_sglue+0x10>

080050d0 <iprintf>:
 80050d0:	b40f      	push	{r0, r1, r2, r3}
 80050d2:	b507      	push	{r0, r1, r2, lr}
 80050d4:	4906      	ldr	r1, [pc, #24]	@ (80050f0 <iprintf+0x20>)
 80050d6:	ab04      	add	r3, sp, #16
 80050d8:	6808      	ldr	r0, [r1, #0]
 80050da:	f853 2b04 	ldr.w	r2, [r3], #4
 80050de:	6881      	ldr	r1, [r0, #8]
 80050e0:	9301      	str	r3, [sp, #4]
 80050e2:	f000 fe81 	bl	8005de8 <_vfiprintf_r>
 80050e6:	b003      	add	sp, #12
 80050e8:	f85d eb04 	ldr.w	lr, [sp], #4
 80050ec:	b004      	add	sp, #16
 80050ee:	4770      	bx	lr
 80050f0:	20001ff0 	.word	0x20001ff0

080050f4 <putchar>:
 80050f4:	4b02      	ldr	r3, [pc, #8]	@ (8005100 <putchar+0xc>)
 80050f6:	4601      	mov	r1, r0
 80050f8:	6818      	ldr	r0, [r3, #0]
 80050fa:	6882      	ldr	r2, [r0, #8]
 80050fc:	f001 bacb 	b.w	8006696 <_putc_r>
 8005100:	20001ff0 	.word	0x20001ff0

08005104 <_puts_r>:
 8005104:	6a03      	ldr	r3, [r0, #32]
 8005106:	b570      	push	{r4, r5, r6, lr}
 8005108:	4605      	mov	r5, r0
 800510a:	460e      	mov	r6, r1
 800510c:	6884      	ldr	r4, [r0, #8]
 800510e:	b90b      	cbnz	r3, 8005114 <_puts_r+0x10>
 8005110:	f7ff ffa8 	bl	8005064 <__sinit>
 8005114:	6e63      	ldr	r3, [r4, #100]	@ 0x64
 8005116:	07db      	lsls	r3, r3, #31
 8005118:	d405      	bmi.n	8005126 <_puts_r+0x22>
 800511a:	89a3      	ldrh	r3, [r4, #12]
 800511c:	0598      	lsls	r0, r3, #22
 800511e:	d402      	bmi.n	8005126 <_puts_r+0x22>
 8005120:	6da0      	ldr	r0, [r4, #88]	@ 0x58
 8005122:	f000 fa10 	bl	8005546 <__retarget_lock_acquire_recursive>
 8005126:	89a3      	ldrh	r3, [r4, #12]
 8005128:	0719      	lsls	r1, r3, #28
 800512a:	d502      	bpl.n	8005132 <_puts_r+0x2e>
 800512c:	6923      	ldr	r3, [r4, #16]
 800512e:	2b00      	cmp	r3, #0
 8005130:	d135      	bne.n	800519e <_puts_r+0x9a>
 8005132:	4621      	mov	r1, r4
 8005134:	4628      	mov	r0, r5
 8005136:	f000 f925 	bl	8005384 <__swsetup_r>
 800513a:	b380      	cbz	r0, 800519e <_puts_r+0x9a>
 800513c:	f04f 35ff 	mov.w	r5, #4294967295
 8005140:	6e63      	ldr	r3, [r4, #100]	@ 0x64
 8005142:	07da      	lsls	r2, r3, #31
 8005144:	d405      	bmi.n	8005152 <_puts_r+0x4e>
 8005146:	89a3      	ldrh	r3, [r4, #12]
 8005148:	059b      	lsls	r3, r3, #22
 800514a:	d402      	bmi.n	8005152 <_puts_r+0x4e>
 800514c:	6da0      	ldr	r0, [r4, #88]	@ 0x58
 800514e:	f000 f9fb 	bl	8005548 <__retarget_lock_release_recursive>
 8005152:	4628      	mov	r0, r5
 8005154:	bd70      	pop	{r4, r5, r6, pc}
 8005156:	2b00      	cmp	r3, #0
 8005158:	da04      	bge.n	8005164 <_puts_r+0x60>
 800515a:	69a2      	ldr	r2, [r4, #24]
 800515c:	429a      	cmp	r2, r3
 800515e:	dc17      	bgt.n	8005190 <_puts_r+0x8c>
 8005160:	290a      	cmp	r1, #10
 8005162:	d015      	beq.n	8005190 <_puts_r+0x8c>
 8005164:	6823      	ldr	r3, [r4, #0]
 8005166:	1c5a      	adds	r2, r3, #1
 8005168:	6022      	str	r2, [r4, #0]
 800516a:	7019      	strb	r1, [r3, #0]
 800516c:	68a3      	ldr	r3, [r4, #8]
 800516e:	f816 1f01 	ldrb.w	r1, [r6, #1]!
 8005172:	3b01      	subs	r3, #1
 8005174:	60a3      	str	r3, [r4, #8]
 8005176:	2900      	cmp	r1, #0
 8005178:	d1ed      	bne.n	8005156 <_puts_r+0x52>
 800517a:	2b00      	cmp	r3, #0
 800517c:	da11      	bge.n	80051a2 <_puts_r+0x9e>
 800517e:	4622      	mov	r2, r4
 8005180:	210a      	movs	r1, #10
 8005182:	4628      	mov	r0, r5
 8005184:	f000 f8bf 	bl	8005306 <__swbuf_r>
 8005188:	3001      	adds	r0, #1
 800518a:	d0d7      	beq.n	800513c <_puts_r+0x38>
 800518c:	250a      	movs	r5, #10
 800518e:	e7d7      	b.n	8005140 <_puts_r+0x3c>
 8005190:	4622      	mov	r2, r4
 8005192:	4628      	mov	r0, r5
 8005194:	f000 f8b7 	bl	8005306 <__swbuf_r>
 8005198:	3001      	adds	r0, #1
 800519a:	d1e7      	bne.n	800516c <_puts_r+0x68>
 800519c:	e7ce      	b.n	800513c <_puts_r+0x38>
 800519e:	3e01      	subs	r6, #1
 80051a0:	e7e4      	b.n	800516c <_puts_r+0x68>
 80051a2:	6823      	ldr	r3, [r4, #0]
 80051a4:	1c5a      	adds	r2, r3, #1
 80051a6:	6022      	str	r2, [r4, #0]
 80051a8:	220a      	movs	r2, #10
 80051aa:	701a      	strb	r2, [r3, #0]
 80051ac:	e7ee      	b.n	800518c <_puts_r+0x88>
	...

080051b0 <puts>:
 80051b0:	4b02      	ldr	r3, [pc, #8]	@ (80051bc <puts+0xc>)
 80051b2:	4601      	mov	r1, r0
 80051b4:	6818      	ldr	r0, [r3, #0]
 80051b6:	f7ff bfa5 	b.w	8005104 <_puts_r>
 80051ba:	bf00      	nop
 80051bc:	20001ff0 	.word	0x20001ff0

080051c0 <sniprintf>:
 80051c0:	b40c      	push	{r2, r3}
 80051c2:	b530      	push	{r4, r5, lr}
 80051c4:	4b17      	ldr	r3, [pc, #92]	@ (8005224 <sniprintf+0x64>)
 80051c6:	1e0c      	subs	r4, r1, #0
 80051c8:	681d      	ldr	r5, [r3, #0]
 80051ca:	b09d      	sub	sp, #116	@ 0x74
 80051cc:	da08      	bge.n	80051e0 <sniprintf+0x20>
 80051ce:	238b      	movs	r3, #139	@ 0x8b
 80051d0:	f04f 30ff 	mov.w	r0, #4294967295
 80051d4:	602b      	str	r3, [r5, #0]
 80051d6:	b01d      	add	sp, #116	@ 0x74
 80051d8:	e8bd 4030 	ldmia.w	sp!, {r4, r5, lr}
 80051dc:	b002      	add	sp, #8
 80051de:	4770      	bx	lr
 80051e0:	f44f 7302 	mov.w	r3, #520	@ 0x208
 80051e4:	f8ad 3014 	strh.w	r3, [sp, #20]
 80051e8:	bf0c      	ite	eq
 80051ea:	4623      	moveq	r3, r4
 80051ec:	f104 33ff 	addne.w	r3, r4, #4294967295
 80051f0:	9304      	str	r3, [sp, #16]
 80051f2:	9307      	str	r3, [sp, #28]
 80051f4:	f64f 73ff 	movw	r3, #65535	@ 0xffff
 80051f8:	9002      	str	r0, [sp, #8]
 80051fa:	9006      	str	r0, [sp, #24]
 80051fc:	f8ad 3016 	strh.w	r3, [sp, #22]
 8005200:	4628      	mov	r0, r5
 8005202:	ab21      	add	r3, sp, #132	@ 0x84
 8005204:	9a20      	ldr	r2, [sp, #128]	@ 0x80
 8005206:	a902      	add	r1, sp, #8
 8005208:	9301      	str	r3, [sp, #4]
 800520a:	f000 faff 	bl	800580c <_svfiprintf_r>
 800520e:	1c43      	adds	r3, r0, #1
 8005210:	bfbc      	itt	lt
 8005212:	238b      	movlt	r3, #139	@ 0x8b
 8005214:	602b      	strlt	r3, [r5, #0]
 8005216:	2c00      	cmp	r4, #0
 8005218:	d0dd      	beq.n	80051d6 <sniprintf+0x16>
 800521a:	2200      	movs	r2, #0
 800521c:	9b02      	ldr	r3, [sp, #8]
 800521e:	701a      	strb	r2, [r3, #0]
 8005220:	e7d9      	b.n	80051d6 <sniprintf+0x16>
 8005222:	bf00      	nop
 8005224:	20001ff0 	.word	0x20001ff0

08005228 <siscanf>:
 8005228:	b40e      	push	{r1, r2, r3}
 800522a:	f44f 7201 	mov.w	r2, #516	@ 0x204
 800522e:	b530      	push	{r4, r5, lr}
 8005230:	b09c      	sub	sp, #112	@ 0x70
 8005232:	ac1f      	add	r4, sp, #124	@ 0x7c
 8005234:	f854 5b04 	ldr.w	r5, [r4], #4
 8005238:	f8ad 2014 	strh.w	r2, [sp, #20]
 800523c:	9002      	str	r0, [sp, #8]
 800523e:	9006      	str	r0, [sp, #24]
 8005240:	f7fa fffa 	bl	8000238 <strlen>
 8005244:	4b0b      	ldr	r3, [pc, #44]	@ (8005274 <siscanf+0x4c>)
 8005246:	9003      	str	r0, [sp, #12]
 8005248:	930b      	str	r3, [sp, #44]	@ 0x2c
 800524a:	2300      	movs	r3, #0
 800524c:	930f      	str	r3, [sp, #60]	@ 0x3c
 800524e:	9314      	str	r3, [sp, #80]	@ 0x50
 8005250:	f64f 73ff 	movw	r3, #65535	@ 0xffff
 8005254:	9007      	str	r0, [sp, #28]
 8005256:	4808      	ldr	r0, [pc, #32]	@ (8005278 <siscanf+0x50>)
 8005258:	f8ad 3016 	strh.w	r3, [sp, #22]
 800525c:	462a      	mov	r2, r5
 800525e:	4623      	mov	r3, r4
 8005260:	a902      	add	r1, sp, #8
 8005262:	6800      	ldr	r0, [r0, #0]
 8005264:	9401      	str	r4, [sp, #4]
 8005266:	f000 fc25 	bl	8005ab4 <__ssvfiscanf_r>
 800526a:	b01c      	add	sp, #112	@ 0x70
 800526c:	e8bd 4030 	ldmia.w	sp!, {r4, r5, lr}
 8005270:	b003      	add	sp, #12
 8005272:	4770      	bx	lr
 8005274:	0800529f 	.word	0x0800529f
 8005278:	20001ff0 	.word	0x20001ff0

0800527c <__sread>:
 800527c:	b510      	push	{r4, lr}
 800527e:	460c      	mov	r4, r1
 8005280:	f9b1 100e 	ldrsh.w	r1, [r1, #14]
 8005284:	f000 f910 	bl	80054a8 <_read_r>
 8005288:	2800      	cmp	r0, #0
 800528a:	bfab      	itete	ge
 800528c:	6d63      	ldrge	r3, [r4, #84]	@ 0x54
 800528e:	89a3      	ldrhlt	r3, [r4, #12]
 8005290:	181b      	addge	r3, r3, r0
 8005292:	f423 5380 	biclt.w	r3, r3, #4096	@ 0x1000
 8005296:	bfac      	ite	ge
 8005298:	6563      	strge	r3, [r4, #84]	@ 0x54
 800529a:	81a3      	strhlt	r3, [r4, #12]
 800529c:	bd10      	pop	{r4, pc}

0800529e <__seofread>:
 800529e:	2000      	movs	r0, #0
 80052a0:	4770      	bx	lr

080052a2 <__swrite>:
 80052a2:	e92d 41f0 	stmdb	sp!, {r4, r5, r6, r7, r8, lr}
 80052a6:	461f      	mov	r7, r3
 80052a8:	898b      	ldrh	r3, [r1, #12]
 80052aa:	4605      	mov	r5, r0
 80052ac:	05db      	lsls	r3, r3, #23
 80052ae:	460c      	mov	r4, r1
 80052b0:	4616      	mov	r6, r2
 80052b2:	d505      	bpl.n	80052c0 <__swrite+0x1e>
 80052b4:	2302      	movs	r3, #2
 80052b6:	2200      	movs	r2, #0
 80052b8:	f9b1 100e 	ldrsh.w	r1, [r1, #14]
 80052bc:	f000 f8e2 	bl	8005484 <_lseek_r>
 80052c0:	89a3      	ldrh	r3, [r4, #12]
 80052c2:	4632      	mov	r2, r6
 80052c4:	f423 5380 	bic.w	r3, r3, #4096	@ 0x1000
 80052c8:	81a3      	strh	r3, [r4, #12]
 80052ca:	4628      	mov	r0, r5
 80052cc:	463b      	mov	r3, r7
 80052ce:	f9b4 100e 	ldrsh.w	r1, [r4, #14]
 80052d2:	e8bd 41f0 	ldmia.w	sp!, {r4, r5, r6, r7, r8, lr}
 80052d6:	f000 b8f9 	b.w	80054cc <_write_r>

080052da <__sseek>:
 80052da:	b510      	push	{r4, lr}
 80052dc:	460c      	mov	r4, r1
 80052de:	f9b1 100e 	ldrsh.w	r1, [r1, #14]
 80052e2:	f000 f8cf 	bl	8005484 <_lseek_r>
 80052e6:	1c43      	adds	r3, r0, #1
 80052e8:	89a3      	ldrh	r3, [r4, #12]
 80052ea:	bf15      	itete	ne
 80052ec:	6560      	strne	r0, [r4, #84]	@ 0x54
 80052ee:	f423 5380 	biceq.w	r3, r3, #4096	@ 0x1000
 80052f2:	f443 5380 	orrne.w	r3, r3, #4096	@ 0x1000
 80052f6:	81a3      	strheq	r3, [r4, #12]
 80052f8:	bf18      	it	ne
 80052fa:	81a3      	strhne	r3, [r4, #12]
 80052fc:	bd10      	pop	{r4, pc}

080052fe <__sclose>:
 80052fe:	f9b1 100e 	ldrsh.w	r1, [r1, #14]
 8005302:	f000 b8af 	b.w	8005464 <_close_r>

08005306 <__swbuf_r>:
 8005306:	b5f8      	push	{r3, r4, r5, r6, r7, lr}
 8005308:	460e      	mov	r6, r1
 800530a:	4614      	mov	r4, r2
 800530c:	4605      	mov	r5, r0
 800530e:	b118      	cbz	r0, 8005318 <__swbuf_r+0x12>
 8005310:	6a03      	ldr	r3, [r0, #32]
 8005312:	b90b      	cbnz	r3, 8005318 <__swbuf_r+0x12>
 8005314:	f7ff fea6 	bl	8005064 <__sinit>
 8005318:	69a3      	ldr	r3, [r4, #24]
 800531a:	60a3      	str	r3, [r4, #8]
 800531c:	89a3      	ldrh	r3, [r4, #12]
 800531e:	071a      	lsls	r2, r3, #28
 8005320:	d501      	bpl.n	8005326 <__swbuf_r+0x20>
 8005322:	6923      	ldr	r3, [r4, #16]
 8005324:	b943      	cbnz	r3, 8005338 <__swbuf_r+0x32>
 8005326:	4621      	mov	r1, r4
 8005328:	4628      	mov	r0, r5
 800532a:	f000 f82b 	bl	8005384 <__swsetup_r>
 800532e:	b118      	cbz	r0, 8005338 <__swbuf_r+0x32>
 8005330:	f04f 37ff 	mov.w	r7, #4294967295
 8005334:	4638      	mov	r0, r7
 8005336:	bdf8      	pop	{r3, r4, r5, r6, r7, pc}
 8005338:	6823      	ldr	r3, [r4, #0]
 800533a:	6922      	ldr	r2, [r4, #16]
 800533c:	b2f6      	uxtb	r6, r6
 800533e:	1a98      	subs	r0, r3, r2
 8005340:	6963      	ldr	r3, [r4, #20]
 8005342:	4637      	mov	r7, r6
 8005344:	4283      	cmp	r3, r0
 8005346:	dc05      	bgt.n	8005354 <__swbuf_r+0x4e>
 8005348:	4621      	mov	r1, r4
 800534a:	4628      	mov	r0, r5
 800534c:	f7ff fdc2 	bl	8004ed4 <_fflush_r>
 8005350:	2800      	cmp	r0, #0
 8005352:	d1ed      	bne.n	8005330 <__swbuf_r+0x2a>
 8005354:	68a3      	ldr	r3, [r4, #8]
 8005356:	3b01      	subs	r3, #1
 8005358:	60a3      	str	r3, [r4, #8]
 800535a:	6823      	ldr	r3, [r4, #0]
 800535c:	1c5a      	adds	r2, r3, #1
 800535e:	6022      	str	r2, [r4, #0]
 8005360:	701e      	strb	r6, [r3, #0]
 8005362:	6962      	ldr	r2, [r4, #20]
 8005364:	1c43      	adds	r3, r0, #1
 8005366:	429a      	cmp	r2, r3
 8005368:	d004      	beq.n	8005374 <__swbuf_r+0x6e>
 800536a:	89a3      	ldrh	r3, [r4, #12]
 800536c:	07db      	lsls	r3, r3, #31
 800536e:	d5e1      	bpl.n	8005334 <__swbuf_r+0x2e>
 8005370:	2e0a      	cmp	r6, #10
 8005372:	d1df      	bne.n	8005334 <__swbuf_r+0x2e>
 8005374:	4621      	mov	r1, r4
 8005376:	4628      	mov	r0, r5
 8005378:	f7ff fdac 	bl	8004ed4 <_fflush_r>
 800537c:	2800      	cmp	r0, #0
 800537e:	d0d9      	beq.n	8005334 <__swbuf_r+0x2e>
 8005380:	e7d6      	b.n	8005330 <__swbuf_r+0x2a>
	...

08005384 <__swsetup_r>:
 8005384:	b538      	push	{r3, r4, r5, lr}
 8005386:	4b29      	ldr	r3, [pc, #164]	@ (800542c <__swsetup_r+0xa8>)
 8005388:	4605      	mov	r5, r0
 800538a:	6818      	ldr	r0, [r3, #0]
 800538c:	460c      	mov	r4, r1
 800538e:	b118      	cbz	r0, 8005398 <__swsetup_r+0x14>
 8005390:	6a03      	ldr	r3, [r0, #32]
 8005392:	b90b      	cbnz	r3, 8005398 <__swsetup_r+0x14>
 8005394:	f7ff fe66 	bl	8005064 <__sinit>
 8005398:	f9b4 300c 	ldrsh.w	r3, [r4, #12]
 800539c:	0719      	lsls	r1, r3, #28
 800539e:	d422      	bmi.n	80053e6 <__swsetup_r+0x62>
 80053a0:	06da      	lsls	r2, r3, #27
 80053a2:	d407      	bmi.n	80053b4 <__swsetup_r+0x30>
 80053a4:	2209      	movs	r2, #9
 80053a6:	602a      	str	r2, [r5, #0]
 80053a8:	f043 0340 	orr.w	r3, r3, #64	@ 0x40
 80053ac:	f04f 30ff 	mov.w	r0, #4294967295
 80053b0:	81a3      	strh	r3, [r4, #12]
 80053b2:	e033      	b.n	800541c <__swsetup_r+0x98>
 80053b4:	0758      	lsls	r0, r3, #29
 80053b6:	d512      	bpl.n	80053de <__swsetup_r+0x5a>
 80053b8:	6b61      	ldr	r1, [r4, #52]	@ 0x34
 80053ba:	b141      	cbz	r1, 80053ce <__swsetup_r+0x4a>
 80053bc:	f104 0344 	add.w	r3, r4, #68	@ 0x44
 80053c0:	4299      	cmp	r1, r3
 80053c2:	d002      	beq.n	80053ca <__swsetup_r+0x46>
 80053c4:	4628      	mov	r0, r5
 80053c6:	f000 f8cf 	bl	8005568 <_free_r>
 80053ca:	2300      	movs	r3, #0
 80053cc:	6363      	str	r3, [r4, #52]	@ 0x34
 80053ce:	89a3      	ldrh	r3, [r4, #12]
 80053d0:	f023 0324 	bic.w	r3, r3, #36	@ 0x24
 80053d4:	81a3      	strh	r3, [r4, #12]
 80053d6:	2300      	movs	r3, #0
 80053d8:	6063      	str	r3, [r4, #4]
 80053da:	6923      	ldr	r3, [r4, #16]
 80053dc:	6023      	str	r3, [r4, #0]
 80053de:	89a3      	ldrh	r3, [r4, #12]
 80053e0:	f043 0308 	orr.w	r3, r3, #8
 80053e4:	81a3      	strh	r3, [r4, #12]
 80053e6:	6923      	ldr	r3, [r4, #16]
 80053e8:	b94b      	cbnz	r3, 80053fe <__swsetup_r+0x7a>
 80053ea:	89a3      	ldrh	r3, [r4, #12]
 80053ec:	f403 7320 	and.w	r3, r3, #640	@ 0x280
 80053f0:	f5b3 7f00 	cmp.w	r3, #512	@ 0x200
 80053f4:	d003      	beq.n	80053fe <__swsetup_r+0x7a>
 80053f6:	4621      	mov	r1, r4
 80053f8:	4628      	mov	r0, r5
 80053fa:	f001 f910 	bl	800661e <__smakebuf_r>
 80053fe:	f9b4 300c 	ldrsh.w	r3, [r4, #12]
 8005402:	f013 0201 	ands.w	r2, r3, #1
 8005406:	d00a      	beq.n	800541e <__swsetup_r+0x9a>
 8005408:	2200      	movs	r2, #0
 800540a:	60a2      	str	r2, [r4, #8]
 800540c:	6962      	ldr	r2, [r4, #20]
 800540e:	4252      	negs	r2, r2
 8005410:	61a2      	str	r2, [r4, #24]
 8005412:	6922      	ldr	r2, [r4, #16]
 8005414:	b942      	cbnz	r2, 8005428 <__swsetup_r+0xa4>
 8005416:	f013 0080 	ands.w	r0, r3, #128	@ 0x80
 800541a:	d1c5      	bne.n	80053a8 <__swsetup_r+0x24>
 800541c:	bd38      	pop	{r3, r4, r5, pc}
 800541e:	0799      	lsls	r1, r3, #30
 8005420:	bf58      	it	pl
 8005422:	6962      	ldrpl	r2, [r4, #20]
 8005424:	60a2      	str	r2, [r4, #8]
 8005426:	e7f4      	b.n	8005412 <__swsetup_r+0x8e>
 8005428:	2000      	movs	r0, #0
 800542a:	e7f7      	b.n	800541c <__swsetup_r+0x98>
 800542c:	20001ff0 	.word	0x20001ff0

08005430 <memset>:
 8005430:	4603      	mov	r3, r0
 8005432:	4402      	add	r2, r0
 8005434:	4293      	cmp	r3, r2
 8005436:	d100      	bne.n	800543a <memset+0xa>
 8005438:	4770      	bx	lr
 800543a:	f803 1b01 	strb.w	r1, [r3], #1
 800543e:	e7f9      	b.n	8005434 <memset+0x4>

08005440 <strncmp>:
 8005440:	b510      	push	{r4, lr}
 8005442:	b16a      	cbz	r2, 8005460 <strncmp+0x20>
 8005444:	3901      	subs	r1, #1
 8005446:	1884      	adds	r4, r0, r2
 8005448:	f810 2b01 	ldrb.w	r2, [r0], #1
 800544c:	f811 3f01 	ldrb.w	r3, [r1, #1]!
 8005450:	429a      	cmp	r2, r3
 8005452:	d103      	bne.n	800545c <strncmp+0x1c>
 8005454:	42a0      	cmp	r0, r4
 8005456:	d001      	beq.n	800545c <strncmp+0x1c>
 8005458:	2a00      	cmp	r2, #0
 800545a:	d1f5      	bne.n	8005448 <strncmp+0x8>
 800545c:	1ad0      	subs	r0, r2, r3
 800545e:	bd10      	pop	{r4, pc}
 8005460:	4610      	mov	r0, r2
 8005462:	e7fc      	b.n	800545e <strncmp+0x1e>

08005464 <_close_r>:
 8005464:	b538      	push	{r3, r4, r5, lr}
 8005466:	2300      	movs	r3, #0
 8005468:	4d05      	ldr	r5, [pc, #20]	@ (8005480 <_close_r+0x1c>)
 800546a:	4604      	mov	r4, r0
 800546c:	4608      	mov	r0, r1
 800546e:	602b      	str	r3, [r5, #0]
 8005470:	f7fe fbbb 	bl	8003bea <_close>
 8005474:	1c43      	adds	r3, r0, #1
 8005476:	d102      	bne.n	800547e <_close_r+0x1a>
 8005478:	682b      	ldr	r3, [r5, #0]
 800547a:	b103      	cbz	r3, 800547e <_close_r+0x1a>
 800547c:	6023      	str	r3, [r4, #0]
 800547e:	bd38      	pop	{r3, r4, r5, pc}
 8005480:	200057a4 	.word	0x200057a4

08005484 <_lseek_r>:
 8005484:	b538      	push	{r3, r4, r5, lr}
 8005486:	4604      	mov	r4, r0
 8005488:	4608      	mov	r0, r1
 800548a:	4611      	mov	r1, r2
 800548c:	2200      	movs	r2, #0
 800548e:	4d05      	ldr	r5, [pc, #20]	@ (80054a4 <_lseek_r+0x20>)
 8005490:	602a      	str	r2, [r5, #0]
 8005492:	461a      	mov	r2, r3
 8005494:	f7fe fbcd 	bl	8003c32 <_lseek>
 8005498:	1c43      	adds	r3, r0, #1
 800549a:	d102      	bne.n	80054a2 <_lseek_r+0x1e>
 800549c:	682b      	ldr	r3, [r5, #0]
 800549e:	b103      	cbz	r3, 80054a2 <_lseek_r+0x1e>
 80054a0:	6023      	str	r3, [r4, #0]
 80054a2:	bd38      	pop	{r3, r4, r5, pc}
 80054a4:	200057a4 	.word	0x200057a4

080054a8 <_read_r>:
 80054a8:	b538      	push	{r3, r4, r5, lr}
 80054aa:	4604      	mov	r4, r0
 80054ac:	4608      	mov	r0, r1
 80054ae:	4611      	mov	r1, r2
 80054b0:	2200      	movs	r2, #0
 80054b2:	4d05      	ldr	r5, [pc, #20]	@ (80054c8 <_read_r+0x20>)
 80054b4:	602a      	str	r2, [r5, #0]
 80054b6:	461a      	mov	r2, r3
 80054b8:	f7fe fb7a 	bl	8003bb0 <_read>
 80054bc:	1c43      	adds	r3, r0, #1
 80054be:	d102      	bne.n	80054c6 <_read_r+0x1e>
 80054c0:	682b      	ldr	r3, [r5, #0]
 80054c2:	b103      	cbz	r3, 80054c6 <_read_r+0x1e>
 80054c4:	6023      	str	r3, [r4, #0]
 80054c6:	bd38      	pop	{r3, r4, r5, pc}
 80054c8:	200057a4 	.word	0x200057a4

080054cc <_write_r>:
 80054cc:	b538      	push	{r3, r4, r5, lr}
 80054ce:	4604      	mov	r4, r0
 80054d0:	4608      	mov	r0, r1
 80054d2:	4611      	mov	r1, r2
 80054d4:	2200      	movs	r2, #0
 80054d6:	4d05      	ldr	r5, [pc, #20]	@ (80054ec <_write_r+0x20>)
 80054d8:	602a      	str	r2, [r5, #0]
 80054da:	461a      	mov	r2, r3
 80054dc:	f7fb ffd4 	bl	8001488 <_write>
 80054e0:	1c43      	adds	r3, r0, #1
 80054e2:	d102      	bne.n	80054ea <_write_r+0x1e>
 80054e4:	682b      	ldr	r3, [r5, #0]
 80054e6:	b103      	cbz	r3, 80054ea <_write_r+0x1e>
 80054e8:	6023      	str	r3, [r4, #0]
 80054ea:	bd38      	pop	{r3, r4, r5, pc}
 80054ec:	200057a4 	.word	0x200057a4

080054f0 <__errno>:
 80054f0:	4b01      	ldr	r3, [pc, #4]	@ (80054f8 <__errno+0x8>)
 80054f2:	6818      	ldr	r0, [r3, #0]
 80054f4:	4770      	bx	lr
 80054f6:	bf00      	nop
 80054f8:	20001ff0 	.word	0x20001ff0

080054fc <__libc_init_array>:
 80054fc:	b570      	push	{r4, r5, r6, lr}
 80054fe:	2600      	movs	r6, #0
 8005500:	4d0c      	ldr	r5, [pc, #48]	@ (8005534 <__libc_init_array+0x38>)
 8005502:	4c0d      	ldr	r4, [pc, #52]	@ (8005538 <__libc_init_array+0x3c>)
 8005504:	1b64      	subs	r4, r4, r5
 8005506:	10a4      	asrs	r4, r4, #2
 8005508:	42a6      	cmp	r6, r4
 800550a:	d109      	bne.n	8005520 <__libc_init_array+0x24>
 800550c:	f001 fae4 	bl	8006ad8 <_init>
 8005510:	2600      	movs	r6, #0
 8005512:	4d0a      	ldr	r5, [pc, #40]	@ (800553c <__libc_init_array+0x40>)
 8005514:	4c0a      	ldr	r4, [pc, #40]	@ (8005540 <__libc_init_array+0x44>)
 8005516:	1b64      	subs	r4, r4, r5
 8005518:	10a4      	asrs	r4, r4, #2
 800551a:	42a6      	cmp	r6, r4
 800551c:	d105      	bne.n	800552a <__libc_init_array+0x2e>
 800551e:	bd70      	pop	{r4, r5, r6, pc}
 8005520:	f855 3b04 	ldr.w	r3, [r5], #4
 8005524:	4798      	blx	r3
 8005526:	3601      	adds	r6, #1
 8005528:	e7ee      	b.n	8005508 <__libc_init_array+0xc>
 800552a:	f855 3b04 	ldr.w	r3, [r5], #4
 800552e:	4798      	blx	r3
 8005530:	3601      	adds	r6, #1
 8005532:	e7f2      	b.n	800551a <__libc_init_array+0x1e>
 8005534:	080079c0 	.word	0x080079c0
 8005538:	080079c0 	.word	0x080079c0
 800553c:	080079c0 	.word	0x080079c0
 8005540:	080079c4 	.word	0x080079c4

08005544 <__retarget_lock_init_recursive>:
 8005544:	4770      	bx	lr

08005546 <__retarget_lock_acquire_recursive>:
 8005546:	4770      	bx	lr

08005548 <__retarget_lock_release_recursive>:
 8005548:	4770      	bx	lr

0800554a <memcpy>:
 800554a:	440a      	add	r2, r1
 800554c:	4291      	cmp	r1, r2
 800554e:	f100 33ff 	add.w	r3, r0, #4294967295
 8005552:	d100      	bne.n	8005556 <memcpy+0xc>
 8005554:	4770      	bx	lr
 8005556:	b510      	push	{r4, lr}
 8005558:	f811 4b01 	ldrb.w	r4, [r1], #1
 800555c:	4291      	cmp	r1, r2
 800555e:	f803 4f01 	strb.w	r4, [r3, #1]!
 8005562:	d1f9      	bne.n	8005558 <memcpy+0xe>
 8005564:	bd10      	pop	{r4, pc}
	...

08005568 <_free_r>:
 8005568:	b538      	push	{r3, r4, r5, lr}
 800556a:	4605      	mov	r5, r0
 800556c:	2900      	cmp	r1, #0
 800556e:	d040      	beq.n	80055f2 <_free_r+0x8a>
 8005570:	f851 3c04 	ldr.w	r3, [r1, #-4]
 8005574:	1f0c      	subs	r4, r1, #4
 8005576:	2b00      	cmp	r3, #0
 8005578:	bfb8      	it	lt
 800557a:	18e4      	addlt	r4, r4, r3
 800557c:	f000 f8de 	bl	800573c <__malloc_lock>
 8005580:	4a1c      	ldr	r2, [pc, #112]	@ (80055f4 <_free_r+0x8c>)
 8005582:	6813      	ldr	r3, [r2, #0]
 8005584:	b933      	cbnz	r3, 8005594 <_free_r+0x2c>
 8005586:	6063      	str	r3, [r4, #4]
 8005588:	6014      	str	r4, [r2, #0]
 800558a:	4628      	mov	r0, r5
 800558c:	e8bd 4038 	ldmia.w	sp!, {r3, r4, r5, lr}
 8005590:	f000 b8da 	b.w	8005748 <__malloc_unlock>
 8005594:	42a3      	cmp	r3, r4
 8005596:	d908      	bls.n	80055aa <_free_r+0x42>
 8005598:	6820      	ldr	r0, [r4, #0]
 800559a:	1821      	adds	r1, r4, r0
 800559c:	428b      	cmp	r3, r1
 800559e:	bf01      	itttt	eq
 80055a0:	6819      	ldreq	r1, [r3, #0]
 80055a2:	685b      	ldreq	r3, [r3, #4]
 80055a4:	1809      	addeq	r1, r1, r0
 80055a6:	6021      	streq	r1, [r4, #0]
 80055a8:	e7ed      	b.n	8005586 <_free_r+0x1e>
 80055aa:	461a      	mov	r2, r3
 80055ac:	685b      	ldr	r3, [r3, #4]
 80055ae:	b10b      	cbz	r3, 80055b4 <_free_r+0x4c>
 80055b0:	42a3      	cmp	r3, r4
 80055b2:	d9fa      	bls.n	80055aa <_free_r+0x42>
 80055b4:	6811      	ldr	r1, [r2, #0]
 80055b6:	1850      	adds	r0, r2, r1
 80055b8:	42a0      	cmp	r0, r4
 80055ba:	d10b      	bne.n	80055d4 <_free_r+0x6c>
 80055bc:	6820      	ldr	r0, [r4, #0]
 80055be:	4401      	add	r1, r0
 80055c0:	1850      	adds	r0, r2, r1
 80055c2:	4283      	cmp	r3, r0
 80055c4:	6011      	str	r1, [r2, #0]
 80055c6:	d1e0      	bne.n	800558a <_free_r+0x22>
 80055c8:	6818      	ldr	r0, [r3, #0]
 80055ca:	685b      	ldr	r3, [r3, #4]
 80055cc:	4408      	add	r0, r1
 80055ce:	6010      	str	r0, [r2, #0]
 80055d0:	6053      	str	r3, [r2, #4]
 80055d2:	e7da      	b.n	800558a <_free_r+0x22>
 80055d4:	d902      	bls.n	80055dc <_free_r+0x74>
 80055d6:	230c      	movs	r3, #12
 80055d8:	602b      	str	r3, [r5, #0]
 80055da:	e7d6      	b.n	800558a <_free_r+0x22>
 80055dc:	6820      	ldr	r0, [r4, #0]
 80055de:	1821      	adds	r1, r4, r0
 80055e0:	428b      	cmp	r3, r1
 80055e2:	bf01      	itttt	eq
 80055e4:	6819      	ldreq	r1, [r3, #0]
 80055e6:	685b      	ldreq	r3, [r3, #4]
 80055e8:	1809      	addeq	r1, r1, r0
 80055ea:	6021      	streq	r1, [r4, #0]
 80055ec:	6063      	str	r3, [r4, #4]
 80055ee:	6054      	str	r4, [r2, #4]
 80055f0:	e7cb      	b.n	800558a <_free_r+0x22>
 80055f2:	bd38      	pop	{r3, r4, r5, pc}
 80055f4:	200057b0 	.word	0x200057b0

080055f8 <sbrk_aligned>:
 80055f8:	b570      	push	{r4, r5, r6, lr}
 80055fa:	4e0f      	ldr	r6, [pc, #60]	@ (8005638 <sbrk_aligned+0x40>)
 80055fc:	460c      	mov	r4, r1
 80055fe:	6831      	ldr	r1, [r6, #0]
 8005600:	4605      	mov	r5, r0
 8005602:	b911      	cbnz	r1, 800560a <sbrk_aligned+0x12>
 8005604:	f001 f928 	bl	8006858 <_sbrk_r>
 8005608:	6030      	str	r0, [r6, #0]
 800560a:	4621      	mov	r1, r4
 800560c:	4628      	mov	r0, r5
 800560e:	f001 f923 	bl	8006858 <_sbrk_r>
 8005612:	1c43      	adds	r3, r0, #1
 8005614:	d103      	bne.n	800561e <sbrk_aligned+0x26>
 8005616:	f04f 34ff 	mov.w	r4, #4294967295
 800561a:	4620      	mov	r0, r4
 800561c:	bd70      	pop	{r4, r5, r6, pc}
 800561e:	1cc4      	adds	r4, r0, #3
 8005620:	f024 0403 	bic.w	r4, r4, #3
 8005624:	42a0      	cmp	r0, r4
 8005626:	d0f8      	beq.n	800561a <sbrk_aligned+0x22>
 8005628:	1a21      	subs	r1, r4, r0
 800562a:	4628      	mov	r0, r5
 800562c:	f001 f914 	bl	8006858 <_sbrk_r>
 8005630:	3001      	adds	r0, #1
 8005632:	d1f2      	bne.n	800561a <sbrk_aligned+0x22>
 8005634:	e7ef      	b.n	8005616 <sbrk_aligned+0x1e>
 8005636:	bf00      	nop
 8005638:	200057ac 	.word	0x200057ac

0800563c <_malloc_r>:
 800563c:	e92d 43f8 	stmdb	sp!, {r3, r4, r5, r6, r7, r8, r9, lr}
 8005640:	1ccd      	adds	r5, r1, #3
 8005642:	f025 0503 	bic.w	r5, r5, #3
 8005646:	3508      	adds	r5, #8
 8005648:	2d0c      	cmp	r5, #12
 800564a:	bf38      	it	cc
 800564c:	250c      	movcc	r5, #12
 800564e:	2d00      	cmp	r5, #0
 8005650:	4606      	mov	r6, r0
 8005652:	db01      	blt.n	8005658 <_malloc_r+0x1c>
 8005654:	42a9      	cmp	r1, r5
 8005656:	d904      	bls.n	8005662 <_malloc_r+0x26>
 8005658:	230c      	movs	r3, #12
 800565a:	6033      	str	r3, [r6, #0]
 800565c:	2000      	movs	r0, #0
 800565e:	e8bd 83f8 	ldmia.w	sp!, {r3, r4, r5, r6, r7, r8, r9, pc}
 8005662:	f8df 80d4 	ldr.w	r8, [pc, #212]	@ 8005738 <_malloc_r+0xfc>
 8005666:	f000 f869 	bl	800573c <__malloc_lock>
 800566a:	f8d8 3000 	ldr.w	r3, [r8]
 800566e:	461c      	mov	r4, r3
 8005670:	bb44      	cbnz	r4, 80056c4 <_malloc_r+0x88>
 8005672:	4629      	mov	r1, r5
 8005674:	4630      	mov	r0, r6
 8005676:	f7ff ffbf 	bl	80055f8 <sbrk_aligned>
 800567a:	1c43      	adds	r3, r0, #1
 800567c:	4604      	mov	r4, r0
 800567e:	d158      	bne.n	8005732 <_malloc_r+0xf6>
 8005680:	f8d8 4000 	ldr.w	r4, [r8]
 8005684:	4627      	mov	r7, r4
 8005686:	2f00      	cmp	r7, #0
 8005688:	d143      	bne.n	8005712 <_malloc_r+0xd6>
 800568a:	2c00      	cmp	r4, #0
 800568c:	d04b      	beq.n	8005726 <_malloc_r+0xea>
 800568e:	6823      	ldr	r3, [r4, #0]
 8005690:	4639      	mov	r1, r7
 8005692:	4630      	mov	r0, r6
 8005694:	eb04 0903 	add.w	r9, r4, r3
 8005698:	f001 f8de 	bl	8006858 <_sbrk_r>
 800569c:	4581      	cmp	r9, r0
 800569e:	d142      	bne.n	8005726 <_malloc_r+0xea>
 80056a0:	6821      	ldr	r1, [r4, #0]
 80056a2:	4630      	mov	r0, r6
 80056a4:	1a6d      	subs	r5, r5, r1
 80056a6:	4629      	mov	r1, r5
 80056a8:	f7ff ffa6 	bl	80055f8 <sbrk_aligned>
 80056ac:	3001      	adds	r0, #1
 80056ae:	d03a      	beq.n	8005726 <_malloc_r+0xea>
 80056b0:	6823      	ldr	r3, [r4, #0]
 80056b2:	442b      	add	r3, r5
 80056b4:	6023      	str	r3, [r4, #0]
 80056b6:	f8d8 3000 	ldr.w	r3, [r8]
 80056ba:	685a      	ldr	r2, [r3, #4]
 80056bc:	bb62      	cbnz	r2, 8005718 <_malloc_r+0xdc>
 80056be:	f8c8 7000 	str.w	r7, [r8]
 80056c2:	e00f      	b.n	80056e4 <_malloc_r+0xa8>
 80056c4:	6822      	ldr	r2, [r4, #0]
 80056c6:	1b52      	subs	r2, r2, r5
 80056c8:	d420      	bmi.n	800570c <_malloc_r+0xd0>
 80056ca:	2a0b      	cmp	r2, #11
 80056cc:	d917      	bls.n	80056fe <_malloc_r+0xc2>
 80056ce:	1961      	adds	r1, r4, r5
 80056d0:	42a3      	cmp	r3, r4
 80056d2:	6025      	str	r5, [r4, #0]
 80056d4:	bf18      	it	ne
 80056d6:	6059      	strne	r1, [r3, #4]
 80056d8:	6863      	ldr	r3, [r4, #4]
 80056da:	bf08      	it	eq
 80056dc:	f8c8 1000 	streq.w	r1, [r8]
 80056e0:	5162      	str	r2, [r4, r5]
 80056e2:	604b      	str	r3, [r1, #4]
 80056e4:	4630      	mov	r0, r6
 80056e6:	f000 f82f 	bl	8005748 <__malloc_unlock>
 80056ea:	f104 000b 	add.w	r0, r4, #11
 80056ee:	1d23      	adds	r3, r4, #4
 80056f0:	f020 0007 	bic.w	r0, r0, #7
 80056f4:	1ac2      	subs	r2, r0, r3
 80056f6:	bf1c      	itt	ne
 80056f8:	1a1b      	subne	r3, r3, r0
 80056fa:	50a3      	strne	r3, [r4, r2]
 80056fc:	e7af      	b.n	800565e <_malloc_r+0x22>
 80056fe:	6862      	ldr	r2, [r4, #4]
 8005700:	42a3      	cmp	r3, r4
 8005702:	bf0c      	ite	eq
 8005704:	f8c8 2000 	streq.w	r2, [r8]
 8005708:	605a      	strne	r2, [r3, #4]
 800570a:	e7eb      	b.n	80056e4 <_malloc_r+0xa8>
 800570c:	4623      	mov	r3, r4
 800570e:	6864      	ldr	r4, [r4, #4]
 8005710:	e7ae      	b.n	8005670 <_malloc_r+0x34>
 8005712:	463c      	mov	r4, r7
 8005714:	687f      	ldr	r7, [r7, #4]
 8005716:	e7b6      	b.n	8005686 <_malloc_r+0x4a>
 8005718:	461a      	mov	r2, r3
 800571a:	685b      	ldr	r3, [r3, #4]
 800571c:	42a3      	cmp	r3, r4
 800571e:	d1fb      	bne.n	8005718 <_malloc_r+0xdc>
 8005720:	2300      	movs	r3, #0
 8005722:	6053      	str	r3, [r2, #4]
 8005724:	e7de      	b.n	80056e4 <_malloc_r+0xa8>
 8005726:	230c      	movs	r3, #12
 8005728:	4630      	mov	r0, r6
 800572a:	6033      	str	r3, [r6, #0]
 800572c:	f000 f80c 	bl	8005748 <__malloc_unlock>
 8005730:	e794      	b.n	800565c <_malloc_r+0x20>
 8005732:	6005      	str	r5, [r0, #0]
 8005734:	e7d6      	b.n	80056e4 <_malloc_r+0xa8>
 8005736:	bf00      	nop
 8005738:	200057b0 	.word	0x200057b0

0800573c <__malloc_lock>:
 800573c:	4801      	ldr	r0, [pc, #4]	@ (8005744 <__malloc_lock+0x8>)
 800573e:	f7ff bf02 	b.w	8005546 <__retarget_lock_acquire_recursive>
 8005742:	bf00      	nop
 8005744:	200057a8 	.word	0x200057a8

08005748 <__malloc_unlock>:
 8005748:	4801      	ldr	r0, [pc, #4]	@ (8005750 <__malloc_unlock+0x8>)
 800574a:	f7ff befd 	b.w	8005548 <__retarget_lock_release_recursive>
 800574e:	bf00      	nop
 8005750:	200057a8 	.word	0x200057a8

08005754 <__ssputs_r>:
 8005754:	e92d 47f0 	stmdb	sp!, {r4, r5, r6, r7, r8, r9, sl, lr}
 8005758:	461f      	mov	r7, r3
 800575a:	688e      	ldr	r6, [r1, #8]
 800575c:	4682      	mov	sl, r0
 800575e:	42be      	cmp	r6, r7
 8005760:	460c      	mov	r4, r1
 8005762:	4690      	mov	r8, r2
 8005764:	680b      	ldr	r3, [r1, #0]
 8005766:	d82d      	bhi.n	80057c4 <__ssputs_r+0x70>
 8005768:	f9b1 200c 	ldrsh.w	r2, [r1, #12]
 800576c:	f412 6f90 	tst.w	r2, #1152	@ 0x480
 8005770:	d026      	beq.n	80057c0 <__ssputs_r+0x6c>
 8005772:	6965      	ldr	r5, [r4, #20]
 8005774:	6909      	ldr	r1, [r1, #16]
 8005776:	eb05 0545 	add.w	r5, r5, r5, lsl #1
 800577a:	eba3 0901 	sub.w	r9, r3, r1
 800577e:	eb05 75d5 	add.w	r5, r5, r5, lsr #31
 8005782:	1c7b      	adds	r3, r7, #1
 8005784:	444b      	add	r3, r9
 8005786:	106d      	asrs	r5, r5, #1
 8005788:	429d      	cmp	r5, r3
 800578a:	bf38      	it	cc
 800578c:	461d      	movcc	r5, r3
 800578e:	0553      	lsls	r3, r2, #21
 8005790:	d527      	bpl.n	80057e2 <__ssputs_r+0x8e>
 8005792:	4629      	mov	r1, r5
 8005794:	f7ff ff52 	bl	800563c <_malloc_r>
 8005798:	4606      	mov	r6, r0
 800579a:	b360      	cbz	r0, 80057f6 <__ssputs_r+0xa2>
 800579c:	464a      	mov	r2, r9
 800579e:	6921      	ldr	r1, [r4, #16]
 80057a0:	f7ff fed3 	bl	800554a <memcpy>
 80057a4:	89a3      	ldrh	r3, [r4, #12]
 80057a6:	f423 6390 	bic.w	r3, r3, #1152	@ 0x480
 80057aa:	f043 0380 	orr.w	r3, r3, #128	@ 0x80
 80057ae:	81a3      	strh	r3, [r4, #12]
 80057b0:	6126      	str	r6, [r4, #16]
 80057b2:	444e      	add	r6, r9
 80057b4:	6026      	str	r6, [r4, #0]
 80057b6:	463e      	mov	r6, r7
 80057b8:	6165      	str	r5, [r4, #20]
 80057ba:	eba5 0509 	sub.w	r5, r5, r9
 80057be:	60a5      	str	r5, [r4, #8]
 80057c0:	42be      	cmp	r6, r7
 80057c2:	d900      	bls.n	80057c6 <__ssputs_r+0x72>
 80057c4:	463e      	mov	r6, r7
 80057c6:	4632      	mov	r2, r6
 80057c8:	4641      	mov	r1, r8
 80057ca:	6820      	ldr	r0, [r4, #0]
 80057cc:	f001 f808 	bl	80067e0 <memmove>
 80057d0:	2000      	movs	r0, #0
 80057d2:	68a3      	ldr	r3, [r4, #8]
 80057d4:	1b9b      	subs	r3, r3, r6
 80057d6:	60a3      	str	r3, [r4, #8]
 80057d8:	6823      	ldr	r3, [r4, #0]
 80057da:	4433      	add	r3, r6
 80057dc:	6023      	str	r3, [r4, #0]
 80057de:	e8bd 87f0 	ldmia.w	sp!, {r4, r5, r6, r7, r8, r9, sl, pc}
 80057e2:	462a      	mov	r2, r5
 80057e4:	f001 f856 	bl	8006894 <_realloc_r>
 80057e8:	4606      	mov	r6, r0
 80057ea:	2800      	cmp	r0, #0
 80057ec:	d1e0      	bne.n	80057b0 <__ssputs_r+0x5c>
 80057ee:	4650      	mov	r0, sl
 80057f0:	6921      	ldr	r1, [r4, #16]
 80057f2:	f7ff feb9 	bl	8005568 <_free_r>
 80057f6:	230c      	movs	r3, #12
 80057f8:	f8ca 3000 	str.w	r3, [sl]
 80057fc:	89a3      	ldrh	r3, [r4, #12]
 80057fe:	f04f 30ff 	mov.w	r0, #4294967295
 8005802:	f043 0340 	orr.w	r3, r3, #64	@ 0x40
 8005806:	81a3      	strh	r3, [r4, #12]
 8005808:	e7e9      	b.n	80057de <__ssputs_r+0x8a>
	...

0800580c <_svfiprintf_r>:
 800580c:	e92d 4ff0 	stmdb	sp!, {r4, r5, r6, r7, r8, r9, sl, fp, lr}
 8005810:	4698      	mov	r8, r3
 8005812:	898b      	ldrh	r3, [r1, #12]
 8005814:	4607      	mov	r7, r0
 8005816:	061b      	lsls	r3, r3, #24
 8005818:	460d      	mov	r5, r1
 800581a:	4614      	mov	r4, r2
 800581c:	b09d      	sub	sp, #116	@ 0x74
 800581e:	d510      	bpl.n	8005842 <_svfiprintf_r+0x36>
 8005820:	690b      	ldr	r3, [r1, #16]
 8005822:	b973      	cbnz	r3, 8005842 <_svfiprintf_r+0x36>
 8005824:	2140      	movs	r1, #64	@ 0x40
 8005826:	f7ff ff09 	bl	800563c <_malloc_r>
 800582a:	6028      	str	r0, [r5, #0]
 800582c:	6128      	str	r0, [r5, #16]
 800582e:	b930      	cbnz	r0, 800583e <_svfiprintf_r+0x32>
 8005830:	230c      	movs	r3, #12
 8005832:	603b      	str	r3, [r7, #0]
 8005834:	f04f 30ff 	mov.w	r0, #4294967295
 8005838:	b01d      	add	sp, #116	@ 0x74
 800583a:	e8bd 8ff0 	ldmia.w	sp!, {r4, r5, r6, r7, r8, r9, sl, fp, pc}
 800583e:	2340      	movs	r3, #64	@ 0x40
 8005840:	616b      	str	r3, [r5, #20]
 8005842:	2300      	movs	r3, #0
 8005844:	9309      	str	r3, [sp, #36]	@ 0x24
 8005846:	2320      	movs	r3, #32
 8005848:	f88d 3029 	strb.w	r3, [sp, #41]	@ 0x29
 800584c:	2330      	movs	r3, #48	@ 0x30
 800584e:	f04f 0901 	mov.w	r9, #1
 8005852:	f8cd 800c 	str.w	r8, [sp, #12]
 8005856:	f8df 8198 	ldr.w	r8, [pc, #408]	@ 80059f0 <_svfiprintf_r+0x1e4>
 800585a:	f88d 302a 	strb.w	r3, [sp, #42]	@ 0x2a
 800585e:	4623      	mov	r3, r4
 8005860:	469a      	mov	sl, r3
 8005862:	f813 2b01 	ldrb.w	r2, [r3], #1
 8005866:	b10a      	cbz	r2, 800586c <_svfiprintf_r+0x60>
 8005868:	2a25      	cmp	r2, #37	@ 0x25
 800586a:	d1f9      	bne.n	8005860 <_svfiprintf_r+0x54>
 800586c:	ebba 0b04 	subs.w	fp, sl, r4
 8005870:	d00b      	beq.n	800588a <_svfiprintf_r+0x7e>
 8005872:	465b      	mov	r3, fp
 8005874:	4622      	mov	r2, r4
 8005876:	4629      	mov	r1, r5
 8005878:	4638      	mov	r0, r7
 800587a:	f7ff ff6b 	bl	8005754 <__ssputs_r>
 800587e:	3001      	adds	r0, #1
 8005880:	f000 80a7 	beq.w	80059d2 <_svfiprintf_r+0x1c6>
 8005884:	9a09      	ldr	r2, [sp, #36]	@ 0x24
 8005886:	445a      	add	r2, fp
 8005888:	9209      	str	r2, [sp, #36]	@ 0x24
 800588a:	f89a 3000 	ldrb.w	r3, [sl]
 800588e:	2b00      	cmp	r3, #0
 8005890:	f000 809f 	beq.w	80059d2 <_svfiprintf_r+0x1c6>
 8005894:	2300      	movs	r3, #0
 8005896:	f04f 32ff 	mov.w	r2, #4294967295
 800589a:	e9cd 2305 	strd	r2, r3, [sp, #20]
 800589e:	f10a 0a01 	add.w	sl, sl, #1
 80058a2:	9304      	str	r3, [sp, #16]
 80058a4:	9307      	str	r3, [sp, #28]
 80058a6:	f88d 3053 	strb.w	r3, [sp, #83]	@ 0x53
 80058aa:	931a      	str	r3, [sp, #104]	@ 0x68
 80058ac:	4654      	mov	r4, sl
 80058ae:	2205      	movs	r2, #5
 80058b0:	f814 1b01 	ldrb.w	r1, [r4], #1
 80058b4:	484e      	ldr	r0, [pc, #312]	@ (80059f0 <_svfiprintf_r+0x1e4>)
 80058b6:	f000 ffdf 	bl	8006878 <memchr>
 80058ba:	9a04      	ldr	r2, [sp, #16]
 80058bc:	b9d8      	cbnz	r0, 80058f6 <_svfiprintf_r+0xea>
 80058be:	06d0      	lsls	r0, r2, #27
 80058c0:	bf44      	itt	mi
 80058c2:	2320      	movmi	r3, #32
 80058c4:	f88d 3053 	strbmi.w	r3, [sp, #83]	@ 0x53
 80058c8:	0711      	lsls	r1, r2, #28
 80058ca:	bf44      	itt	mi
 80058cc:	232b      	movmi	r3, #43	@ 0x2b
 80058ce:	f88d 3053 	strbmi.w	r3, [sp, #83]	@ 0x53
 80058d2:	f89a 3000 	ldrb.w	r3, [sl]
 80058d6:	2b2a      	cmp	r3, #42	@ 0x2a
 80058d8:	d015      	beq.n	8005906 <_svfiprintf_r+0xfa>
 80058da:	4654      	mov	r4, sl
 80058dc:	2000      	movs	r0, #0
 80058de:	f04f 0c0a 	mov.w	ip, #10
 80058e2:	9a07      	ldr	r2, [sp, #28]
 80058e4:	4621      	mov	r1, r4
 80058e6:	f811 3b01 	ldrb.w	r3, [r1], #1
 80058ea:	3b30      	subs	r3, #48	@ 0x30
 80058ec:	2b09      	cmp	r3, #9
 80058ee:	d94b      	bls.n	8005988 <_svfiprintf_r+0x17c>
 80058f0:	b1b0      	cbz	r0, 8005920 <_svfiprintf_r+0x114>
 80058f2:	9207      	str	r2, [sp, #28]
 80058f4:	e014      	b.n	8005920 <_svfiprintf_r+0x114>
 80058f6:	eba0 0308 	sub.w	r3, r0, r8
 80058fa:	fa09 f303 	lsl.w	r3, r9, r3
 80058fe:	4313      	orrs	r3, r2
 8005900:	46a2      	mov	sl, r4
 8005902:	9304      	str	r3, [sp, #16]
 8005904:	e7d2      	b.n	80058ac <_svfiprintf_r+0xa0>
 8005906:	9b03      	ldr	r3, [sp, #12]
 8005908:	1d19      	adds	r1, r3, #4
 800590a:	681b      	ldr	r3, [r3, #0]
 800590c:	9103      	str	r1, [sp, #12]
 800590e:	2b00      	cmp	r3, #0
 8005910:	bfbb      	ittet	lt
 8005912:	425b      	neglt	r3, r3
 8005914:	f042 0202 	orrlt.w	r2, r2, #2
 8005918:	9307      	strge	r3, [sp, #28]
 800591a:	9307      	strlt	r3, [sp, #28]
 800591c:	bfb8      	it	lt
 800591e:	9204      	strlt	r2, [sp, #16]
 8005920:	7823      	ldrb	r3, [r4, #0]
 8005922:	2b2e      	cmp	r3, #46	@ 0x2e
 8005924:	d10a      	bne.n	800593c <_svfiprintf_r+0x130>
 8005926:	7863      	ldrb	r3, [r4, #1]
 8005928:	2b2a      	cmp	r3, #42	@ 0x2a
 800592a:	d132      	bne.n	8005992 <_svfiprintf_r+0x186>
 800592c:	9b03      	ldr	r3, [sp, #12]
 800592e:	3402      	adds	r4, #2
 8005930:	1d1a      	adds	r2, r3, #4
 8005932:	681b      	ldr	r3, [r3, #0]
 8005934:	9203      	str	r2, [sp, #12]
 8005936:	ea43 73e3 	orr.w	r3, r3, r3, asr #31
 800593a:	9305      	str	r3, [sp, #20]
 800593c:	f8df a0b4 	ldr.w	sl, [pc, #180]	@ 80059f4 <_svfiprintf_r+0x1e8>
 8005940:	2203      	movs	r2, #3
 8005942:	4650      	mov	r0, sl
 8005944:	7821      	ldrb	r1, [r4, #0]
 8005946:	f000 ff97 	bl	8006878 <memchr>
 800594a:	b138      	cbz	r0, 800595c <_svfiprintf_r+0x150>
 800594c:	2240      	movs	r2, #64	@ 0x40
 800594e:	9b04      	ldr	r3, [sp, #16]
 8005950:	eba0 000a 	sub.w	r0, r0, sl
 8005954:	4082      	lsls	r2, r0
 8005956:	4313      	orrs	r3, r2
 8005958:	3401      	adds	r4, #1
 800595a:	9304      	str	r3, [sp, #16]
 800595c:	f814 1b01 	ldrb.w	r1, [r4], #1
 8005960:	2206      	movs	r2, #6
 8005962:	4825      	ldr	r0, [pc, #148]	@ (80059f8 <_svfiprintf_r+0x1ec>)
 8005964:	f88d 1028 	strb.w	r1, [sp, #40]	@ 0x28
 8005968:	f000 ff86 	bl	8006878 <memchr>
 800596c:	2800      	cmp	r0, #0
 800596e:	d036      	beq.n	80059de <_svfiprintf_r+0x1d2>
 8005970:	4b22      	ldr	r3, [pc, #136]	@ (80059fc <_svfiprintf_r+0x1f0>)
 8005972:	bb1b      	cbnz	r3, 80059bc <_svfiprintf_r+0x1b0>
 8005974:	9b03      	ldr	r3, [sp, #12]
 8005976:	3307      	adds	r3, #7
 8005978:	f023 0307 	bic.w	r3, r3, #7
 800597c:	3308      	adds	r3, #8
 800597e:	9303      	str	r3, [sp, #12]
 8005980:	9b09      	ldr	r3, [sp, #36]	@ 0x24
 8005982:	4433      	add	r3, r6
 8005984:	9309      	str	r3, [sp, #36]	@ 0x24
 8005986:	e76a      	b.n	800585e <_svfiprintf_r+0x52>
 8005988:	460c      	mov	r4, r1
 800598a:	2001      	movs	r0, #1
 800598c:	fb0c 3202 	mla	r2, ip, r2, r3
 8005990:	e7a8      	b.n	80058e4 <_svfiprintf_r+0xd8>
 8005992:	2300      	movs	r3, #0
 8005994:	f04f 0c0a 	mov.w	ip, #10
 8005998:	4619      	mov	r1, r3
 800599a:	3401      	adds	r4, #1
 800599c:	9305      	str	r3, [sp, #20]
 800599e:	4620      	mov	r0, r4
 80059a0:	f810 2b01 	ldrb.w	r2, [r0], #1
 80059a4:	3a30      	subs	r2, #48	@ 0x30
 80059a6:	2a09      	cmp	r2, #9
 80059a8:	d903      	bls.n	80059b2 <_svfiprintf_r+0x1a6>
 80059aa:	2b00      	cmp	r3, #0
 80059ac:	d0c6      	beq.n	800593c <_svfiprintf_r+0x130>
 80059ae:	9105      	str	r1, [sp, #20]
 80059b0:	e7c4      	b.n	800593c <_svfiprintf_r+0x130>
 80059b2:	4604      	mov	r4, r0
 80059b4:	2301      	movs	r3, #1
 80059b6:	fb0c 2101 	mla	r1, ip, r1, r2
 80059ba:	e7f0      	b.n	800599e <_svfiprintf_r+0x192>
 80059bc:	ab03      	add	r3, sp, #12
 80059be:	9300      	str	r3, [sp, #0]
 80059c0:	462a      	mov	r2, r5
 80059c2:	4638      	mov	r0, r7
 80059c4:	4b0e      	ldr	r3, [pc, #56]	@ (8005a00 <_svfiprintf_r+0x1f4>)
 80059c6:	a904      	add	r1, sp, #16
 80059c8:	f3af 8000 	nop.w
 80059cc:	1c42      	adds	r2, r0, #1
 80059ce:	4606      	mov	r6, r0
 80059d0:	d1d6      	bne.n	8005980 <_svfiprintf_r+0x174>
 80059d2:	89ab      	ldrh	r3, [r5, #12]
 80059d4:	065b      	lsls	r3, r3, #25
 80059d6:	f53f af2d 	bmi.w	8005834 <_svfiprintf_r+0x28>
 80059da:	9809      	ldr	r0, [sp, #36]	@ 0x24
 80059dc:	e72c      	b.n	8005838 <_svfiprintf_r+0x2c>
 80059de:	ab03      	add	r3, sp, #12
 80059e0:	9300      	str	r3, [sp, #0]
 80059e2:	462a      	mov	r2, r5
 80059e4:	4638      	mov	r0, r7
 80059e6:	4b06      	ldr	r3, [pc, #24]	@ (8005a00 <_svfiprintf_r+0x1f4>)
 80059e8:	a904      	add	r1, sp, #16
 80059ea:	f000 fb87 	bl	80060fc <_printf_i>
 80059ee:	e7ed      	b.n	80059cc <_svfiprintf_r+0x1c0>
 80059f0:	08007868 	.word	0x08007868
 80059f4:	0800786e 	.word	0x0800786e
 80059f8:	08007872 	.word	0x08007872
 80059fc:	00000000 	.word	0x00000000
 8005a00:	08005755 	.word	0x08005755

08005a04 <_sungetc_r>:
 8005a04:	b538      	push	{r3, r4, r5, lr}
 8005a06:	1c4b      	adds	r3, r1, #1
 8005a08:	4614      	mov	r4, r2
 8005a0a:	d103      	bne.n	8005a14 <_sungetc_r+0x10>
 8005a0c:	f04f 35ff 	mov.w	r5, #4294967295
 8005a10:	4628      	mov	r0, r5
 8005a12:	bd38      	pop	{r3, r4, r5, pc}
 8005a14:	8993      	ldrh	r3, [r2, #12]
 8005a16:	b2cd      	uxtb	r5, r1
 8005a18:	f023 0320 	bic.w	r3, r3, #32
 8005a1c:	8193      	strh	r3, [r2, #12]
 8005a1e:	6853      	ldr	r3, [r2, #4]
 8005a20:	6b52      	ldr	r2, [r2, #52]	@ 0x34
 8005a22:	b18a      	cbz	r2, 8005a48 <_sungetc_r+0x44>
 8005a24:	6ba2      	ldr	r2, [r4, #56]	@ 0x38
 8005a26:	429a      	cmp	r2, r3
 8005a28:	dd08      	ble.n	8005a3c <_sungetc_r+0x38>
 8005a2a:	6823      	ldr	r3, [r4, #0]
 8005a2c:	1e5a      	subs	r2, r3, #1
 8005a2e:	6022      	str	r2, [r4, #0]
 8005a30:	f803 5c01 	strb.w	r5, [r3, #-1]
 8005a34:	6863      	ldr	r3, [r4, #4]
 8005a36:	3301      	adds	r3, #1
 8005a38:	6063      	str	r3, [r4, #4]
 8005a3a:	e7e9      	b.n	8005a10 <_sungetc_r+0xc>
 8005a3c:	4621      	mov	r1, r4
 8005a3e:	f000 fe97 	bl	8006770 <__submore>
 8005a42:	2800      	cmp	r0, #0
 8005a44:	d0f1      	beq.n	8005a2a <_sungetc_r+0x26>
 8005a46:	e7e1      	b.n	8005a0c <_sungetc_r+0x8>
 8005a48:	6921      	ldr	r1, [r4, #16]
 8005a4a:	6822      	ldr	r2, [r4, #0]
 8005a4c:	b141      	cbz	r1, 8005a60 <_sungetc_r+0x5c>
 8005a4e:	4291      	cmp	r1, r2
 8005a50:	d206      	bcs.n	8005a60 <_sungetc_r+0x5c>
 8005a52:	f812 1c01 	ldrb.w	r1, [r2, #-1]
 8005a56:	42a9      	cmp	r1, r5
 8005a58:	d102      	bne.n	8005a60 <_sungetc_r+0x5c>
 8005a5a:	3a01      	subs	r2, #1
 8005a5c:	6022      	str	r2, [r4, #0]
 8005a5e:	e7ea      	b.n	8005a36 <_sungetc_r+0x32>
 8005a60:	e9c4 230f 	strd	r2, r3, [r4, #60]	@ 0x3c
 8005a64:	f104 0344 	add.w	r3, r4, #68	@ 0x44
 8005a68:	6363      	str	r3, [r4, #52]	@ 0x34
 8005a6a:	2303      	movs	r3, #3
 8005a6c:	63a3      	str	r3, [r4, #56]	@ 0x38
 8005a6e:	4623      	mov	r3, r4
 8005a70:	f803 5f46 	strb.w	r5, [r3, #70]!
 8005a74:	6023      	str	r3, [r4, #0]
 8005a76:	2301      	movs	r3, #1
 8005a78:	e7de      	b.n	8005a38 <_sungetc_r+0x34>

08005a7a <__ssrefill_r>:
 8005a7a:	b510      	push	{r4, lr}
 8005a7c:	460c      	mov	r4, r1
 8005a7e:	6b49      	ldr	r1, [r1, #52]	@ 0x34
 8005a80:	b169      	cbz	r1, 8005a9e <__ssrefill_r+0x24>
 8005a82:	f104 0344 	add.w	r3, r4, #68	@ 0x44
 8005a86:	4299      	cmp	r1, r3
 8005a88:	d001      	beq.n	8005a8e <__ssrefill_r+0x14>
 8005a8a:	f7ff fd6d 	bl	8005568 <_free_r>
 8005a8e:	2000      	movs	r0, #0
 8005a90:	6c23      	ldr	r3, [r4, #64]	@ 0x40
 8005a92:	6360      	str	r0, [r4, #52]	@ 0x34
 8005a94:	6063      	str	r3, [r4, #4]
 8005a96:	b113      	cbz	r3, 8005a9e <__ssrefill_r+0x24>
 8005a98:	6be3      	ldr	r3, [r4, #60]	@ 0x3c
 8005a9a:	6023      	str	r3, [r4, #0]
 8005a9c:	bd10      	pop	{r4, pc}
 8005a9e:	6923      	ldr	r3, [r4, #16]
 8005aa0:	f04f 30ff 	mov.w	r0, #4294967295
 8005aa4:	6023      	str	r3, [r4, #0]
 8005aa6:	2300      	movs	r3, #0
 8005aa8:	6063      	str	r3, [r4, #4]
 8005aaa:	89a3      	ldrh	r3, [r4, #12]
 8005aac:	f043 0320 	orr.w	r3, r3, #32
 8005ab0:	81a3      	strh	r3, [r4, #12]
 8005ab2:	e7f3      	b.n	8005a9c <__ssrefill_r+0x22>

08005ab4 <__ssvfiscanf_r>:
 8005ab4:	e92d 47f0 	stmdb	sp!, {r4, r5, r6, r7, r8, r9, sl, lr}
 8005ab8:	460c      	mov	r4, r1
 8005aba:	2100      	movs	r1, #0
 8005abc:	4606      	mov	r6, r0
 8005abe:	f5ad 7d22 	sub.w	sp, sp, #648	@ 0x288
 8005ac2:	e9cd 1144 	strd	r1, r1, [sp, #272]	@ 0x110
 8005ac6:	49aa      	ldr	r1, [pc, #680]	@ (8005d70 <__ssvfiscanf_r+0x2bc>)
 8005ac8:	f10d 0804 	add.w	r8, sp, #4
 8005acc:	91a0      	str	r1, [sp, #640]	@ 0x280
 8005ace:	49a9      	ldr	r1, [pc, #676]	@ (8005d74 <__ssvfiscanf_r+0x2c0>)
 8005ad0:	4fa9      	ldr	r7, [pc, #676]	@ (8005d78 <__ssvfiscanf_r+0x2c4>)
 8005ad2:	f8cd 8118 	str.w	r8, [sp, #280]	@ 0x118
 8005ad6:	91a1      	str	r1, [sp, #644]	@ 0x284
 8005ad8:	9300      	str	r3, [sp, #0]
 8005ada:	7813      	ldrb	r3, [r2, #0]
 8005adc:	2b00      	cmp	r3, #0
 8005ade:	f000 8159 	beq.w	8005d94 <__ssvfiscanf_r+0x2e0>
 8005ae2:	5cf9      	ldrb	r1, [r7, r3]
 8005ae4:	1c55      	adds	r5, r2, #1
 8005ae6:	f011 0108 	ands.w	r1, r1, #8
 8005aea:	d019      	beq.n	8005b20 <__ssvfiscanf_r+0x6c>
 8005aec:	6863      	ldr	r3, [r4, #4]
 8005aee:	2b00      	cmp	r3, #0
 8005af0:	dd0f      	ble.n	8005b12 <__ssvfiscanf_r+0x5e>
 8005af2:	6823      	ldr	r3, [r4, #0]
 8005af4:	781a      	ldrb	r2, [r3, #0]
 8005af6:	5cba      	ldrb	r2, [r7, r2]
 8005af8:	0712      	lsls	r2, r2, #28
 8005afa:	d401      	bmi.n	8005b00 <__ssvfiscanf_r+0x4c>
 8005afc:	462a      	mov	r2, r5
 8005afe:	e7ec      	b.n	8005ada <__ssvfiscanf_r+0x26>
 8005b00:	9a45      	ldr	r2, [sp, #276]	@ 0x114
 8005b02:	3301      	adds	r3, #1
 8005b04:	3201      	adds	r2, #1
 8005b06:	9245      	str	r2, [sp, #276]	@ 0x114
 8005b08:	6862      	ldr	r2, [r4, #4]
 8005b0a:	6023      	str	r3, [r4, #0]
 8005b0c:	3a01      	subs	r2, #1
 8005b0e:	6062      	str	r2, [r4, #4]
 8005b10:	e7ec      	b.n	8005aec <__ssvfiscanf_r+0x38>
 8005b12:	4621      	mov	r1, r4
 8005b14:	4630      	mov	r0, r6
 8005b16:	9ba1      	ldr	r3, [sp, #644]	@ 0x284
 8005b18:	4798      	blx	r3
 8005b1a:	2800      	cmp	r0, #0
 8005b1c:	d0e9      	beq.n	8005af2 <__ssvfiscanf_r+0x3e>
 8005b1e:	e7ed      	b.n	8005afc <__ssvfiscanf_r+0x48>
 8005b20:	2b25      	cmp	r3, #37	@ 0x25
 8005b22:	d012      	beq.n	8005b4a <__ssvfiscanf_r+0x96>
 8005b24:	4699      	mov	r9, r3
 8005b26:	6863      	ldr	r3, [r4, #4]
 8005b28:	2b00      	cmp	r3, #0
 8005b2a:	f340 8094 	ble.w	8005c56 <__ssvfiscanf_r+0x1a2>
 8005b2e:	6822      	ldr	r2, [r4, #0]
 8005b30:	7813      	ldrb	r3, [r2, #0]
 8005b32:	454b      	cmp	r3, r9
 8005b34:	f040 812e 	bne.w	8005d94 <__ssvfiscanf_r+0x2e0>
 8005b38:	6863      	ldr	r3, [r4, #4]
 8005b3a:	3201      	adds	r2, #1
 8005b3c:	3b01      	subs	r3, #1
 8005b3e:	6063      	str	r3, [r4, #4]
 8005b40:	9b45      	ldr	r3, [sp, #276]	@ 0x114
 8005b42:	6022      	str	r2, [r4, #0]
 8005b44:	3301      	adds	r3, #1
 8005b46:	9345      	str	r3, [sp, #276]	@ 0x114
 8005b48:	e7d8      	b.n	8005afc <__ssvfiscanf_r+0x48>
 8005b4a:	9141      	str	r1, [sp, #260]	@ 0x104
 8005b4c:	9143      	str	r1, [sp, #268]	@ 0x10c
 8005b4e:	7853      	ldrb	r3, [r2, #1]
 8005b50:	2b2a      	cmp	r3, #42	@ 0x2a
 8005b52:	bf04      	itt	eq
 8005b54:	2310      	moveq	r3, #16
 8005b56:	1c95      	addeq	r5, r2, #2
 8005b58:	f04f 020a 	mov.w	r2, #10
 8005b5c:	bf08      	it	eq
 8005b5e:	9341      	streq	r3, [sp, #260]	@ 0x104
 8005b60:	46a9      	mov	r9, r5
 8005b62:	f819 1b01 	ldrb.w	r1, [r9], #1
 8005b66:	f1a1 0330 	sub.w	r3, r1, #48	@ 0x30
 8005b6a:	2b09      	cmp	r3, #9
 8005b6c:	d91e      	bls.n	8005bac <__ssvfiscanf_r+0xf8>
 8005b6e:	f8df a20c 	ldr.w	sl, [pc, #524]	@ 8005d7c <__ssvfiscanf_r+0x2c8>
 8005b72:	2203      	movs	r2, #3
 8005b74:	4650      	mov	r0, sl
 8005b76:	f000 fe7f 	bl	8006878 <memchr>
 8005b7a:	b138      	cbz	r0, 8005b8c <__ssvfiscanf_r+0xd8>
 8005b7c:	2301      	movs	r3, #1
 8005b7e:	464d      	mov	r5, r9
 8005b80:	9a41      	ldr	r2, [sp, #260]	@ 0x104
 8005b82:	eba0 000a 	sub.w	r0, r0, sl
 8005b86:	4083      	lsls	r3, r0
 8005b88:	4313      	orrs	r3, r2
 8005b8a:	9341      	str	r3, [sp, #260]	@ 0x104
 8005b8c:	f815 3b01 	ldrb.w	r3, [r5], #1
 8005b90:	2b78      	cmp	r3, #120	@ 0x78
 8005b92:	d806      	bhi.n	8005ba2 <__ssvfiscanf_r+0xee>
 8005b94:	2b57      	cmp	r3, #87	@ 0x57
 8005b96:	d810      	bhi.n	8005bba <__ssvfiscanf_r+0x106>
 8005b98:	2b25      	cmp	r3, #37	@ 0x25
 8005b9a:	d0c3      	beq.n	8005b24 <__ssvfiscanf_r+0x70>
 8005b9c:	d856      	bhi.n	8005c4c <__ssvfiscanf_r+0x198>
 8005b9e:	2b00      	cmp	r3, #0
 8005ba0:	d064      	beq.n	8005c6c <__ssvfiscanf_r+0x1b8>
 8005ba2:	2303      	movs	r3, #3
 8005ba4:	9347      	str	r3, [sp, #284]	@ 0x11c
 8005ba6:	230a      	movs	r3, #10
 8005ba8:	9342      	str	r3, [sp, #264]	@ 0x108
 8005baa:	e077      	b.n	8005c9c <__ssvfiscanf_r+0x1e8>
 8005bac:	9b43      	ldr	r3, [sp, #268]	@ 0x10c
 8005bae:	464d      	mov	r5, r9
 8005bb0:	fb02 1103 	mla	r1, r2, r3, r1
 8005bb4:	3930      	subs	r1, #48	@ 0x30
 8005bb6:	9143      	str	r1, [sp, #268]	@ 0x10c
 8005bb8:	e7d2      	b.n	8005b60 <__ssvfiscanf_r+0xac>
 8005bba:	f1a3 0258 	sub.w	r2, r3, #88	@ 0x58
 8005bbe:	2a20      	cmp	r2, #32
 8005bc0:	d8ef      	bhi.n	8005ba2 <__ssvfiscanf_r+0xee>
 8005bc2:	a101      	add	r1, pc, #4	@ (adr r1, 8005bc8 <__ssvfiscanf_r+0x114>)
 8005bc4:	f851 f022 	ldr.w	pc, [r1, r2, lsl #2]
 8005bc8:	08005c7b 	.word	0x08005c7b
 8005bcc:	08005ba3 	.word	0x08005ba3
 8005bd0:	08005ba3 	.word	0x08005ba3
 8005bd4:	08005cd5 	.word	0x08005cd5
 8005bd8:	08005ba3 	.word	0x08005ba3
 8005bdc:	08005ba3 	.word	0x08005ba3
 8005be0:	08005ba3 	.word	0x08005ba3
 8005be4:	08005ba3 	.word	0x08005ba3
 8005be8:	08005ba3 	.word	0x08005ba3
 8005bec:	08005ba3 	.word	0x08005ba3
 8005bf0:	08005ba3 	.word	0x08005ba3
 8005bf4:	08005ceb 	.word	0x08005ceb
 8005bf8:	08005cd1 	.word	0x08005cd1
 8005bfc:	08005c53 	.word	0x08005c53
 8005c00:	08005c53 	.word	0x08005c53
 8005c04:	08005c53 	.word	0x08005c53
 8005c08:	08005ba3 	.word	0x08005ba3
 8005c0c:	08005c8d 	.word	0x08005c8d
 8005c10:	08005ba3 	.word	0x08005ba3
 8005c14:	08005ba3 	.word	0x08005ba3
 8005c18:	08005ba3 	.word	0x08005ba3
 8005c1c:	08005ba3 	.word	0x08005ba3
 8005c20:	08005cfb 	.word	0x08005cfb
 8005c24:	08005c95 	.word	0x08005c95
 8005c28:	08005c73 	.word	0x08005c73
 8005c2c:	08005ba3 	.word	0x08005ba3
 8005c30:	08005ba3 	.word	0x08005ba3
 8005c34:	08005cf7 	.word	0x08005cf7
 8005c38:	08005ba3 	.word	0x08005ba3
 8005c3c:	08005cd1 	.word	0x08005cd1
 8005c40:	08005ba3 	.word	0x08005ba3
 8005c44:	08005ba3 	.word	0x08005ba3
 8005c48:	08005c7b 	.word	0x08005c7b
 8005c4c:	3b45      	subs	r3, #69	@ 0x45
 8005c4e:	2b02      	cmp	r3, #2
 8005c50:	d8a7      	bhi.n	8005ba2 <__ssvfiscanf_r+0xee>
 8005c52:	2305      	movs	r3, #5
 8005c54:	e021      	b.n	8005c9a <__ssvfiscanf_r+0x1e6>
 8005c56:	4621      	mov	r1, r4
 8005c58:	4630      	mov	r0, r6
 8005c5a:	9ba1      	ldr	r3, [sp, #644]	@ 0x284
 8005c5c:	4798      	blx	r3
 8005c5e:	2800      	cmp	r0, #0
 8005c60:	f43f af65 	beq.w	8005b2e <__ssvfiscanf_r+0x7a>
 8005c64:	9844      	ldr	r0, [sp, #272]	@ 0x110
 8005c66:	2800      	cmp	r0, #0
 8005c68:	f040 808c 	bne.w	8005d84 <__ssvfiscanf_r+0x2d0>
 8005c6c:	f04f 30ff 	mov.w	r0, #4294967295
 8005c70:	e08c      	b.n	8005d8c <__ssvfiscanf_r+0x2d8>
 8005c72:	9a41      	ldr	r2, [sp, #260]	@ 0x104
 8005c74:	f042 0220 	orr.w	r2, r2, #32
 8005c78:	9241      	str	r2, [sp, #260]	@ 0x104
 8005c7a:	9a41      	ldr	r2, [sp, #260]	@ 0x104
 8005c7c:	f442 7200 	orr.w	r2, r2, #512	@ 0x200
 8005c80:	9241      	str	r2, [sp, #260]	@ 0x104
 8005c82:	2210      	movs	r2, #16
 8005c84:	2b6e      	cmp	r3, #110	@ 0x6e
 8005c86:	9242      	str	r2, [sp, #264]	@ 0x108
 8005c88:	d902      	bls.n	8005c90 <__ssvfiscanf_r+0x1dc>
 8005c8a:	e005      	b.n	8005c98 <__ssvfiscanf_r+0x1e4>
 8005c8c:	2300      	movs	r3, #0
 8005c8e:	9342      	str	r3, [sp, #264]	@ 0x108
 8005c90:	2303      	movs	r3, #3
 8005c92:	e002      	b.n	8005c9a <__ssvfiscanf_r+0x1e6>
 8005c94:	2308      	movs	r3, #8
 8005c96:	9342      	str	r3, [sp, #264]	@ 0x108
 8005c98:	2304      	movs	r3, #4
 8005c9a:	9347      	str	r3, [sp, #284]	@ 0x11c
 8005c9c:	6863      	ldr	r3, [r4, #4]
 8005c9e:	2b00      	cmp	r3, #0
 8005ca0:	dd39      	ble.n	8005d16 <__ssvfiscanf_r+0x262>
 8005ca2:	9b41      	ldr	r3, [sp, #260]	@ 0x104
 8005ca4:	0659      	lsls	r1, r3, #25
 8005ca6:	d404      	bmi.n	8005cb2 <__ssvfiscanf_r+0x1fe>
 8005ca8:	6823      	ldr	r3, [r4, #0]
 8005caa:	781a      	ldrb	r2, [r3, #0]
 8005cac:	5cba      	ldrb	r2, [r7, r2]
 8005cae:	0712      	lsls	r2, r2, #28
 8005cb0:	d438      	bmi.n	8005d24 <__ssvfiscanf_r+0x270>
 8005cb2:	9b47      	ldr	r3, [sp, #284]	@ 0x11c
 8005cb4:	2b02      	cmp	r3, #2
 8005cb6:	dc47      	bgt.n	8005d48 <__ssvfiscanf_r+0x294>
 8005cb8:	466b      	mov	r3, sp
 8005cba:	4622      	mov	r2, r4
 8005cbc:	4630      	mov	r0, r6
 8005cbe:	a941      	add	r1, sp, #260	@ 0x104
 8005cc0:	f000 fb3c 	bl	800633c <_scanf_chars>
 8005cc4:	2801      	cmp	r0, #1
 8005cc6:	d065      	beq.n	8005d94 <__ssvfiscanf_r+0x2e0>
 8005cc8:	2802      	cmp	r0, #2
 8005cca:	f47f af17 	bne.w	8005afc <__ssvfiscanf_r+0x48>
 8005cce:	e7c9      	b.n	8005c64 <__ssvfiscanf_r+0x1b0>
 8005cd0:	220a      	movs	r2, #10
 8005cd2:	e7d7      	b.n	8005c84 <__ssvfiscanf_r+0x1d0>
 8005cd4:	4629      	mov	r1, r5
 8005cd6:	4640      	mov	r0, r8
 8005cd8:	f000 fd11 	bl	80066fe <__sccl>
 8005cdc:	9b41      	ldr	r3, [sp, #260]	@ 0x104
 8005cde:	4605      	mov	r5, r0
 8005ce0:	f043 0340 	orr.w	r3, r3, #64	@ 0x40
 8005ce4:	9341      	str	r3, [sp, #260]	@ 0x104
 8005ce6:	2301      	movs	r3, #1
 8005ce8:	e7d7      	b.n	8005c9a <__ssvfiscanf_r+0x1e6>
 8005cea:	9b41      	ldr	r3, [sp, #260]	@ 0x104
 8005cec:	f043 0340 	orr.w	r3, r3, #64	@ 0x40
 8005cf0:	9341      	str	r3, [sp, #260]	@ 0x104
 8005cf2:	2300      	movs	r3, #0
 8005cf4:	e7d1      	b.n	8005c9a <__ssvfiscanf_r+0x1e6>
 8005cf6:	2302      	movs	r3, #2
 8005cf8:	e7cf      	b.n	8005c9a <__ssvfiscanf_r+0x1e6>
 8005cfa:	9841      	ldr	r0, [sp, #260]	@ 0x104
 8005cfc:	06c3      	lsls	r3, r0, #27
 8005cfe:	f53f aefd 	bmi.w	8005afc <__ssvfiscanf_r+0x48>
 8005d02:	9b00      	ldr	r3, [sp, #0]
 8005d04:	9a45      	ldr	r2, [sp, #276]	@ 0x114
 8005d06:	1d19      	adds	r1, r3, #4
 8005d08:	9100      	str	r1, [sp, #0]
 8005d0a:	681b      	ldr	r3, [r3, #0]
 8005d0c:	07c0      	lsls	r0, r0, #31
 8005d0e:	bf4c      	ite	mi
 8005d10:	801a      	strhmi	r2, [r3, #0]
 8005d12:	601a      	strpl	r2, [r3, #0]
 8005d14:	e6f2      	b.n	8005afc <__ssvfiscanf_r+0x48>
 8005d16:	4621      	mov	r1, r4
 8005d18:	4630      	mov	r0, r6
 8005d1a:	9ba1      	ldr	r3, [sp, #644]	@ 0x284
 8005d1c:	4798      	blx	r3
 8005d1e:	2800      	cmp	r0, #0
 8005d20:	d0bf      	beq.n	8005ca2 <__ssvfiscanf_r+0x1ee>
 8005d22:	e79f      	b.n	8005c64 <__ssvfiscanf_r+0x1b0>
 8005d24:	9a45      	ldr	r2, [sp, #276]	@ 0x114
 8005d26:	3201      	adds	r2, #1
 8005d28:	9245      	str	r2, [sp, #276]	@ 0x114
 8005d2a:	6862      	ldr	r2, [r4, #4]
 8005d2c:	3a01      	subs	r2, #1
 8005d2e:	2a00      	cmp	r2, #0
 8005d30:	6062      	str	r2, [r4, #4]
 8005d32:	dd02      	ble.n	8005d3a <__ssvfiscanf_r+0x286>
 8005d34:	3301      	adds	r3, #1
 8005d36:	6023      	str	r3, [r4, #0]
 8005d38:	e7b6      	b.n	8005ca8 <__ssvfiscanf_r+0x1f4>
 8005d3a:	4621      	mov	r1, r4
 8005d3c:	4630      	mov	r0, r6
 8005d3e:	9ba1      	ldr	r3, [sp, #644]	@ 0x284
 8005d40:	4798      	blx	r3
 8005d42:	2800      	cmp	r0, #0
 8005d44:	d0b0      	beq.n	8005ca8 <__ssvfiscanf_r+0x1f4>
 8005d46:	e78d      	b.n	8005c64 <__ssvfiscanf_r+0x1b0>
 8005d48:	2b04      	cmp	r3, #4
 8005d4a:	dc06      	bgt.n	8005d5a <__ssvfiscanf_r+0x2a6>
 8005d4c:	466b      	mov	r3, sp
 8005d4e:	4622      	mov	r2, r4
 8005d50:	4630      	mov	r0, r6
 8005d52:	a941      	add	r1, sp, #260	@ 0x104
 8005d54:	f000 fb4c 	bl	80063f0 <_scanf_i>
 8005d58:	e7b4      	b.n	8005cc4 <__ssvfiscanf_r+0x210>
 8005d5a:	4b09      	ldr	r3, [pc, #36]	@ (8005d80 <__ssvfiscanf_r+0x2cc>)
 8005d5c:	2b00      	cmp	r3, #0
 8005d5e:	f43f aecd 	beq.w	8005afc <__ssvfiscanf_r+0x48>
 8005d62:	466b      	mov	r3, sp
 8005d64:	4622      	mov	r2, r4
 8005d66:	4630      	mov	r0, r6
 8005d68:	a941      	add	r1, sp, #260	@ 0x104
 8005d6a:	f3af 8000 	nop.w
 8005d6e:	e7a9      	b.n	8005cc4 <__ssvfiscanf_r+0x210>
 8005d70:	08005a05 	.word	0x08005a05
 8005d74:	08005a7b 	.word	0x08005a7b
 8005d78:	080078b7 	.word	0x080078b7
 8005d7c:	0800786e 	.word	0x0800786e
 8005d80:	00000000 	.word	0x00000000
 8005d84:	89a3      	ldrh	r3, [r4, #12]
 8005d86:	065b      	lsls	r3, r3, #25
 8005d88:	f53f af70 	bmi.w	8005c6c <__ssvfiscanf_r+0x1b8>
 8005d8c:	f50d 7d22 	add.w	sp, sp, #648	@ 0x288
 8005d90:	e8bd 87f0 	ldmia.w	sp!, {r4, r5, r6, r7, r8, r9, sl, pc}
 8005d94:	9844      	ldr	r0, [sp, #272]	@ 0x110
 8005d96:	e7f9      	b.n	8005d8c <__ssvfiscanf_r+0x2d8>

08005d98 <__sfputc_r>:
 8005d98:	6893      	ldr	r3, [r2, #8]
 8005d9a:	b410      	push	{r4}
 8005d9c:	3b01      	subs	r3, #1
 8005d9e:	2b00      	cmp	r3, #0
 8005da0:	6093      	str	r3, [r2, #8]
 8005da2:	da07      	bge.n	8005db4 <__sfputc_r+0x1c>
 8005da4:	6994      	ldr	r4, [r2, #24]
 8005da6:	42a3      	cmp	r3, r4
 8005da8:	db01      	blt.n	8005dae <__sfputc_r+0x16>
 8005daa:	290a      	cmp	r1, #10
 8005dac:	d102      	bne.n	8005db4 <__sfputc_r+0x1c>
 8005dae:	bc10      	pop	{r4}
 8005db0:	f7ff baa9 	b.w	8005306 <__swbuf_r>
 8005db4:	6813      	ldr	r3, [r2, #0]
 8005db6:	1c58      	adds	r0, r3, #1
 8005db8:	6010      	str	r0, [r2, #0]
 8005dba:	7019      	strb	r1, [r3, #0]
 8005dbc:	4608      	mov	r0, r1
 8005dbe:	bc10      	pop	{r4}
 8005dc0:	4770      	bx	lr

08005dc2 <__sfputs_r>:
 8005dc2:	b5f8      	push	{r3, r4, r5, r6, r7, lr}
 8005dc4:	4606      	mov	r6, r0
 8005dc6:	460f      	mov	r7, r1
 8005dc8:	4614      	mov	r4, r2
 8005dca:	18d5      	adds	r5, r2, r3
 8005dcc:	42ac      	cmp	r4, r5
 8005dce:	d101      	bne.n	8005dd4 <__sfputs_r+0x12>
 8005dd0:	2000      	movs	r0, #0
 8005dd2:	e007      	b.n	8005de4 <__sfputs_r+0x22>
 8005dd4:	463a      	mov	r2, r7
 8005dd6:	4630      	mov	r0, r6
 8005dd8:	f814 1b01 	ldrb.w	r1, [r4], #1
 8005ddc:	f7ff ffdc 	bl	8005d98 <__sfputc_r>
 8005de0:	1c43      	adds	r3, r0, #1
 8005de2:	d1f3      	bne.n	8005dcc <__sfputs_r+0xa>
 8005de4:	bdf8      	pop	{r3, r4, r5, r6, r7, pc}
	...

08005de8 <_vfiprintf_r>:
 8005de8:	e92d 4ff0 	stmdb	sp!, {r4, r5, r6, r7, r8, r9, sl, fp, lr}
 8005dec:	460d      	mov	r5, r1
 8005dee:	4614      	mov	r4, r2
 8005df0:	4698      	mov	r8, r3
 8005df2:	4606      	mov	r6, r0
 8005df4:	b09d      	sub	sp, #116	@ 0x74
 8005df6:	b118      	cbz	r0, 8005e00 <_vfiprintf_r+0x18>
 8005df8:	6a03      	ldr	r3, [r0, #32]
 8005dfa:	b90b      	cbnz	r3, 8005e00 <_vfiprintf_r+0x18>
 8005dfc:	f7ff f932 	bl	8005064 <__sinit>
 8005e00:	6e6b      	ldr	r3, [r5, #100]	@ 0x64
 8005e02:	07d9      	lsls	r1, r3, #31
 8005e04:	d405      	bmi.n	8005e12 <_vfiprintf_r+0x2a>
 8005e06:	89ab      	ldrh	r3, [r5, #12]
 8005e08:	059a      	lsls	r2, r3, #22
 8005e0a:	d402      	bmi.n	8005e12 <_vfiprintf_r+0x2a>
 8005e0c:	6da8      	ldr	r0, [r5, #88]	@ 0x58
 8005e0e:	f7ff fb9a 	bl	8005546 <__retarget_lock_acquire_recursive>
 8005e12:	89ab      	ldrh	r3, [r5, #12]
 8005e14:	071b      	lsls	r3, r3, #28
 8005e16:	d501      	bpl.n	8005e1c <_vfiprintf_r+0x34>
 8005e18:	692b      	ldr	r3, [r5, #16]
 8005e1a:	b99b      	cbnz	r3, 8005e44 <_vfiprintf_r+0x5c>
 8005e1c:	4629      	mov	r1, r5
 8005e1e:	4630      	mov	r0, r6
 8005e20:	f7ff fab0 	bl	8005384 <__swsetup_r>
 8005e24:	b170      	cbz	r0, 8005e44 <_vfiprintf_r+0x5c>
 8005e26:	6e6b      	ldr	r3, [r5, #100]	@ 0x64
 8005e28:	07dc      	lsls	r4, r3, #31
 8005e2a:	d504      	bpl.n	8005e36 <_vfiprintf_r+0x4e>
 8005e2c:	f04f 30ff 	mov.w	r0, #4294967295
 8005e30:	b01d      	add	sp, #116	@ 0x74
 8005e32:	e8bd 8ff0 	ldmia.w	sp!, {r4, r5, r6, r7, r8, r9, sl, fp, pc}
 8005e36:	89ab      	ldrh	r3, [r5, #12]
 8005e38:	0598      	lsls	r0, r3, #22
 8005e3a:	d4f7      	bmi.n	8005e2c <_vfiprintf_r+0x44>
 8005e3c:	6da8      	ldr	r0, [r5, #88]	@ 0x58
 8005e3e:	f7ff fb83 	bl	8005548 <__retarget_lock_release_recursive>
 8005e42:	e7f3      	b.n	8005e2c <_vfiprintf_r+0x44>
 8005e44:	2300      	movs	r3, #0
 8005e46:	9309      	str	r3, [sp, #36]	@ 0x24
 8005e48:	2320      	movs	r3, #32
 8005e4a:	f88d 3029 	strb.w	r3, [sp, #41]	@ 0x29
 8005e4e:	2330      	movs	r3, #48	@ 0x30
 8005e50:	f04f 0901 	mov.w	r9, #1
 8005e54:	f8cd 800c 	str.w	r8, [sp, #12]
 8005e58:	f8df 81a8 	ldr.w	r8, [pc, #424]	@ 8006004 <_vfiprintf_r+0x21c>
 8005e5c:	f88d 302a 	strb.w	r3, [sp, #42]	@ 0x2a
 8005e60:	4623      	mov	r3, r4
 8005e62:	469a      	mov	sl, r3
 8005e64:	f813 2b01 	ldrb.w	r2, [r3], #1
 8005e68:	b10a      	cbz	r2, 8005e6e <_vfiprintf_r+0x86>
 8005e6a:	2a25      	cmp	r2, #37	@ 0x25
 8005e6c:	d1f9      	bne.n	8005e62 <_vfiprintf_r+0x7a>
 8005e6e:	ebba 0b04 	subs.w	fp, sl, r4
 8005e72:	d00b      	beq.n	8005e8c <_vfiprintf_r+0xa4>
 8005e74:	465b      	mov	r3, fp
 8005e76:	4622      	mov	r2, r4
 8005e78:	4629      	mov	r1, r5
 8005e7a:	4630      	mov	r0, r6
 8005e7c:	f7ff ffa1 	bl	8005dc2 <__sfputs_r>
 8005e80:	3001      	adds	r0, #1
 8005e82:	f000 80a7 	beq.w	8005fd4 <_vfiprintf_r+0x1ec>
 8005e86:	9a09      	ldr	r2, [sp, #36]	@ 0x24
 8005e88:	445a      	add	r2, fp
 8005e8a:	9209      	str	r2, [sp, #36]	@ 0x24
 8005e8c:	f89a 3000 	ldrb.w	r3, [sl]
 8005e90:	2b00      	cmp	r3, #0
 8005e92:	f000 809f 	beq.w	8005fd4 <_vfiprintf_r+0x1ec>
 8005e96:	2300      	movs	r3, #0
 8005e98:	f04f 32ff 	mov.w	r2, #4294967295
 8005e9c:	e9cd 2305 	strd	r2, r3, [sp, #20]
 8005ea0:	f10a 0a01 	add.w	sl, sl, #1
 8005ea4:	9304      	str	r3, [sp, #16]
 8005ea6:	9307      	str	r3, [sp, #28]
 8005ea8:	f88d 3053 	strb.w	r3, [sp, #83]	@ 0x53
 8005eac:	931a      	str	r3, [sp, #104]	@ 0x68
 8005eae:	4654      	mov	r4, sl
 8005eb0:	2205      	movs	r2, #5
 8005eb2:	f814 1b01 	ldrb.w	r1, [r4], #1
 8005eb6:	4853      	ldr	r0, [pc, #332]	@ (8006004 <_vfiprintf_r+0x21c>)
 8005eb8:	f000 fcde 	bl	8006878 <memchr>
 8005ebc:	9a04      	ldr	r2, [sp, #16]
 8005ebe:	b9d8      	cbnz	r0, 8005ef8 <_vfiprintf_r+0x110>
 8005ec0:	06d1      	lsls	r1, r2, #27
 8005ec2:	bf44      	itt	mi
 8005ec4:	2320      	movmi	r3, #32
 8005ec6:	f88d 3053 	strbmi.w	r3, [sp, #83]	@ 0x53
 8005eca:	0713      	lsls	r3, r2, #28
 8005ecc:	bf44      	itt	mi
 8005ece:	232b      	movmi	r3, #43	@ 0x2b
 8005ed0:	f88d 3053 	strbmi.w	r3, [sp, #83]	@ 0x53
 8005ed4:	f89a 3000 	ldrb.w	r3, [sl]
 8005ed8:	2b2a      	cmp	r3, #42	@ 0x2a
 8005eda:	d015      	beq.n	8005f08 <_vfiprintf_r+0x120>
 8005edc:	4654      	mov	r4, sl
 8005ede:	2000      	movs	r0, #0
 8005ee0:	f04f 0c0a 	mov.w	ip, #10
 8005ee4:	9a07      	ldr	r2, [sp, #28]
 8005ee6:	4621      	mov	r1, r4
 8005ee8:	f811 3b01 	ldrb.w	r3, [r1], #1
 8005eec:	3b30      	subs	r3, #48	@ 0x30
 8005eee:	2b09      	cmp	r3, #9
 8005ef0:	d94b      	bls.n	8005f8a <_vfiprintf_r+0x1a2>
 8005ef2:	b1b0      	cbz	r0, 8005f22 <_vfiprintf_r+0x13a>
 8005ef4:	9207      	str	r2, [sp, #28]
 8005ef6:	e014      	b.n	8005f22 <_vfiprintf_r+0x13a>
 8005ef8:	eba0 0308 	sub.w	r3, r0, r8
 8005efc:	fa09 f303 	lsl.w	r3, r9, r3
 8005f00:	4313      	orrs	r3, r2
 8005f02:	46a2      	mov	sl, r4
 8005f04:	9304      	str	r3, [sp, #16]
 8005f06:	e7d2      	b.n	8005eae <_vfiprintf_r+0xc6>
 8005f08:	9b03      	ldr	r3, [sp, #12]
 8005f0a:	1d19      	adds	r1, r3, #4
 8005f0c:	681b      	ldr	r3, [r3, #0]
 8005f0e:	9103      	str	r1, [sp, #12]
 8005f10:	2b00      	cmp	r3, #0
 8005f12:	bfbb      	ittet	lt
 8005f14:	425b      	neglt	r3, r3
 8005f16:	f042 0202 	orrlt.w	r2, r2, #2
 8005f1a:	9307      	strge	r3, [sp, #28]
 8005f1c:	9307      	strlt	r3, [sp, #28]
 8005f1e:	bfb8      	it	lt
 8005f20:	9204      	strlt	r2, [sp, #16]
 8005f22:	7823      	ldrb	r3, [r4, #0]
 8005f24:	2b2e      	cmp	r3, #46	@ 0x2e
 8005f26:	d10a      	bne.n	8005f3e <_vfiprintf_r+0x156>
 8005f28:	7863      	ldrb	r3, [r4, #1]
 8005f2a:	2b2a      	cmp	r3, #42	@ 0x2a
 8005f2c:	d132      	bne.n	8005f94 <_vfiprintf_r+0x1ac>
 8005f2e:	9b03      	ldr	r3, [sp, #12]
 8005f30:	3402      	adds	r4, #2
 8005f32:	1d1a      	adds	r2, r3, #4
 8005f34:	681b      	ldr	r3, [r3, #0]
 8005f36:	9203      	str	r2, [sp, #12]
 8005f38:	ea43 73e3 	orr.w	r3, r3, r3, asr #31
 8005f3c:	9305      	str	r3, [sp, #20]
 8005f3e:	f8df a0c8 	ldr.w	sl, [pc, #200]	@ 8006008 <_vfiprintf_r+0x220>
 8005f42:	2203      	movs	r2, #3
 8005f44:	4650      	mov	r0, sl
 8005f46:	7821      	ldrb	r1, [r4, #0]
 8005f48:	f000 fc96 	bl	8006878 <memchr>
 8005f4c:	b138      	cbz	r0, 8005f5e <_vfiprintf_r+0x176>
 8005f4e:	2240      	movs	r2, #64	@ 0x40
 8005f50:	9b04      	ldr	r3, [sp, #16]
 8005f52:	eba0 000a 	sub.w	r0, r0, sl
 8005f56:	4082      	lsls	r2, r0
 8005f58:	4313      	orrs	r3, r2
 8005f5a:	3401      	adds	r4, #1
 8005f5c:	9304      	str	r3, [sp, #16]
 8005f5e:	f814 1b01 	ldrb.w	r1, [r4], #1
 8005f62:	2206      	movs	r2, #6
 8005f64:	4829      	ldr	r0, [pc, #164]	@ (800600c <_vfiprintf_r+0x224>)
 8005f66:	f88d 1028 	strb.w	r1, [sp, #40]	@ 0x28
 8005f6a:	f000 fc85 	bl	8006878 <memchr>
 8005f6e:	2800      	cmp	r0, #0
 8005f70:	d03f      	beq.n	8005ff2 <_vfiprintf_r+0x20a>
 8005f72:	4b27      	ldr	r3, [pc, #156]	@ (8006010 <_vfiprintf_r+0x228>)
 8005f74:	bb1b      	cbnz	r3, 8005fbe <_vfiprintf_r+0x1d6>
 8005f76:	9b03      	ldr	r3, [sp, #12]
 8005f78:	3307      	adds	r3, #7
 8005f7a:	f023 0307 	bic.w	r3, r3, #7
 8005f7e:	3308      	adds	r3, #8
 8005f80:	9303      	str	r3, [sp, #12]
 8005f82:	9b09      	ldr	r3, [sp, #36]	@ 0x24
 8005f84:	443b      	add	r3, r7
 8005f86:	9309      	str	r3, [sp, #36]	@ 0x24
 8005f88:	e76a      	b.n	8005e60 <_vfiprintf_r+0x78>
 8005f8a:	460c      	mov	r4, r1
 8005f8c:	2001      	movs	r0, #1
 8005f8e:	fb0c 3202 	mla	r2, ip, r2, r3
 8005f92:	e7a8      	b.n	8005ee6 <_vfiprintf_r+0xfe>
 8005f94:	2300      	movs	r3, #0
 8005f96:	f04f 0c0a 	mov.w	ip, #10
 8005f9a:	4619      	mov	r1, r3
 8005f9c:	3401      	adds	r4, #1
 8005f9e:	9305      	str	r3, [sp, #20]
 8005fa0:	4620      	mov	r0, r4
 8005fa2:	f810 2b01 	ldrb.w	r2, [r0], #1
 8005fa6:	3a30      	subs	r2, #48	@ 0x30
 8005fa8:	2a09      	cmp	r2, #9
 8005faa:	d903      	bls.n	8005fb4 <_vfiprintf_r+0x1cc>
 8005fac:	2b00      	cmp	r3, #0
 8005fae:	d0c6      	beq.n	8005f3e <_vfiprintf_r+0x156>
 8005fb0:	9105      	str	r1, [sp, #20]
 8005fb2:	e7c4      	b.n	8005f3e <_vfiprintf_r+0x156>
 8005fb4:	4604      	mov	r4, r0
 8005fb6:	2301      	movs	r3, #1
 8005fb8:	fb0c 2101 	mla	r1, ip, r1, r2
 8005fbc:	e7f0      	b.n	8005fa0 <_vfiprintf_r+0x1b8>
 8005fbe:	ab03      	add	r3, sp, #12
 8005fc0:	9300      	str	r3, [sp, #0]
 8005fc2:	462a      	mov	r2, r5
 8005fc4:	4630      	mov	r0, r6
 8005fc6:	4b13      	ldr	r3, [pc, #76]	@ (8006014 <_vfiprintf_r+0x22c>)
 8005fc8:	a904      	add	r1, sp, #16
 8005fca:	f3af 8000 	nop.w
 8005fce:	4607      	mov	r7, r0
 8005fd0:	1c78      	adds	r0, r7, #1
 8005fd2:	d1d6      	bne.n	8005f82 <_vfiprintf_r+0x19a>
 8005fd4:	6e6b      	ldr	r3, [r5, #100]	@ 0x64
 8005fd6:	07d9      	lsls	r1, r3, #31
 8005fd8:	d405      	bmi.n	8005fe6 <_vfiprintf_r+0x1fe>
 8005fda:	89ab      	ldrh	r3, [r5, #12]
 8005fdc:	059a      	lsls	r2, r3, #22
 8005fde:	d402      	bmi.n	8005fe6 <_vfiprintf_r+0x1fe>
 8005fe0:	6da8      	ldr	r0, [r5, #88]	@ 0x58
 8005fe2:	f7ff fab1 	bl	8005548 <__retarget_lock_release_recursive>
 8005fe6:	89ab      	ldrh	r3, [r5, #12]
 8005fe8:	065b      	lsls	r3, r3, #25
 8005fea:	f53f af1f 	bmi.w	8005e2c <_vfiprintf_r+0x44>
 8005fee:	9809      	ldr	r0, [sp, #36]	@ 0x24
 8005ff0:	e71e      	b.n	8005e30 <_vfiprintf_r+0x48>
 8005ff2:	ab03      	add	r3, sp, #12
 8005ff4:	9300      	str	r3, [sp, #0]
 8005ff6:	462a      	mov	r2, r5
 8005ff8:	4630      	mov	r0, r6
 8005ffa:	4b06      	ldr	r3, [pc, #24]	@ (8006014 <_vfiprintf_r+0x22c>)
 8005ffc:	a904      	add	r1, sp, #16
 8005ffe:	f000 f87d 	bl	80060fc <_printf_i>
 8006002:	e7e4      	b.n	8005fce <_vfiprintf_r+0x1e6>
 8006004:	08007868 	.word	0x08007868
 8006008:	0800786e 	.word	0x0800786e
 800600c:	08007872 	.word	0x08007872
 8006010:	00000000 	.word	0x00000000
 8006014:	08005dc3 	.word	0x08005dc3

08006018 <_printf_common>:
 8006018:	e92d 47f0 	stmdb	sp!, {r4, r5, r6, r7, r8, r9, sl, lr}
 800601c:	4616      	mov	r6, r2
 800601e:	4698      	mov	r8, r3
 8006020:	688a      	ldr	r2, [r1, #8]
 8006022:	690b      	ldr	r3, [r1, #16]
 8006024:	4607      	mov	r7, r0
 8006026:	4293      	cmp	r3, r2
 8006028:	bfb8      	it	lt
 800602a:	4613      	movlt	r3, r2
 800602c:	6033      	str	r3, [r6, #0]
 800602e:	f891 2043 	ldrb.w	r2, [r1, #67]	@ 0x43
 8006032:	460c      	mov	r4, r1
 8006034:	f8dd 9020 	ldr.w	r9, [sp, #32]
 8006038:	b10a      	cbz	r2, 800603e <_printf_common+0x26>
 800603a:	3301      	adds	r3, #1
 800603c:	6033      	str	r3, [r6, #0]
 800603e:	6823      	ldr	r3, [r4, #0]
 8006040:	0699      	lsls	r1, r3, #26
 8006042:	bf42      	ittt	mi
 8006044:	6833      	ldrmi	r3, [r6, #0]
 8006046:	3302      	addmi	r3, #2
 8006048:	6033      	strmi	r3, [r6, #0]
 800604a:	6825      	ldr	r5, [r4, #0]
 800604c:	f015 0506 	ands.w	r5, r5, #6
 8006050:	d106      	bne.n	8006060 <_printf_common+0x48>
 8006052:	f104 0a19 	add.w	sl, r4, #25
 8006056:	68e3      	ldr	r3, [r4, #12]
 8006058:	6832      	ldr	r2, [r6, #0]
 800605a:	1a9b      	subs	r3, r3, r2
 800605c:	42ab      	cmp	r3, r5
 800605e:	dc2b      	bgt.n	80060b8 <_printf_common+0xa0>
 8006060:	f894 3043 	ldrb.w	r3, [r4, #67]	@ 0x43
 8006064:	6822      	ldr	r2, [r4, #0]
 8006066:	3b00      	subs	r3, #0
 8006068:	bf18      	it	ne
 800606a:	2301      	movne	r3, #1
 800606c:	0692      	lsls	r2, r2, #26
 800606e:	d430      	bmi.n	80060d2 <_printf_common+0xba>
 8006070:	4641      	mov	r1, r8
 8006072:	4638      	mov	r0, r7
 8006074:	f104 0243 	add.w	r2, r4, #67	@ 0x43
 8006078:	47c8      	blx	r9
 800607a:	3001      	adds	r0, #1
 800607c:	d023      	beq.n	80060c6 <_printf_common+0xae>
 800607e:	6823      	ldr	r3, [r4, #0]
 8006080:	6922      	ldr	r2, [r4, #16]
 8006082:	f003 0306 	and.w	r3, r3, #6
 8006086:	2b04      	cmp	r3, #4
 8006088:	bf14      	ite	ne
 800608a:	2500      	movne	r5, #0
 800608c:	6833      	ldreq	r3, [r6, #0]
 800608e:	f04f 0600 	mov.w	r6, #0
 8006092:	bf08      	it	eq
 8006094:	68e5      	ldreq	r5, [r4, #12]
 8006096:	f104 041a 	add.w	r4, r4, #26
 800609a:	bf08      	it	eq
 800609c:	1aed      	subeq	r5, r5, r3
 800609e:	f854 3c12 	ldr.w	r3, [r4, #-18]
 80060a2:	bf08      	it	eq
 80060a4:	ea25 75e5 	biceq.w	r5, r5, r5, asr #31
 80060a8:	4293      	cmp	r3, r2
 80060aa:	bfc4      	itt	gt
 80060ac:	1a9b      	subgt	r3, r3, r2
 80060ae:	18ed      	addgt	r5, r5, r3
 80060b0:	42b5      	cmp	r5, r6
 80060b2:	d11a      	bne.n	80060ea <_printf_common+0xd2>
 80060b4:	2000      	movs	r0, #0
 80060b6:	e008      	b.n	80060ca <_printf_common+0xb2>
 80060b8:	2301      	movs	r3, #1
 80060ba:	4652      	mov	r2, sl
 80060bc:	4641      	mov	r1, r8
 80060be:	4638      	mov	r0, r7
 80060c0:	47c8      	blx	r9
 80060c2:	3001      	adds	r0, #1
 80060c4:	d103      	bne.n	80060ce <_printf_common+0xb6>
 80060c6:	f04f 30ff 	mov.w	r0, #4294967295
 80060ca:	e8bd 87f0 	ldmia.w	sp!, {r4, r5, r6, r7, r8, r9, sl, pc}
 80060ce:	3501      	adds	r5, #1
 80060d0:	e7c1      	b.n	8006056 <_printf_common+0x3e>
 80060d2:	2030      	movs	r0, #48	@ 0x30
 80060d4:	18e1      	adds	r1, r4, r3
 80060d6:	f881 0043 	strb.w	r0, [r1, #67]	@ 0x43
 80060da:	1c5a      	adds	r2, r3, #1
 80060dc:	f894 1045 	ldrb.w	r1, [r4, #69]	@ 0x45
 80060e0:	4422      	add	r2, r4
 80060e2:	3302      	adds	r3, #2
 80060e4:	f882 1043 	strb.w	r1, [r2, #67]	@ 0x43
 80060e8:	e7c2      	b.n	8006070 <_printf_common+0x58>
 80060ea:	2301      	movs	r3, #1
 80060ec:	4622      	mov	r2, r4
 80060ee:	4641      	mov	r1, r8
 80060f0:	4638      	mov	r0, r7
 80060f2:	47c8      	blx	r9
 80060f4:	3001      	adds	r0, #1
 80060f6:	d0e6      	beq.n	80060c6 <_printf_common+0xae>
 80060f8:	3601      	adds	r6, #1
 80060fa:	e7d9      	b.n	80060b0 <_printf_common+0x98>

080060fc <_printf_i>:
 80060fc:	e92d 47ff 	stmdb	sp!, {r0, r1, r2, r3, r4, r5, r6, r7, r8, r9, sl, lr}
 8006100:	7e0f      	ldrb	r7, [r1, #24]
 8006102:	4691      	mov	r9, r2
 8006104:	2f78      	cmp	r7, #120	@ 0x78
 8006106:	4680      	mov	r8, r0
 8006108:	460c      	mov	r4, r1
 800610a:	469a      	mov	sl, r3
 800610c:	9e0c      	ldr	r6, [sp, #48]	@ 0x30
 800610e:	f101 0243 	add.w	r2, r1, #67	@ 0x43
 8006112:	d807      	bhi.n	8006124 <_printf_i+0x28>
 8006114:	2f62      	cmp	r7, #98	@ 0x62
 8006116:	d80a      	bhi.n	800612e <_printf_i+0x32>
 8006118:	2f00      	cmp	r7, #0
 800611a:	f000 80d3 	beq.w	80062c4 <_printf_i+0x1c8>
 800611e:	2f58      	cmp	r7, #88	@ 0x58
 8006120:	f000 80ba 	beq.w	8006298 <_printf_i+0x19c>
 8006124:	f104 0642 	add.w	r6, r4, #66	@ 0x42
 8006128:	f884 7042 	strb.w	r7, [r4, #66]	@ 0x42
 800612c:	e03a      	b.n	80061a4 <_printf_i+0xa8>
 800612e:	f1a7 0363 	sub.w	r3, r7, #99	@ 0x63
 8006132:	2b15      	cmp	r3, #21
 8006134:	d8f6      	bhi.n	8006124 <_printf_i+0x28>
 8006136:	a101      	add	r1, pc, #4	@ (adr r1, 800613c <_printf_i+0x40>)
 8006138:	f851 f023 	ldr.w	pc, [r1, r3, lsl #2]
 800613c:	08006195 	.word	0x08006195
 8006140:	080061a9 	.word	0x080061a9
 8006144:	08006125 	.word	0x08006125
 8006148:	08006125 	.word	0x08006125
 800614c:	08006125 	.word	0x08006125
 8006150:	08006125 	.word	0x08006125
 8006154:	080061a9 	.word	0x080061a9
 8006158:	08006125 	.word	0x08006125
 800615c:	08006125 	.word	0x08006125
 8006160:	08006125 	.word	0x08006125
 8006164:	08006125 	.word	0x08006125
 8006168:	080062ab 	.word	0x080062ab
 800616c:	080061d3 	.word	0x080061d3
 8006170:	08006265 	.word	0x08006265
 8006174:	08006125 	.word	0x08006125
 8006178:	08006125 	.word	0x08006125
 800617c:	080062cd 	.word	0x080062cd
 8006180:	08006125 	.word	0x08006125
 8006184:	080061d3 	.word	0x080061d3
 8006188:	08006125 	.word	0x08006125
 800618c:	08006125 	.word	0x08006125
 8006190:	0800626d 	.word	0x0800626d
 8006194:	6833      	ldr	r3, [r6, #0]
 8006196:	1d1a      	adds	r2, r3, #4
 8006198:	681b      	ldr	r3, [r3, #0]
 800619a:	6032      	str	r2, [r6, #0]
 800619c:	f104 0642 	add.w	r6, r4, #66	@ 0x42
 80061a0:	f884 3042 	strb.w	r3, [r4, #66]	@ 0x42
 80061a4:	2301      	movs	r3, #1
 80061a6:	e09e      	b.n	80062e6 <_printf_i+0x1ea>
 80061a8:	6833      	ldr	r3, [r6, #0]
 80061aa:	6820      	ldr	r0, [r4, #0]
 80061ac:	1d19      	adds	r1, r3, #4
 80061ae:	6031      	str	r1, [r6, #0]
 80061b0:	0606      	lsls	r6, r0, #24
 80061b2:	d501      	bpl.n	80061b8 <_printf_i+0xbc>
 80061b4:	681d      	ldr	r5, [r3, #0]
 80061b6:	e003      	b.n	80061c0 <_printf_i+0xc4>
 80061b8:	0645      	lsls	r5, r0, #25
 80061ba:	d5fb      	bpl.n	80061b4 <_printf_i+0xb8>
 80061bc:	f9b3 5000 	ldrsh.w	r5, [r3]
 80061c0:	2d00      	cmp	r5, #0
 80061c2:	da03      	bge.n	80061cc <_printf_i+0xd0>
 80061c4:	232d      	movs	r3, #45	@ 0x2d
 80061c6:	426d      	negs	r5, r5
 80061c8:	f884 3043 	strb.w	r3, [r4, #67]	@ 0x43
 80061cc:	230a      	movs	r3, #10
 80061ce:	4859      	ldr	r0, [pc, #356]	@ (8006334 <_printf_i+0x238>)
 80061d0:	e011      	b.n	80061f6 <_printf_i+0xfa>
 80061d2:	6821      	ldr	r1, [r4, #0]
 80061d4:	6833      	ldr	r3, [r6, #0]
 80061d6:	0608      	lsls	r0, r1, #24
 80061d8:	f853 5b04 	ldr.w	r5, [r3], #4
 80061dc:	d402      	bmi.n	80061e4 <_printf_i+0xe8>
 80061de:	0649      	lsls	r1, r1, #25
 80061e0:	bf48      	it	mi
 80061e2:	b2ad      	uxthmi	r5, r5
 80061e4:	2f6f      	cmp	r7, #111	@ 0x6f
 80061e6:	6033      	str	r3, [r6, #0]
 80061e8:	bf14      	ite	ne
 80061ea:	230a      	movne	r3, #10
 80061ec:	2308      	moveq	r3, #8
 80061ee:	4851      	ldr	r0, [pc, #324]	@ (8006334 <_printf_i+0x238>)
 80061f0:	2100      	movs	r1, #0
 80061f2:	f884 1043 	strb.w	r1, [r4, #67]	@ 0x43
 80061f6:	6866      	ldr	r6, [r4, #4]
 80061f8:	2e00      	cmp	r6, #0
 80061fa:	bfa8      	it	ge
 80061fc:	6821      	ldrge	r1, [r4, #0]
 80061fe:	60a6      	str	r6, [r4, #8]
 8006200:	bfa4      	itt	ge
 8006202:	f021 0104 	bicge.w	r1, r1, #4
 8006206:	6021      	strge	r1, [r4, #0]
 8006208:	b90d      	cbnz	r5, 800620e <_printf_i+0x112>
 800620a:	2e00      	cmp	r6, #0
 800620c:	d04b      	beq.n	80062a6 <_printf_i+0x1aa>
 800620e:	4616      	mov	r6, r2
 8006210:	fbb5 f1f3 	udiv	r1, r5, r3
 8006214:	fb03 5711 	mls	r7, r3, r1, r5
 8006218:	5dc7      	ldrb	r7, [r0, r7]
 800621a:	f806 7d01 	strb.w	r7, [r6, #-1]!
 800621e:	462f      	mov	r7, r5
 8006220:	42bb      	cmp	r3, r7
 8006222:	460d      	mov	r5, r1
 8006224:	d9f4      	bls.n	8006210 <_printf_i+0x114>
 8006226:	2b08      	cmp	r3, #8
 8006228:	d10b      	bne.n	8006242 <_printf_i+0x146>
 800622a:	6823      	ldr	r3, [r4, #0]
 800622c:	07df      	lsls	r7, r3, #31
 800622e:	d508      	bpl.n	8006242 <_printf_i+0x146>
 8006230:	6923      	ldr	r3, [r4, #16]
 8006232:	6861      	ldr	r1, [r4, #4]
 8006234:	4299      	cmp	r1, r3
 8006236:	bfde      	ittt	le
 8006238:	2330      	movle	r3, #48	@ 0x30
 800623a:	f806 3c01 	strble.w	r3, [r6, #-1]
 800623e:	f106 36ff 	addle.w	r6, r6, #4294967295
 8006242:	1b92      	subs	r2, r2, r6
 8006244:	6122      	str	r2, [r4, #16]
 8006246:	464b      	mov	r3, r9
 8006248:	4621      	mov	r1, r4
 800624a:	4640      	mov	r0, r8
 800624c:	f8cd a000 	str.w	sl, [sp]
 8006250:	aa03      	add	r2, sp, #12
 8006252:	f7ff fee1 	bl	8006018 <_printf_common>
 8006256:	3001      	adds	r0, #1
 8006258:	d14a      	bne.n	80062f0 <_printf_i+0x1f4>
 800625a:	f04f 30ff 	mov.w	r0, #4294967295
 800625e:	b004      	add	sp, #16
 8006260:	e8bd 87f0 	ldmia.w	sp!, {r4, r5, r6, r7, r8, r9, sl, pc}
 8006264:	6823      	ldr	r3, [r4, #0]
 8006266:	f043 0320 	orr.w	r3, r3, #32
 800626a:	6023      	str	r3, [r4, #0]
 800626c:	2778      	movs	r7, #120	@ 0x78
 800626e:	4832      	ldr	r0, [pc, #200]	@ (8006338 <_printf_i+0x23c>)
 8006270:	f884 7045 	strb.w	r7, [r4, #69]	@ 0x45
 8006274:	6823      	ldr	r3, [r4, #0]
 8006276:	6831      	ldr	r1, [r6, #0]
 8006278:	061f      	lsls	r7, r3, #24
 800627a:	f851 5b04 	ldr.w	r5, [r1], #4
 800627e:	d402      	bmi.n	8006286 <_printf_i+0x18a>
 8006280:	065f      	lsls	r7, r3, #25
 8006282:	bf48      	it	mi
 8006284:	b2ad      	uxthmi	r5, r5
 8006286:	6031      	str	r1, [r6, #0]
 8006288:	07d9      	lsls	r1, r3, #31
 800628a:	bf44      	itt	mi
 800628c:	f043 0320 	orrmi.w	r3, r3, #32
 8006290:	6023      	strmi	r3, [r4, #0]
 8006292:	b11d      	cbz	r5, 800629c <_printf_i+0x1a0>
 8006294:	2310      	movs	r3, #16
 8006296:	e7ab      	b.n	80061f0 <_printf_i+0xf4>
 8006298:	4826      	ldr	r0, [pc, #152]	@ (8006334 <_printf_i+0x238>)
 800629a:	e7e9      	b.n	8006270 <_printf_i+0x174>
 800629c:	6823      	ldr	r3, [r4, #0]
 800629e:	f023 0320 	bic.w	r3, r3, #32
 80062a2:	6023      	str	r3, [r4, #0]
 80062a4:	e7f6      	b.n	8006294 <_printf_i+0x198>
 80062a6:	4616      	mov	r6, r2
 80062a8:	e7bd      	b.n	8006226 <_printf_i+0x12a>
 80062aa:	6833      	ldr	r3, [r6, #0]
 80062ac:	6825      	ldr	r5, [r4, #0]
 80062ae:	1d18      	adds	r0, r3, #4
 80062b0:	6961      	ldr	r1, [r4, #20]
 80062b2:	6030      	str	r0, [r6, #0]
 80062b4:	062e      	lsls	r6, r5, #24
 80062b6:	681b      	ldr	r3, [r3, #0]
 80062b8:	d501      	bpl.n	80062be <_printf_i+0x1c2>
 80062ba:	6019      	str	r1, [r3, #0]
 80062bc:	e002      	b.n	80062c4 <_printf_i+0x1c8>
 80062be:	0668      	lsls	r0, r5, #25
 80062c0:	d5fb      	bpl.n	80062ba <_printf_i+0x1be>
 80062c2:	8019      	strh	r1, [r3, #0]
 80062c4:	2300      	movs	r3, #0
 80062c6:	4616      	mov	r6, r2
 80062c8:	6123      	str	r3, [r4, #16]
 80062ca:	e7bc      	b.n	8006246 <_printf_i+0x14a>
 80062cc:	6833      	ldr	r3, [r6, #0]
 80062ce:	2100      	movs	r1, #0
 80062d0:	1d1a      	adds	r2, r3, #4
 80062d2:	6032      	str	r2, [r6, #0]
 80062d4:	681e      	ldr	r6, [r3, #0]
 80062d6:	6862      	ldr	r2, [r4, #4]
 80062d8:	4630      	mov	r0, r6
 80062da:	f000 facd 	bl	8006878 <memchr>
 80062de:	b108      	cbz	r0, 80062e4 <_printf_i+0x1e8>
 80062e0:	1b80      	subs	r0, r0, r6
 80062e2:	6060      	str	r0, [r4, #4]
 80062e4:	6863      	ldr	r3, [r4, #4]
 80062e6:	6123      	str	r3, [r4, #16]
 80062e8:	2300      	movs	r3, #0
 80062ea:	f884 3043 	strb.w	r3, [r4, #67]	@ 0x43
 80062ee:	e7aa      	b.n	8006246 <_printf_i+0x14a>
 80062f0:	4632      	mov	r2, r6
 80062f2:	4649      	mov	r1, r9
 80062f4:	4640      	mov	r0, r8
 80062f6:	6923      	ldr	r3, [r4, #16]
 80062f8:	47d0      	blx	sl
 80062fa:	3001      	adds	r0, #1
 80062fc:	d0ad      	beq.n	800625a <_printf_i+0x15e>
 80062fe:	6823      	ldr	r3, [r4, #0]
 8006300:	079b      	lsls	r3, r3, #30
 8006302:	d413      	bmi.n	800632c <_printf_i+0x230>
 8006304:	68e0      	ldr	r0, [r4, #12]
 8006306:	9b03      	ldr	r3, [sp, #12]
 8006308:	4298      	cmp	r0, r3
 800630a:	bfb8      	it	lt
 800630c:	4618      	movlt	r0, r3
 800630e:	e7a6      	b.n	800625e <_printf_i+0x162>
 8006310:	2301      	movs	r3, #1
 8006312:	4632      	mov	r2, r6
 8006314:	4649      	mov	r1, r9
 8006316:	4640      	mov	r0, r8
 8006318:	47d0      	blx	sl
 800631a:	3001      	adds	r0, #1
 800631c:	d09d      	beq.n	800625a <_printf_i+0x15e>
 800631e:	3501      	adds	r5, #1
 8006320:	68e3      	ldr	r3, [r4, #12]
 8006322:	9903      	ldr	r1, [sp, #12]
 8006324:	1a5b      	subs	r3, r3, r1
 8006326:	42ab      	cmp	r3, r5
 8006328:	dcf2      	bgt.n	8006310 <_printf_i+0x214>
 800632a:	e7eb      	b.n	8006304 <_printf_i+0x208>
 800632c:	2500      	movs	r5, #0
 800632e:	f104 0619 	add.w	r6, r4, #25
 8006332:	e7f5      	b.n	8006320 <_printf_i+0x224>
 8006334:	08007879 	.word	0x08007879
 8006338:	0800788a 	.word	0x0800788a

0800633c <_scanf_chars>:
 800633c:	e92d 43f8 	stmdb	sp!, {r3, r4, r5, r6, r7, r8, r9, lr}
 8006340:	4615      	mov	r5, r2
 8006342:	688a      	ldr	r2, [r1, #8]
 8006344:	4680      	mov	r8, r0
 8006346:	460c      	mov	r4, r1
 8006348:	b932      	cbnz	r2, 8006358 <_scanf_chars+0x1c>
 800634a:	698a      	ldr	r2, [r1, #24]
 800634c:	2a00      	cmp	r2, #0
 800634e:	bf14      	ite	ne
 8006350:	f04f 32ff 	movne.w	r2, #4294967295
 8006354:	2201      	moveq	r2, #1
 8006356:	608a      	str	r2, [r1, #8]
 8006358:	2700      	movs	r7, #0
 800635a:	6822      	ldr	r2, [r4, #0]
 800635c:	f8df 908c 	ldr.w	r9, [pc, #140]	@ 80063ec <_scanf_chars+0xb0>
 8006360:	06d1      	lsls	r1, r2, #27
 8006362:	bf5f      	itttt	pl
 8006364:	681a      	ldrpl	r2, [r3, #0]
 8006366:	1d11      	addpl	r1, r2, #4
 8006368:	6019      	strpl	r1, [r3, #0]
 800636a:	6816      	ldrpl	r6, [r2, #0]
 800636c:	69a0      	ldr	r0, [r4, #24]
 800636e:	b188      	cbz	r0, 8006394 <_scanf_chars+0x58>
 8006370:	2801      	cmp	r0, #1
 8006372:	d107      	bne.n	8006384 <_scanf_chars+0x48>
 8006374:	682b      	ldr	r3, [r5, #0]
 8006376:	781a      	ldrb	r2, [r3, #0]
 8006378:	6963      	ldr	r3, [r4, #20]
 800637a:	5c9b      	ldrb	r3, [r3, r2]
 800637c:	b953      	cbnz	r3, 8006394 <_scanf_chars+0x58>
 800637e:	2f00      	cmp	r7, #0
 8006380:	d031      	beq.n	80063e6 <_scanf_chars+0xaa>
 8006382:	e022      	b.n	80063ca <_scanf_chars+0x8e>
 8006384:	2802      	cmp	r0, #2
 8006386:	d120      	bne.n	80063ca <_scanf_chars+0x8e>
 8006388:	682b      	ldr	r3, [r5, #0]
 800638a:	781b      	ldrb	r3, [r3, #0]
 800638c:	f819 3003 	ldrb.w	r3, [r9, r3]
 8006390:	071b      	lsls	r3, r3, #28
 8006392:	d41a      	bmi.n	80063ca <_scanf_chars+0x8e>
 8006394:	6823      	ldr	r3, [r4, #0]
 8006396:	3701      	adds	r7, #1
 8006398:	06da      	lsls	r2, r3, #27
 800639a:	bf5e      	ittt	pl
 800639c:	682b      	ldrpl	r3, [r5, #0]
 800639e:	781b      	ldrbpl	r3, [r3, #0]
 80063a0:	f806 3b01 	strbpl.w	r3, [r6], #1
 80063a4:	682a      	ldr	r2, [r5, #0]
 80063a6:	686b      	ldr	r3, [r5, #4]
 80063a8:	3201      	adds	r2, #1
 80063aa:	602a      	str	r2, [r5, #0]
 80063ac:	68a2      	ldr	r2, [r4, #8]
 80063ae:	3b01      	subs	r3, #1
 80063b0:	3a01      	subs	r2, #1
 80063b2:	606b      	str	r3, [r5, #4]
 80063b4:	60a2      	str	r2, [r4, #8]
 80063b6:	b142      	cbz	r2, 80063ca <_scanf_chars+0x8e>
 80063b8:	2b00      	cmp	r3, #0
 80063ba:	dcd7      	bgt.n	800636c <_scanf_chars+0x30>
 80063bc:	4629      	mov	r1, r5
 80063be:	4640      	mov	r0, r8
 80063c0:	f8d4 3180 	ldr.w	r3, [r4, #384]	@ 0x180
 80063c4:	4798      	blx	r3
 80063c6:	2800      	cmp	r0, #0
 80063c8:	d0d0      	beq.n	800636c <_scanf_chars+0x30>
 80063ca:	6823      	ldr	r3, [r4, #0]
 80063cc:	f013 0310 	ands.w	r3, r3, #16
 80063d0:	d105      	bne.n	80063de <_scanf_chars+0xa2>
 80063d2:	68e2      	ldr	r2, [r4, #12]
 80063d4:	3201      	adds	r2, #1
 80063d6:	60e2      	str	r2, [r4, #12]
 80063d8:	69a2      	ldr	r2, [r4, #24]
 80063da:	b102      	cbz	r2, 80063de <_scanf_chars+0xa2>
 80063dc:	7033      	strb	r3, [r6, #0]
 80063de:	2000      	movs	r0, #0
 80063e0:	6923      	ldr	r3, [r4, #16]
 80063e2:	443b      	add	r3, r7
 80063e4:	6123      	str	r3, [r4, #16]
 80063e6:	e8bd 83f8 	ldmia.w	sp!, {r3, r4, r5, r6, r7, r8, r9, pc}
 80063ea:	bf00      	nop
 80063ec:	080078b7 	.word	0x080078b7

080063f0 <_scanf_i>:
 80063f0:	e92d 4ff0 	stmdb	sp!, {r4, r5, r6, r7, r8, r9, sl, fp, lr}
 80063f4:	460c      	mov	r4, r1
 80063f6:	4698      	mov	r8, r3
 80063f8:	4b72      	ldr	r3, [pc, #456]	@ (80065c4 <_scanf_i+0x1d4>)
 80063fa:	b087      	sub	sp, #28
 80063fc:	4682      	mov	sl, r0
 80063fe:	4616      	mov	r6, r2
 8006400:	e893 0007 	ldmia.w	r3, {r0, r1, r2}
 8006404:	ab03      	add	r3, sp, #12
 8006406:	e883 0007 	stmia.w	r3, {r0, r1, r2}
 800640a:	4b6f      	ldr	r3, [pc, #444]	@ (80065c8 <_scanf_i+0x1d8>)
 800640c:	69a1      	ldr	r1, [r4, #24]
 800640e:	4a6f      	ldr	r2, [pc, #444]	@ (80065cc <_scanf_i+0x1dc>)
 8006410:	4627      	mov	r7, r4
 8006412:	2903      	cmp	r1, #3
 8006414:	bf08      	it	eq
 8006416:	461a      	moveq	r2, r3
 8006418:	68a3      	ldr	r3, [r4, #8]
 800641a:	9201      	str	r2, [sp, #4]
 800641c:	1e5a      	subs	r2, r3, #1
 800641e:	f5b2 7fae 	cmp.w	r2, #348	@ 0x15c
 8006422:	bf81      	itttt	hi
 8006424:	f46f 75ae 	mvnhi.w	r5, #348	@ 0x15c
 8006428:	eb03 0905 	addhi.w	r9, r3, r5
 800642c:	f240 135d 	movwhi	r3, #349	@ 0x15d
 8006430:	60a3      	strhi	r3, [r4, #8]
 8006432:	f857 3b1c 	ldr.w	r3, [r7], #28
 8006436:	bf98      	it	ls
 8006438:	f04f 0900 	movls.w	r9, #0
 800643c:	463d      	mov	r5, r7
 800643e:	f04f 0b00 	mov.w	fp, #0
 8006442:	f443 6350 	orr.w	r3, r3, #3328	@ 0xd00
 8006446:	6023      	str	r3, [r4, #0]
 8006448:	6831      	ldr	r1, [r6, #0]
 800644a:	ab03      	add	r3, sp, #12
 800644c:	2202      	movs	r2, #2
 800644e:	7809      	ldrb	r1, [r1, #0]
 8006450:	f853 002b 	ldr.w	r0, [r3, fp, lsl #2]
 8006454:	f000 fa10 	bl	8006878 <memchr>
 8006458:	b328      	cbz	r0, 80064a6 <_scanf_i+0xb6>
 800645a:	f1bb 0f01 	cmp.w	fp, #1
 800645e:	d159      	bne.n	8006514 <_scanf_i+0x124>
 8006460:	6862      	ldr	r2, [r4, #4]
 8006462:	b92a      	cbnz	r2, 8006470 <_scanf_i+0x80>
 8006464:	2108      	movs	r1, #8
 8006466:	6822      	ldr	r2, [r4, #0]
 8006468:	6061      	str	r1, [r4, #4]
 800646a:	f442 7200 	orr.w	r2, r2, #512	@ 0x200
 800646e:	6022      	str	r2, [r4, #0]
 8006470:	6822      	ldr	r2, [r4, #0]
 8006472:	f422 62a0 	bic.w	r2, r2, #1280	@ 0x500
 8006476:	6022      	str	r2, [r4, #0]
 8006478:	68a2      	ldr	r2, [r4, #8]
 800647a:	1e51      	subs	r1, r2, #1
 800647c:	60a1      	str	r1, [r4, #8]
 800647e:	b192      	cbz	r2, 80064a6 <_scanf_i+0xb6>
 8006480:	6832      	ldr	r2, [r6, #0]
 8006482:	1c51      	adds	r1, r2, #1
 8006484:	6031      	str	r1, [r6, #0]
 8006486:	7812      	ldrb	r2, [r2, #0]
 8006488:	f805 2b01 	strb.w	r2, [r5], #1
 800648c:	6872      	ldr	r2, [r6, #4]
 800648e:	3a01      	subs	r2, #1
 8006490:	2a00      	cmp	r2, #0
 8006492:	6072      	str	r2, [r6, #4]
 8006494:	dc07      	bgt.n	80064a6 <_scanf_i+0xb6>
 8006496:	4631      	mov	r1, r6
 8006498:	4650      	mov	r0, sl
 800649a:	f8d4 2180 	ldr.w	r2, [r4, #384]	@ 0x180
 800649e:	4790      	blx	r2
 80064a0:	2800      	cmp	r0, #0
 80064a2:	f040 8085 	bne.w	80065b0 <_scanf_i+0x1c0>
 80064a6:	f10b 0b01 	add.w	fp, fp, #1
 80064aa:	f1bb 0f03 	cmp.w	fp, #3
 80064ae:	d1cb      	bne.n	8006448 <_scanf_i+0x58>
 80064b0:	6863      	ldr	r3, [r4, #4]
 80064b2:	b90b      	cbnz	r3, 80064b8 <_scanf_i+0xc8>
 80064b4:	230a      	movs	r3, #10
 80064b6:	6063      	str	r3, [r4, #4]
 80064b8:	6863      	ldr	r3, [r4, #4]
 80064ba:	4945      	ldr	r1, [pc, #276]	@ (80065d0 <_scanf_i+0x1e0>)
 80064bc:	6960      	ldr	r0, [r4, #20]
 80064be:	1ac9      	subs	r1, r1, r3
 80064c0:	f000 f91d 	bl	80066fe <__sccl>
 80064c4:	f04f 0b00 	mov.w	fp, #0
 80064c8:	68a3      	ldr	r3, [r4, #8]
 80064ca:	6822      	ldr	r2, [r4, #0]
 80064cc:	2b00      	cmp	r3, #0
 80064ce:	d03d      	beq.n	800654c <_scanf_i+0x15c>
 80064d0:	6831      	ldr	r1, [r6, #0]
 80064d2:	6960      	ldr	r0, [r4, #20]
 80064d4:	f891 c000 	ldrb.w	ip, [r1]
 80064d8:	f810 000c 	ldrb.w	r0, [r0, ip]
 80064dc:	2800      	cmp	r0, #0
 80064de:	d035      	beq.n	800654c <_scanf_i+0x15c>
 80064e0:	f1bc 0f30 	cmp.w	ip, #48	@ 0x30
 80064e4:	d124      	bne.n	8006530 <_scanf_i+0x140>
 80064e6:	0510      	lsls	r0, r2, #20
 80064e8:	d522      	bpl.n	8006530 <_scanf_i+0x140>
 80064ea:	f10b 0b01 	add.w	fp, fp, #1
 80064ee:	f1b9 0f00 	cmp.w	r9, #0
 80064f2:	d003      	beq.n	80064fc <_scanf_i+0x10c>
 80064f4:	3301      	adds	r3, #1
 80064f6:	f109 39ff 	add.w	r9, r9, #4294967295
 80064fa:	60a3      	str	r3, [r4, #8]
 80064fc:	6873      	ldr	r3, [r6, #4]
 80064fe:	3b01      	subs	r3, #1
 8006500:	2b00      	cmp	r3, #0
 8006502:	6073      	str	r3, [r6, #4]
 8006504:	dd1b      	ble.n	800653e <_scanf_i+0x14e>
 8006506:	6833      	ldr	r3, [r6, #0]
 8006508:	3301      	adds	r3, #1
 800650a:	6033      	str	r3, [r6, #0]
 800650c:	68a3      	ldr	r3, [r4, #8]
 800650e:	3b01      	subs	r3, #1
 8006510:	60a3      	str	r3, [r4, #8]
 8006512:	e7d9      	b.n	80064c8 <_scanf_i+0xd8>
 8006514:	f1bb 0f02 	cmp.w	fp, #2
 8006518:	d1ae      	bne.n	8006478 <_scanf_i+0x88>
 800651a:	6822      	ldr	r2, [r4, #0]
 800651c:	f402 61c0 	and.w	r1, r2, #1536	@ 0x600
 8006520:	f5b1 7f00 	cmp.w	r1, #512	@ 0x200
 8006524:	d1bf      	bne.n	80064a6 <_scanf_i+0xb6>
 8006526:	2110      	movs	r1, #16
 8006528:	f442 7280 	orr.w	r2, r2, #256	@ 0x100
 800652c:	6061      	str	r1, [r4, #4]
 800652e:	e7a2      	b.n	8006476 <_scanf_i+0x86>
 8006530:	f422 6210 	bic.w	r2, r2, #2304	@ 0x900
 8006534:	6022      	str	r2, [r4, #0]
 8006536:	780b      	ldrb	r3, [r1, #0]
 8006538:	f805 3b01 	strb.w	r3, [r5], #1
 800653c:	e7de      	b.n	80064fc <_scanf_i+0x10c>
 800653e:	4631      	mov	r1, r6
 8006540:	4650      	mov	r0, sl
 8006542:	f8d4 3180 	ldr.w	r3, [r4, #384]	@ 0x180
 8006546:	4798      	blx	r3
 8006548:	2800      	cmp	r0, #0
 800654a:	d0df      	beq.n	800650c <_scanf_i+0x11c>
 800654c:	6823      	ldr	r3, [r4, #0]
 800654e:	05d9      	lsls	r1, r3, #23
 8006550:	d50d      	bpl.n	800656e <_scanf_i+0x17e>
 8006552:	42bd      	cmp	r5, r7
 8006554:	d909      	bls.n	800656a <_scanf_i+0x17a>
 8006556:	f815 1c01 	ldrb.w	r1, [r5, #-1]
 800655a:	4632      	mov	r2, r6
 800655c:	4650      	mov	r0, sl
 800655e:	f8d4 317c 	ldr.w	r3, [r4, #380]	@ 0x17c
 8006562:	f105 39ff 	add.w	r9, r5, #4294967295
 8006566:	4798      	blx	r3
 8006568:	464d      	mov	r5, r9
 800656a:	42bd      	cmp	r5, r7
 800656c:	d028      	beq.n	80065c0 <_scanf_i+0x1d0>
 800656e:	6822      	ldr	r2, [r4, #0]
 8006570:	f012 0210 	ands.w	r2, r2, #16
 8006574:	d113      	bne.n	800659e <_scanf_i+0x1ae>
 8006576:	702a      	strb	r2, [r5, #0]
 8006578:	4639      	mov	r1, r7
 800657a:	6863      	ldr	r3, [r4, #4]
 800657c:	4650      	mov	r0, sl
 800657e:	9e01      	ldr	r6, [sp, #4]
 8006580:	47b0      	blx	r6
 8006582:	f8d8 3000 	ldr.w	r3, [r8]
 8006586:	6821      	ldr	r1, [r4, #0]
 8006588:	1d1a      	adds	r2, r3, #4
 800658a:	f8c8 2000 	str.w	r2, [r8]
 800658e:	f011 0f20 	tst.w	r1, #32
 8006592:	681b      	ldr	r3, [r3, #0]
 8006594:	d00f      	beq.n	80065b6 <_scanf_i+0x1c6>
 8006596:	6018      	str	r0, [r3, #0]
 8006598:	68e3      	ldr	r3, [r4, #12]
 800659a:	3301      	adds	r3, #1
 800659c:	60e3      	str	r3, [r4, #12]
 800659e:	2000      	movs	r0, #0
 80065a0:	6923      	ldr	r3, [r4, #16]
 80065a2:	1bed      	subs	r5, r5, r7
 80065a4:	445d      	add	r5, fp
 80065a6:	442b      	add	r3, r5
 80065a8:	6123      	str	r3, [r4, #16]
 80065aa:	b007      	add	sp, #28
 80065ac:	e8bd 8ff0 	ldmia.w	sp!, {r4, r5, r6, r7, r8, r9, sl, fp, pc}
 80065b0:	f04f 0b00 	mov.w	fp, #0
 80065b4:	e7ca      	b.n	800654c <_scanf_i+0x15c>
 80065b6:	07ca      	lsls	r2, r1, #31
 80065b8:	bf4c      	ite	mi
 80065ba:	8018      	strhmi	r0, [r3, #0]
 80065bc:	6018      	strpl	r0, [r3, #0]
 80065be:	e7eb      	b.n	8006598 <_scanf_i+0x1a8>
 80065c0:	2001      	movs	r0, #1
 80065c2:	e7f2      	b.n	80065aa <_scanf_i+0x1ba>
 80065c4:	0800781c 	.word	0x0800781c
 80065c8:	080069e5 	.word	0x080069e5
 80065cc:	08006ac5 	.word	0x08006ac5
 80065d0:	080078ab 	.word	0x080078ab

080065d4 <__swhatbuf_r>:
 80065d4:	b570      	push	{r4, r5, r6, lr}
 80065d6:	460c      	mov	r4, r1
 80065d8:	f9b1 100e 	ldrsh.w	r1, [r1, #14]
 80065dc:	4615      	mov	r5, r2
 80065de:	2900      	cmp	r1, #0
 80065e0:	461e      	mov	r6, r3
 80065e2:	b096      	sub	sp, #88	@ 0x58
 80065e4:	da0c      	bge.n	8006600 <__swhatbuf_r+0x2c>
 80065e6:	89a3      	ldrh	r3, [r4, #12]
 80065e8:	2100      	movs	r1, #0
 80065ea:	f013 0f80 	tst.w	r3, #128	@ 0x80
 80065ee:	bf14      	ite	ne
 80065f0:	2340      	movne	r3, #64	@ 0x40
 80065f2:	f44f 6380 	moveq.w	r3, #1024	@ 0x400
 80065f6:	2000      	movs	r0, #0
 80065f8:	6031      	str	r1, [r6, #0]
 80065fa:	602b      	str	r3, [r5, #0]
 80065fc:	b016      	add	sp, #88	@ 0x58
 80065fe:	bd70      	pop	{r4, r5, r6, pc}
 8006600:	466a      	mov	r2, sp
 8006602:	f000 f907 	bl	8006814 <_fstat_r>
 8006606:	2800      	cmp	r0, #0
 8006608:	dbed      	blt.n	80065e6 <__swhatbuf_r+0x12>
 800660a:	9901      	ldr	r1, [sp, #4]
 800660c:	f401 4170 	and.w	r1, r1, #61440	@ 0xf000
 8006610:	f5a1 5300 	sub.w	r3, r1, #8192	@ 0x2000
 8006614:	4259      	negs	r1, r3
 8006616:	4159      	adcs	r1, r3
 8006618:	f44f 6380 	mov.w	r3, #1024	@ 0x400
 800661c:	e7eb      	b.n	80065f6 <__swhatbuf_r+0x22>

0800661e <__smakebuf_r>:
 800661e:	898b      	ldrh	r3, [r1, #12]
 8006620:	b5f7      	push	{r0, r1, r2, r4, r5, r6, r7, lr}
 8006622:	079d      	lsls	r5, r3, #30
 8006624:	4606      	mov	r6, r0
 8006626:	460c      	mov	r4, r1
 8006628:	d507      	bpl.n	800663a <__smakebuf_r+0x1c>
 800662a:	f104 0347 	add.w	r3, r4, #71	@ 0x47
 800662e:	6023      	str	r3, [r4, #0]
 8006630:	6123      	str	r3, [r4, #16]
 8006632:	2301      	movs	r3, #1
 8006634:	6163      	str	r3, [r4, #20]
 8006636:	b003      	add	sp, #12
 8006638:	bdf0      	pop	{r4, r5, r6, r7, pc}
 800663a:	466a      	mov	r2, sp
 800663c:	ab01      	add	r3, sp, #4
 800663e:	f7ff ffc9 	bl	80065d4 <__swhatbuf_r>
 8006642:	9f00      	ldr	r7, [sp, #0]
 8006644:	4605      	mov	r5, r0
 8006646:	4639      	mov	r1, r7
 8006648:	4630      	mov	r0, r6
 800664a:	f7fe fff7 	bl	800563c <_malloc_r>
 800664e:	b948      	cbnz	r0, 8006664 <__smakebuf_r+0x46>
 8006650:	f9b4 300c 	ldrsh.w	r3, [r4, #12]
 8006654:	059a      	lsls	r2, r3, #22
 8006656:	d4ee      	bmi.n	8006636 <__smakebuf_r+0x18>
 8006658:	f023 0303 	bic.w	r3, r3, #3
 800665c:	f043 0302 	orr.w	r3, r3, #2
 8006660:	81a3      	strh	r3, [r4, #12]
 8006662:	e7e2      	b.n	800662a <__smakebuf_r+0xc>
 8006664:	89a3      	ldrh	r3, [r4, #12]
 8006666:	e9c4 0704 	strd	r0, r7, [r4, #16]
 800666a:	f043 0380 	orr.w	r3, r3, #128	@ 0x80
 800666e:	81a3      	strh	r3, [r4, #12]
 8006670:	9b01      	ldr	r3, [sp, #4]
 8006672:	6020      	str	r0, [r4, #0]
 8006674:	b15b      	cbz	r3, 800668e <__smakebuf_r+0x70>
 8006676:	4630      	mov	r0, r6
 8006678:	f9b4 100e 	ldrsh.w	r1, [r4, #14]
 800667c:	f000 f8dc 	bl	8006838 <_isatty_r>
 8006680:	b128      	cbz	r0, 800668e <__smakebuf_r+0x70>
 8006682:	89a3      	ldrh	r3, [r4, #12]
 8006684:	f023 0303 	bic.w	r3, r3, #3
 8006688:	f043 0301 	orr.w	r3, r3, #1
 800668c:	81a3      	strh	r3, [r4, #12]
 800668e:	89a3      	ldrh	r3, [r4, #12]
 8006690:	431d      	orrs	r5, r3
 8006692:	81a5      	strh	r5, [r4, #12]
 8006694:	e7cf      	b.n	8006636 <__smakebuf_r+0x18>

08006696 <_putc_r>:
 8006696:	b570      	push	{r4, r5, r6, lr}
 8006698:	460d      	mov	r5, r1
 800669a:	4614      	mov	r4, r2
 800669c:	4606      	mov	r6, r0
 800669e:	b118      	cbz	r0, 80066a8 <_putc_r+0x12>
 80066a0:	6a03      	ldr	r3, [r0, #32]
 80066a2:	b90b      	cbnz	r3, 80066a8 <_putc_r+0x12>
 80066a4:	f7fe fcde 	bl	8005064 <__sinit>
 80066a8:	6e63      	ldr	r3, [r4, #100]	@ 0x64
 80066aa:	07d8      	lsls	r0, r3, #31
 80066ac:	d405      	bmi.n	80066ba <_putc_r+0x24>
 80066ae:	89a3      	ldrh	r3, [r4, #12]
 80066b0:	0599      	lsls	r1, r3, #22
 80066b2:	d402      	bmi.n	80066ba <_putc_r+0x24>
 80066b4:	6da0      	ldr	r0, [r4, #88]	@ 0x58
 80066b6:	f7fe ff46 	bl	8005546 <__retarget_lock_acquire_recursive>
 80066ba:	68a3      	ldr	r3, [r4, #8]
 80066bc:	3b01      	subs	r3, #1
 80066be:	2b00      	cmp	r3, #0
 80066c0:	60a3      	str	r3, [r4, #8]
 80066c2:	da05      	bge.n	80066d0 <_putc_r+0x3a>
 80066c4:	69a2      	ldr	r2, [r4, #24]
 80066c6:	4293      	cmp	r3, r2
 80066c8:	db12      	blt.n	80066f0 <_putc_r+0x5a>
 80066ca:	b2eb      	uxtb	r3, r5
 80066cc:	2b0a      	cmp	r3, #10
 80066ce:	d00f      	beq.n	80066f0 <_putc_r+0x5a>
 80066d0:	6823      	ldr	r3, [r4, #0]
 80066d2:	1c5a      	adds	r2, r3, #1
 80066d4:	6022      	str	r2, [r4, #0]
 80066d6:	701d      	strb	r5, [r3, #0]
 80066d8:	b2ed      	uxtb	r5, r5
 80066da:	6e63      	ldr	r3, [r4, #100]	@ 0x64
 80066dc:	07da      	lsls	r2, r3, #31
 80066de:	d405      	bmi.n	80066ec <_putc_r+0x56>
 80066e0:	89a3      	ldrh	r3, [r4, #12]
 80066e2:	059b      	lsls	r3, r3, #22
 80066e4:	d402      	bmi.n	80066ec <_putc_r+0x56>
 80066e6:	6da0      	ldr	r0, [r4, #88]	@ 0x58
 80066e8:	f7fe ff2e 	bl	8005548 <__retarget_lock_release_recursive>
 80066ec:	4628      	mov	r0, r5
 80066ee:	bd70      	pop	{r4, r5, r6, pc}
 80066f0:	4629      	mov	r1, r5
 80066f2:	4622      	mov	r2, r4
 80066f4:	4630      	mov	r0, r6
 80066f6:	f7fe fe06 	bl	8005306 <__swbuf_r>
 80066fa:	4605      	mov	r5, r0
 80066fc:	e7ed      	b.n	80066da <_putc_r+0x44>

080066fe <__sccl>:
 80066fe:	b570      	push	{r4, r5, r6, lr}
 8006700:	780b      	ldrb	r3, [r1, #0]
 8006702:	4604      	mov	r4, r0
 8006704:	2b5e      	cmp	r3, #94	@ 0x5e
 8006706:	bf0b      	itete	eq
 8006708:	784b      	ldrbeq	r3, [r1, #1]
 800670a:	1c4a      	addne	r2, r1, #1
 800670c:	1c8a      	addeq	r2, r1, #2
 800670e:	2100      	movne	r1, #0
 8006710:	bf08      	it	eq
 8006712:	2101      	moveq	r1, #1
 8006714:	3801      	subs	r0, #1
 8006716:	f104 05ff 	add.w	r5, r4, #255	@ 0xff
 800671a:	f800 1f01 	strb.w	r1, [r0, #1]!
 800671e:	42a8      	cmp	r0, r5
 8006720:	d1fb      	bne.n	800671a <__sccl+0x1c>
 8006722:	b90b      	cbnz	r3, 8006728 <__sccl+0x2a>
 8006724:	1e50      	subs	r0, r2, #1
 8006726:	bd70      	pop	{r4, r5, r6, pc}
 8006728:	f081 0101 	eor.w	r1, r1, #1
 800672c:	4610      	mov	r0, r2
 800672e:	54e1      	strb	r1, [r4, r3]
 8006730:	4602      	mov	r2, r0
 8006732:	f812 5b01 	ldrb.w	r5, [r2], #1
 8006736:	2d2d      	cmp	r5, #45	@ 0x2d
 8006738:	d005      	beq.n	8006746 <__sccl+0x48>
 800673a:	2d5d      	cmp	r5, #93	@ 0x5d
 800673c:	d016      	beq.n	800676c <__sccl+0x6e>
 800673e:	2d00      	cmp	r5, #0
 8006740:	d0f1      	beq.n	8006726 <__sccl+0x28>
 8006742:	462b      	mov	r3, r5
 8006744:	e7f2      	b.n	800672c <__sccl+0x2e>
 8006746:	7846      	ldrb	r6, [r0, #1]
 8006748:	2e5d      	cmp	r6, #93	@ 0x5d
 800674a:	d0fa      	beq.n	8006742 <__sccl+0x44>
 800674c:	42b3      	cmp	r3, r6
 800674e:	dcf8      	bgt.n	8006742 <__sccl+0x44>
 8006750:	461a      	mov	r2, r3
 8006752:	3002      	adds	r0, #2
 8006754:	3201      	adds	r2, #1
 8006756:	4296      	cmp	r6, r2
 8006758:	54a1      	strb	r1, [r4, r2]
 800675a:	dcfb      	bgt.n	8006754 <__sccl+0x56>
 800675c:	1af2      	subs	r2, r6, r3
 800675e:	3a01      	subs	r2, #1
 8006760:	42b3      	cmp	r3, r6
 8006762:	bfa8      	it	ge
 8006764:	2200      	movge	r2, #0
 8006766:	1c5d      	adds	r5, r3, #1
 8006768:	18ab      	adds	r3, r5, r2
 800676a:	e7e1      	b.n	8006730 <__sccl+0x32>
 800676c:	4610      	mov	r0, r2
 800676e:	e7da      	b.n	8006726 <__sccl+0x28>

08006770 <__submore>:
 8006770:	e92d 41f0 	stmdb	sp!, {r4, r5, r6, r7, r8, lr}
 8006774:	460c      	mov	r4, r1
 8006776:	6b49      	ldr	r1, [r1, #52]	@ 0x34
 8006778:	f104 0344 	add.w	r3, r4, #68	@ 0x44
 800677c:	4299      	cmp	r1, r3
 800677e:	d11b      	bne.n	80067b8 <__submore+0x48>
 8006780:	f44f 6180 	mov.w	r1, #1024	@ 0x400
 8006784:	f7fe ff5a 	bl	800563c <_malloc_r>
 8006788:	b918      	cbnz	r0, 8006792 <__submore+0x22>
 800678a:	f04f 30ff 	mov.w	r0, #4294967295
 800678e:	e8bd 81f0 	ldmia.w	sp!, {r4, r5, r6, r7, r8, pc}
 8006792:	f44f 6380 	mov.w	r3, #1024	@ 0x400
 8006796:	63a3      	str	r3, [r4, #56]	@ 0x38
 8006798:	f894 3046 	ldrb.w	r3, [r4, #70]	@ 0x46
 800679c:	6360      	str	r0, [r4, #52]	@ 0x34
 800679e:	f880 33ff 	strb.w	r3, [r0, #1023]	@ 0x3ff
 80067a2:	f894 3045 	ldrb.w	r3, [r4, #69]	@ 0x45
 80067a6:	f200 30fd 	addw	r0, r0, #1021	@ 0x3fd
 80067aa:	7043      	strb	r3, [r0, #1]
 80067ac:	f894 3044 	ldrb.w	r3, [r4, #68]	@ 0x44
 80067b0:	7003      	strb	r3, [r0, #0]
 80067b2:	6020      	str	r0, [r4, #0]
 80067b4:	2000      	movs	r0, #0
 80067b6:	e7ea      	b.n	800678e <__submore+0x1e>
 80067b8:	6ba6      	ldr	r6, [r4, #56]	@ 0x38
 80067ba:	0077      	lsls	r7, r6, #1
 80067bc:	463a      	mov	r2, r7
 80067be:	f000 f869 	bl	8006894 <_realloc_r>
 80067c2:	4605      	mov	r5, r0
 80067c4:	2800      	cmp	r0, #0
 80067c6:	d0e0      	beq.n	800678a <__submore+0x1a>
 80067c8:	eb00 0806 	add.w	r8, r0, r6
 80067cc:	4601      	mov	r1, r0
 80067ce:	4632      	mov	r2, r6
 80067d0:	4640      	mov	r0, r8
 80067d2:	f7fe feba 	bl	800554a <memcpy>
 80067d6:	e9c4 570d 	strd	r5, r7, [r4, #52]	@ 0x34
 80067da:	f8c4 8000 	str.w	r8, [r4]
 80067de:	e7e9      	b.n	80067b4 <__submore+0x44>

080067e0 <memmove>:
 80067e0:	4288      	cmp	r0, r1
 80067e2:	b510      	push	{r4, lr}
 80067e4:	eb01 0402 	add.w	r4, r1, r2
 80067e8:	d902      	bls.n	80067f0 <memmove+0x10>
 80067ea:	4284      	cmp	r4, r0
 80067ec:	4623      	mov	r3, r4
 80067ee:	d807      	bhi.n	8006800 <memmove+0x20>
 80067f0:	1e43      	subs	r3, r0, #1
 80067f2:	42a1      	cmp	r1, r4
 80067f4:	d008      	beq.n	8006808 <memmove+0x28>
 80067f6:	f811 2b01 	ldrb.w	r2, [r1], #1
 80067fa:	f803 2f01 	strb.w	r2, [r3, #1]!
 80067fe:	e7f8      	b.n	80067f2 <memmove+0x12>
 8006800:	4601      	mov	r1, r0
 8006802:	4402      	add	r2, r0
 8006804:	428a      	cmp	r2, r1
 8006806:	d100      	bne.n	800680a <memmove+0x2a>
 8006808:	bd10      	pop	{r4, pc}
 800680a:	f813 4d01 	ldrb.w	r4, [r3, #-1]!
 800680e:	f802 4d01 	strb.w	r4, [r2, #-1]!
 8006812:	e7f7      	b.n	8006804 <memmove+0x24>

08006814 <_fstat_r>:
 8006814:	b538      	push	{r3, r4, r5, lr}
 8006816:	2300      	movs	r3, #0
 8006818:	4d06      	ldr	r5, [pc, #24]	@ (8006834 <_fstat_r+0x20>)
 800681a:	4604      	mov	r4, r0
 800681c:	4608      	mov	r0, r1
 800681e:	4611      	mov	r1, r2
 8006820:	602b      	str	r3, [r5, #0]
 8006822:	f7fd f9ed 	bl	8003c00 <_fstat>
 8006826:	1c43      	adds	r3, r0, #1
 8006828:	d102      	bne.n	8006830 <_fstat_r+0x1c>
 800682a:	682b      	ldr	r3, [r5, #0]
 800682c:	b103      	cbz	r3, 8006830 <_fstat_r+0x1c>
 800682e:	6023      	str	r3, [r4, #0]
 8006830:	bd38      	pop	{r3, r4, r5, pc}
 8006832:	bf00      	nop
 8006834:	200057a4 	.word	0x200057a4

08006838 <_isatty_r>:
 8006838:	b538      	push	{r3, r4, r5, lr}
 800683a:	2300      	movs	r3, #0
 800683c:	4d05      	ldr	r5, [pc, #20]	@ (8006854 <_isatty_r+0x1c>)
 800683e:	4604      	mov	r4, r0
 8006840:	4608      	mov	r0, r1
 8006842:	602b      	str	r3, [r5, #0]
 8006844:	f7fd f9eb 	bl	8003c1e <_isatty>
 8006848:	1c43      	adds	r3, r0, #1
 800684a:	d102      	bne.n	8006852 <_isatty_r+0x1a>
 800684c:	682b      	ldr	r3, [r5, #0]
 800684e:	b103      	cbz	r3, 8006852 <_isatty_r+0x1a>
 8006850:	6023      	str	r3, [r4, #0]
 8006852:	bd38      	pop	{r3, r4, r5, pc}
 8006854:	200057a4 	.word	0x200057a4

08006858 <_sbrk_r>:
 8006858:	b538      	push	{r3, r4, r5, lr}
 800685a:	2300      	movs	r3, #0
 800685c:	4d05      	ldr	r5, [pc, #20]	@ (8006874 <_sbrk_r+0x1c>)
 800685e:	4604      	mov	r4, r0
 8006860:	4608      	mov	r0, r1
 8006862:	602b      	str	r3, [r5, #0]
 8006864:	f7fd f9f2 	bl	8003c4c <_sbrk>
 8006868:	1c43      	adds	r3, r0, #1
 800686a:	d102      	bne.n	8006872 <_sbrk_r+0x1a>
 800686c:	682b      	ldr	r3, [r5, #0]
 800686e:	b103      	cbz	r3, 8006872 <_sbrk_r+0x1a>
 8006870:	6023      	str	r3, [r4, #0]
 8006872:	bd38      	pop	{r3, r4, r5, pc}
 8006874:	200057a4 	.word	0x200057a4

08006878 <memchr>:
 8006878:	4603      	mov	r3, r0
 800687a:	b510      	push	{r4, lr}
 800687c:	b2c9      	uxtb	r1, r1
 800687e:	4402      	add	r2, r0
 8006880:	4293      	cmp	r3, r2
 8006882:	4618      	mov	r0, r3
 8006884:	d101      	bne.n	800688a <memchr+0x12>
 8006886:	2000      	movs	r0, #0
 8006888:	e003      	b.n	8006892 <memchr+0x1a>
 800688a:	7804      	ldrb	r4, [r0, #0]
 800688c:	3301      	adds	r3, #1
 800688e:	428c      	cmp	r4, r1
 8006890:	d1f6      	bne.n	8006880 <memchr+0x8>
 8006892:	bd10      	pop	{r4, pc}

08006894 <_realloc_r>:
 8006894:	e92d 41f0 	stmdb	sp!, {r4, r5, r6, r7, r8, lr}
 8006898:	4680      	mov	r8, r0
 800689a:	4615      	mov	r5, r2
 800689c:	460c      	mov	r4, r1
 800689e:	b921      	cbnz	r1, 80068aa <_realloc_r+0x16>
 80068a0:	4611      	mov	r1, r2
 80068a2:	e8bd 41f0 	ldmia.w	sp!, {r4, r5, r6, r7, r8, lr}
 80068a6:	f7fe bec9 	b.w	800563c <_malloc_r>
 80068aa:	b92a      	cbnz	r2, 80068b8 <_realloc_r+0x24>
 80068ac:	f7fe fe5c 	bl	8005568 <_free_r>
 80068b0:	2400      	movs	r4, #0
 80068b2:	4620      	mov	r0, r4
 80068b4:	e8bd 81f0 	ldmia.w	sp!, {r4, r5, r6, r7, r8, pc}
 80068b8:	f000 f906 	bl	8006ac8 <_malloc_usable_size_r>
 80068bc:	4285      	cmp	r5, r0
 80068be:	4606      	mov	r6, r0
 80068c0:	d802      	bhi.n	80068c8 <_realloc_r+0x34>
 80068c2:	ebb5 0f50 	cmp.w	r5, r0, lsr #1
 80068c6:	d8f4      	bhi.n	80068b2 <_realloc_r+0x1e>
 80068c8:	4629      	mov	r1, r5
 80068ca:	4640      	mov	r0, r8
 80068cc:	f7fe feb6 	bl	800563c <_malloc_r>
 80068d0:	4607      	mov	r7, r0
 80068d2:	2800      	cmp	r0, #0
 80068d4:	d0ec      	beq.n	80068b0 <_realloc_r+0x1c>
 80068d6:	42b5      	cmp	r5, r6
 80068d8:	462a      	mov	r2, r5
 80068da:	4621      	mov	r1, r4
 80068dc:	bf28      	it	cs
 80068de:	4632      	movcs	r2, r6
 80068e0:	f7fe fe33 	bl	800554a <memcpy>
 80068e4:	4621      	mov	r1, r4
 80068e6:	4640      	mov	r0, r8
 80068e8:	f7fe fe3e 	bl	8005568 <_free_r>
 80068ec:	463c      	mov	r4, r7
 80068ee:	e7e0      	b.n	80068b2 <_realloc_r+0x1e>

080068f0 <_strtol_l.constprop.0>:
 80068f0:	2b24      	cmp	r3, #36	@ 0x24
 80068f2:	e92d 47f0 	stmdb	sp!, {r4, r5, r6, r7, r8, r9, sl, lr}
 80068f6:	4686      	mov	lr, r0
 80068f8:	4690      	mov	r8, r2
 80068fa:	d801      	bhi.n	8006900 <_strtol_l.constprop.0+0x10>
 80068fc:	2b01      	cmp	r3, #1
 80068fe:	d106      	bne.n	800690e <_strtol_l.constprop.0+0x1e>
 8006900:	f7fe fdf6 	bl	80054f0 <__errno>
 8006904:	2316      	movs	r3, #22
 8006906:	6003      	str	r3, [r0, #0]
 8006908:	2000      	movs	r0, #0
 800690a:	e8bd 87f0 	ldmia.w	sp!, {r4, r5, r6, r7, r8, r9, sl, pc}
 800690e:	460d      	mov	r5, r1
 8006910:	4833      	ldr	r0, [pc, #204]	@ (80069e0 <_strtol_l.constprop.0+0xf0>)
 8006912:	462a      	mov	r2, r5
 8006914:	f815 4b01 	ldrb.w	r4, [r5], #1
 8006918:	5d06      	ldrb	r6, [r0, r4]
 800691a:	f016 0608 	ands.w	r6, r6, #8
 800691e:	d1f8      	bne.n	8006912 <_strtol_l.constprop.0+0x22>
 8006920:	2c2d      	cmp	r4, #45	@ 0x2d
 8006922:	d12d      	bne.n	8006980 <_strtol_l.constprop.0+0x90>
 8006924:	2601      	movs	r6, #1
 8006926:	782c      	ldrb	r4, [r5, #0]
 8006928:	1c95      	adds	r5, r2, #2
 800692a:	f033 0210 	bics.w	r2, r3, #16
 800692e:	d109      	bne.n	8006944 <_strtol_l.constprop.0+0x54>
 8006930:	2c30      	cmp	r4, #48	@ 0x30
 8006932:	d12a      	bne.n	800698a <_strtol_l.constprop.0+0x9a>
 8006934:	782a      	ldrb	r2, [r5, #0]
 8006936:	f002 02df 	and.w	r2, r2, #223	@ 0xdf
 800693a:	2a58      	cmp	r2, #88	@ 0x58
 800693c:	d125      	bne.n	800698a <_strtol_l.constprop.0+0x9a>
 800693e:	2310      	movs	r3, #16
 8006940:	786c      	ldrb	r4, [r5, #1]
 8006942:	3502      	adds	r5, #2
 8006944:	2200      	movs	r2, #0
 8006946:	f106 4c00 	add.w	ip, r6, #2147483648	@ 0x80000000
 800694a:	f10c 3cff 	add.w	ip, ip, #4294967295
 800694e:	fbbc f9f3 	udiv	r9, ip, r3
 8006952:	4610      	mov	r0, r2
 8006954:	fb03 ca19 	mls	sl, r3, r9, ip
 8006958:	f1a4 0730 	sub.w	r7, r4, #48	@ 0x30
 800695c:	2f09      	cmp	r7, #9
 800695e:	d81b      	bhi.n	8006998 <_strtol_l.constprop.0+0xa8>
 8006960:	463c      	mov	r4, r7
 8006962:	42a3      	cmp	r3, r4
 8006964:	dd27      	ble.n	80069b6 <_strtol_l.constprop.0+0xc6>
 8006966:	1c57      	adds	r7, r2, #1
 8006968:	d007      	beq.n	800697a <_strtol_l.constprop.0+0x8a>
 800696a:	4581      	cmp	r9, r0
 800696c:	d320      	bcc.n	80069b0 <_strtol_l.constprop.0+0xc0>
 800696e:	d101      	bne.n	8006974 <_strtol_l.constprop.0+0x84>
 8006970:	45a2      	cmp	sl, r4
 8006972:	db1d      	blt.n	80069b0 <_strtol_l.constprop.0+0xc0>
 8006974:	2201      	movs	r2, #1
 8006976:	fb00 4003 	mla	r0, r0, r3, r4
 800697a:	f815 4b01 	ldrb.w	r4, [r5], #1
 800697e:	e7eb      	b.n	8006958 <_strtol_l.constprop.0+0x68>
 8006980:	2c2b      	cmp	r4, #43	@ 0x2b
 8006982:	bf04      	itt	eq
 8006984:	782c      	ldrbeq	r4, [r5, #0]
 8006986:	1c95      	addeq	r5, r2, #2
 8006988:	e7cf      	b.n	800692a <_strtol_l.constprop.0+0x3a>
 800698a:	2b00      	cmp	r3, #0
 800698c:	d1da      	bne.n	8006944 <_strtol_l.constprop.0+0x54>
 800698e:	2c30      	cmp	r4, #48	@ 0x30
 8006990:	bf0c      	ite	eq
 8006992:	2308      	moveq	r3, #8
 8006994:	230a      	movne	r3, #10
 8006996:	e7d5      	b.n	8006944 <_strtol_l.constprop.0+0x54>
 8006998:	f1a4 0741 	sub.w	r7, r4, #65	@ 0x41
 800699c:	2f19      	cmp	r7, #25
 800699e:	d801      	bhi.n	80069a4 <_strtol_l.constprop.0+0xb4>
 80069a0:	3c37      	subs	r4, #55	@ 0x37
 80069a2:	e7de      	b.n	8006962 <_strtol_l.constprop.0+0x72>
 80069a4:	f1a4 0761 	sub.w	r7, r4, #97	@ 0x61
 80069a8:	2f19      	cmp	r7, #25
 80069aa:	d804      	bhi.n	80069b6 <_strtol_l.constprop.0+0xc6>
 80069ac:	3c57      	subs	r4, #87	@ 0x57
 80069ae:	e7d8      	b.n	8006962 <_strtol_l.constprop.0+0x72>
 80069b0:	f04f 32ff 	mov.w	r2, #4294967295
 80069b4:	e7e1      	b.n	800697a <_strtol_l.constprop.0+0x8a>
 80069b6:	1c53      	adds	r3, r2, #1
 80069b8:	d108      	bne.n	80069cc <_strtol_l.constprop.0+0xdc>
 80069ba:	2322      	movs	r3, #34	@ 0x22
 80069bc:	4660      	mov	r0, ip
 80069be:	f8ce 3000 	str.w	r3, [lr]
 80069c2:	f1b8 0f00 	cmp.w	r8, #0
 80069c6:	d0a0      	beq.n	800690a <_strtol_l.constprop.0+0x1a>
 80069c8:	1e69      	subs	r1, r5, #1
 80069ca:	e006      	b.n	80069da <_strtol_l.constprop.0+0xea>
 80069cc:	b106      	cbz	r6, 80069d0 <_strtol_l.constprop.0+0xe0>
 80069ce:	4240      	negs	r0, r0
 80069d0:	f1b8 0f00 	cmp.w	r8, #0
 80069d4:	d099      	beq.n	800690a <_strtol_l.constprop.0+0x1a>
 80069d6:	2a00      	cmp	r2, #0
 80069d8:	d1f6      	bne.n	80069c8 <_strtol_l.constprop.0+0xd8>
 80069da:	f8c8 1000 	str.w	r1, [r8]
 80069de:	e794      	b.n	800690a <_strtol_l.constprop.0+0x1a>
 80069e0:	080078b7 	.word	0x080078b7

080069e4 <_strtol_r>:
 80069e4:	f7ff bf84 	b.w	80068f0 <_strtol_l.constprop.0>

080069e8 <_strtoul_l.constprop.0>:
 80069e8:	e92d 43f0 	stmdb	sp!, {r4, r5, r6, r7, r8, r9, lr}
 80069ec:	4686      	mov	lr, r0
 80069ee:	460d      	mov	r5, r1
 80069f0:	4e33      	ldr	r6, [pc, #204]	@ (8006ac0 <_strtoul_l.constprop.0+0xd8>)
 80069f2:	4628      	mov	r0, r5
 80069f4:	f815 4b01 	ldrb.w	r4, [r5], #1
 80069f8:	5d37      	ldrb	r7, [r6, r4]
 80069fa:	f017 0708 	ands.w	r7, r7, #8
 80069fe:	d1f8      	bne.n	80069f2 <_strtoul_l.constprop.0+0xa>
 8006a00:	2c2d      	cmp	r4, #45	@ 0x2d
 8006a02:	d12f      	bne.n	8006a64 <_strtoul_l.constprop.0+0x7c>
 8006a04:	2701      	movs	r7, #1
 8006a06:	782c      	ldrb	r4, [r5, #0]
 8006a08:	1c85      	adds	r5, r0, #2
 8006a0a:	f033 0010 	bics.w	r0, r3, #16
 8006a0e:	d109      	bne.n	8006a24 <_strtoul_l.constprop.0+0x3c>
 8006a10:	2c30      	cmp	r4, #48	@ 0x30
 8006a12:	d12c      	bne.n	8006a6e <_strtoul_l.constprop.0+0x86>
 8006a14:	7828      	ldrb	r0, [r5, #0]
 8006a16:	f000 00df 	and.w	r0, r0, #223	@ 0xdf
 8006a1a:	2858      	cmp	r0, #88	@ 0x58
 8006a1c:	d127      	bne.n	8006a6e <_strtoul_l.constprop.0+0x86>
 8006a1e:	2310      	movs	r3, #16
 8006a20:	786c      	ldrb	r4, [r5, #1]
 8006a22:	3502      	adds	r5, #2
 8006a24:	f04f 38ff 	mov.w	r8, #4294967295
 8006a28:	fbb8 f8f3 	udiv	r8, r8, r3
 8006a2c:	2600      	movs	r6, #0
 8006a2e:	fb03 f908 	mul.w	r9, r3, r8
 8006a32:	4630      	mov	r0, r6
 8006a34:	ea6f 0909 	mvn.w	r9, r9
 8006a38:	f1a4 0c30 	sub.w	ip, r4, #48	@ 0x30
 8006a3c:	f1bc 0f09 	cmp.w	ip, #9
 8006a40:	d81c      	bhi.n	8006a7c <_strtoul_l.constprop.0+0x94>
 8006a42:	4664      	mov	r4, ip
 8006a44:	42a3      	cmp	r3, r4
 8006a46:	dd2a      	ble.n	8006a9e <_strtoul_l.constprop.0+0xb6>
 8006a48:	f1b6 3fff 	cmp.w	r6, #4294967295
 8006a4c:	d007      	beq.n	8006a5e <_strtoul_l.constprop.0+0x76>
 8006a4e:	4580      	cmp	r8, r0
 8006a50:	d322      	bcc.n	8006a98 <_strtoul_l.constprop.0+0xb0>
 8006a52:	d101      	bne.n	8006a58 <_strtoul_l.constprop.0+0x70>
 8006a54:	45a1      	cmp	r9, r4
 8006a56:	db1f      	blt.n	8006a98 <_strtoul_l.constprop.0+0xb0>
 8006a58:	2601      	movs	r6, #1
 8006a5a:	fb00 4003 	mla	r0, r0, r3, r4
 8006a5e:	f815 4b01 	ldrb.w	r4, [r5], #1
 8006a62:	e7e9      	b.n	8006a38 <_strtoul_l.constprop.0+0x50>
 8006a64:	2c2b      	cmp	r4, #43	@ 0x2b
 8006a66:	bf04      	itt	eq
 8006a68:	782c      	ldrbeq	r4, [r5, #0]
 8006a6a:	1c85      	addeq	r5, r0, #2
 8006a6c:	e7cd      	b.n	8006a0a <_strtoul_l.constprop.0+0x22>
 8006a6e:	2b00      	cmp	r3, #0
 8006a70:	d1d8      	bne.n	8006a24 <_strtoul_l.constprop.0+0x3c>
 8006a72:	2c30      	cmp	r4, #48	@ 0x30
 8006a74:	bf0c      	ite	eq
 8006a76:	2308      	moveq	r3, #8
 8006a78:	230a      	movne	r3, #10
 8006a7a:	e7d3      	b.n	8006a24 <_strtoul_l.constprop.0+0x3c>
 8006a7c:	f1a4 0c41 	sub.w	ip, r4, #65	@ 0x41
 8006a80:	f1bc 0f19 	cmp.w	ip, #25
 8006a84:	d801      	bhi.n	8006a8a <_strtoul_l.constprop.0+0xa2>
 8006a86:	3c37      	subs	r4, #55	@ 0x37
 8006a88:	e7dc      	b.n	8006a44 <_strtoul_l.constprop.0+0x5c>
 8006a8a:	f1a4 0c61 	sub.w	ip, r4, #97	@ 0x61
 8006a8e:	f1bc 0f19 	cmp.w	ip, #25
 8006a92:	d804      	bhi.n	8006a9e <_strtoul_l.constprop.0+0xb6>
 8006a94:	3c57      	subs	r4, #87	@ 0x57
 8006a96:	e7d5      	b.n	8006a44 <_strtoul_l.constprop.0+0x5c>
 8006a98:	f04f 36ff 	mov.w	r6, #4294967295
 8006a9c:	e7df      	b.n	8006a5e <_strtoul_l.constprop.0+0x76>
 8006a9e:	1c73      	adds	r3, r6, #1
 8006aa0:	d106      	bne.n	8006ab0 <_strtoul_l.constprop.0+0xc8>
 8006aa2:	2322      	movs	r3, #34	@ 0x22
 8006aa4:	4630      	mov	r0, r6
 8006aa6:	f8ce 3000 	str.w	r3, [lr]
 8006aaa:	b932      	cbnz	r2, 8006aba <_strtoul_l.constprop.0+0xd2>
 8006aac:	e8bd 83f0 	ldmia.w	sp!, {r4, r5, r6, r7, r8, r9, pc}
 8006ab0:	b107      	cbz	r7, 8006ab4 <_strtoul_l.constprop.0+0xcc>
 8006ab2:	4240      	negs	r0, r0
 8006ab4:	2a00      	cmp	r2, #0
 8006ab6:	d0f9      	beq.n	8006aac <_strtoul_l.constprop.0+0xc4>
 8006ab8:	b106      	cbz	r6, 8006abc <_strtoul_l.constprop.0+0xd4>
 8006aba:	1e69      	subs	r1, r5, #1
 8006abc:	6011      	str	r1, [r2, #0]
 8006abe:	e7f5      	b.n	8006aac <_strtoul_l.constprop.0+0xc4>
 8006ac0:	080078b7 	.word	0x080078b7

08006ac4 <_strtoul_r>:
 8006ac4:	f7ff bf90 	b.w	80069e8 <_strtoul_l.constprop.0>

08006ac8 <_malloc_usable_size_r>:
 8006ac8:	f851 3c04 	ldr.w	r3, [r1, #-4]
 8006acc:	1f18      	subs	r0, r3, #4
 8006ace:	2b00      	cmp	r3, #0
 8006ad0:	bfbc      	itt	lt
 8006ad2:	580b      	ldrlt	r3, [r1, r0]
 8006ad4:	18c0      	addlt	r0, r0, r3
 8006ad6:	4770      	bx	lr

08006ad8 <_init>:
 8006ad8:	b5f8      	push	{r3, r4, r5, r6, r7, lr}
 8006ada:	bf00      	nop
 8006adc:	bcf8      	pop	{r3, r4, r5, r6, r7}
 8006ade:	bc08      	pop	{r3}
 8006ae0:	469e      	mov	lr, r3
 8006ae2:	4770      	bx	lr

08006ae4 <_fini>:
 8006ae4:	b5f8      	push	{r3, r4, r5, r6, r7, lr}
 8006ae6:	bf00      	nop
 8006ae8:	bcf8      	pop	{r3, r4, r5, r6, r7}
 8006aea:	bc08      	pop	{r3}
 8006aec:	469e      	mov	lr, r3
 8006aee:	4770      	bx	lr
